
Sirius_Test_Slave.elf:     file format elf32-littlearm

Sections:
Idx Name          Size      VMA       LMA       File off  Algn
  0 .isr_vector   00000198  08000000  08000000  00010000  2**0
                  CONTENTS, ALLOC, LOAD, READONLY, DATA
  1 .text         000064f8  08000198  08000198  00010198  2**3
                  CONTENTS, ALLOC, LOAD, READONLY, CODE
  2 .rodata       000000c4  08006690  08006690  00016690  2**2
                  CONTENTS, ALLOC, LOAD, READONLY, DATA
  3 .ARM.extab    00000000  08006754  08006754  00020074  2**0
                  CONTENTS
  4 .ARM          00000008  08006754  08006754  00016754  2**2
                  CONTENTS, ALLOC, LOAD, READONLY, DATA
  5 .preinit_array 00000000  0800675c  0800675c  00020074  2**0
                  CONTENTS, ALLOC, LOAD, DATA
  6 .init_array   00000008  0800675c  0800675c  0001675c  2**2
                  CONTENTS, ALLOC, LOAD, DATA
  7 .fini_array   00000008  08006764  08006764  00016764  2**2
                  CONTENTS, ALLOC, LOAD, DATA
  8 .data         00000074  20000000  0800676c  00020000  2**2
                  CONTENTS, ALLOC, LOAD, DATA
  9 .bss          00000218  20000074  080067e0  00020074  2**2
                  ALLOC
 10 ._user_heap_stack 00000604  2000028c  080067e0  0002028c  2**0
                  ALLOC
 11 .ARM.attributes 00000030  00000000  00000000  00020074  2**0
                  CONTENTS, READONLY
 12 .debug_info   00014dff  00000000  00000000  000200a4  2**0
                  CONTENTS, READONLY, DEBUGGING, OCTETS
 13 .debug_abbrev 00003213  00000000  00000000  00034ea3  2**0
                  CONTENTS, READONLY, DEBUGGING, OCTETS
 14 .debug_aranges 000011b8  00000000  00000000  000380b8  2**3
                  CONTENTS, READONLY, DEBUGGING, OCTETS
 15 .debug_ranges 000010a8  00000000  00000000  00039270  2**3
                  CONTENTS, READONLY, DEBUGGING, OCTETS
 16 .debug_macro  00019acf  00000000  00000000  0003a318  2**0
                  CONTENTS, READONLY, DEBUGGING, OCTETS
 17 .debug_line   00014b28  00000000  00000000  00053de7  2**0
                  CONTENTS, READONLY, DEBUGGING, OCTETS
 18 .debug_str    00090d68  00000000  00000000  0006890f  2**0
                  CONTENTS, READONLY, DEBUGGING, OCTETS
 19 .comment      00000050  00000000  00000000  000f9677  2**0
                  CONTENTS, READONLY
 20 .debug_frame  00005060  00000000  00000000  000f96c8  2**2
                  CONTENTS, READONLY, DEBUGGING, OCTETS

Disassembly of section .text:

08000198 <__do_global_dtors_aux>:
 8000198:	b510      	push	{r4, lr}
 800019a:	4c05      	ldr	r4, [pc, #20]	; (80001b0 <__do_global_dtors_aux+0x18>)
 800019c:	7823      	ldrb	r3, [r4, #0]
 800019e:	b933      	cbnz	r3, 80001ae <__do_global_dtors_aux+0x16>
 80001a0:	4b04      	ldr	r3, [pc, #16]	; (80001b4 <__do_global_dtors_aux+0x1c>)
 80001a2:	b113      	cbz	r3, 80001aa <__do_global_dtors_aux+0x12>
 80001a4:	4804      	ldr	r0, [pc, #16]	; (80001b8 <__do_global_dtors_aux+0x20>)
 80001a6:	f3af 8000 	nop.w
 80001aa:	2301      	movs	r3, #1
 80001ac:	7023      	strb	r3, [r4, #0]
 80001ae:	bd10      	pop	{r4, pc}
 80001b0:	20000074 	.word	0x20000074
 80001b4:	00000000 	.word	0x00000000
 80001b8:	08006678 	.word	0x08006678

080001bc <frame_dummy>:
 80001bc:	b508      	push	{r3, lr}
 80001be:	4b03      	ldr	r3, [pc, #12]	; (80001cc <frame_dummy+0x10>)
 80001c0:	b11b      	cbz	r3, 80001ca <frame_dummy+0xe>
 80001c2:	4903      	ldr	r1, [pc, #12]	; (80001d0 <frame_dummy+0x14>)
 80001c4:	4803      	ldr	r0, [pc, #12]	; (80001d4 <frame_dummy+0x18>)
 80001c6:	f3af 8000 	nop.w
 80001ca:	bd08      	pop	{r3, pc}
 80001cc:	00000000 	.word	0x00000000
 80001d0:	20000078 	.word	0x20000078
 80001d4:	08006678 	.word	0x08006678

080001d8 <__aeabi_drsub>:
 80001d8:	f081 4100 	eor.w	r1, r1, #2147483648	; 0x80000000
 80001dc:	e002      	b.n	80001e4 <__adddf3>
 80001de:	bf00      	nop

080001e0 <__aeabi_dsub>:
 80001e0:	f083 4300 	eor.w	r3, r3, #2147483648	; 0x80000000

080001e4 <__adddf3>:
 80001e4:	b530      	push	{r4, r5, lr}
 80001e6:	ea4f 0441 	mov.w	r4, r1, lsl #1
 80001ea:	ea4f 0543 	mov.w	r5, r3, lsl #1
 80001ee:	ea94 0f05 	teq	r4, r5
 80001f2:	bf08      	it	eq
 80001f4:	ea90 0f02 	teqeq	r0, r2
 80001f8:	bf1f      	itttt	ne
 80001fa:	ea54 0c00 	orrsne.w	ip, r4, r0
 80001fe:	ea55 0c02 	orrsne.w	ip, r5, r2
 8000202:	ea7f 5c64 	mvnsne.w	ip, r4, asr #21
 8000206:	ea7f 5c65 	mvnsne.w	ip, r5, asr #21
 800020a:	f000 80e2 	beq.w	80003d2 <__adddf3+0x1ee>
 800020e:	ea4f 5454 	mov.w	r4, r4, lsr #21
 8000212:	ebd4 5555 	rsbs	r5, r4, r5, lsr #21
 8000216:	bfb8      	it	lt
 8000218:	426d      	neglt	r5, r5
 800021a:	dd0c      	ble.n	8000236 <__adddf3+0x52>
 800021c:	442c      	add	r4, r5
 800021e:	ea80 0202 	eor.w	r2, r0, r2
 8000222:	ea81 0303 	eor.w	r3, r1, r3
 8000226:	ea82 0000 	eor.w	r0, r2, r0
 800022a:	ea83 0101 	eor.w	r1, r3, r1
 800022e:	ea80 0202 	eor.w	r2, r0, r2
 8000232:	ea81 0303 	eor.w	r3, r1, r3
 8000236:	2d36      	cmp	r5, #54	; 0x36
 8000238:	bf88      	it	hi
 800023a:	bd30      	pophi	{r4, r5, pc}
 800023c:	f011 4f00 	tst.w	r1, #2147483648	; 0x80000000
 8000240:	ea4f 3101 	mov.w	r1, r1, lsl #12
 8000244:	f44f 1c80 	mov.w	ip, #1048576	; 0x100000
 8000248:	ea4c 3111 	orr.w	r1, ip, r1, lsr #12
 800024c:	d002      	beq.n	8000254 <__adddf3+0x70>
 800024e:	4240      	negs	r0, r0
 8000250:	eb61 0141 	sbc.w	r1, r1, r1, lsl #1
 8000254:	f013 4f00 	tst.w	r3, #2147483648	; 0x80000000
 8000258:	ea4f 3303 	mov.w	r3, r3, lsl #12
 800025c:	ea4c 3313 	orr.w	r3, ip, r3, lsr #12
 8000260:	d002      	beq.n	8000268 <__adddf3+0x84>
 8000262:	4252      	negs	r2, r2
 8000264:	eb63 0343 	sbc.w	r3, r3, r3, lsl #1
 8000268:	ea94 0f05 	teq	r4, r5
 800026c:	f000 80a7 	beq.w	80003be <__adddf3+0x1da>
 8000270:	f1a4 0401 	sub.w	r4, r4, #1
 8000274:	f1d5 0e20 	rsbs	lr, r5, #32
 8000278:	db0d      	blt.n	8000296 <__adddf3+0xb2>
 800027a:	fa02 fc0e 	lsl.w	ip, r2, lr
 800027e:	fa22 f205 	lsr.w	r2, r2, r5
 8000282:	1880      	adds	r0, r0, r2
 8000284:	f141 0100 	adc.w	r1, r1, #0
 8000288:	fa03 f20e 	lsl.w	r2, r3, lr
 800028c:	1880      	adds	r0, r0, r2
 800028e:	fa43 f305 	asr.w	r3, r3, r5
 8000292:	4159      	adcs	r1, r3
 8000294:	e00e      	b.n	80002b4 <__adddf3+0xd0>
 8000296:	f1a5 0520 	sub.w	r5, r5, #32
 800029a:	f10e 0e20 	add.w	lr, lr, #32
 800029e:	2a01      	cmp	r2, #1
 80002a0:	fa03 fc0e 	lsl.w	ip, r3, lr
 80002a4:	bf28      	it	cs
 80002a6:	f04c 0c02 	orrcs.w	ip, ip, #2
 80002aa:	fa43 f305 	asr.w	r3, r3, r5
 80002ae:	18c0      	adds	r0, r0, r3
 80002b0:	eb51 71e3 	adcs.w	r1, r1, r3, asr #31
 80002b4:	f001 4500 	and.w	r5, r1, #2147483648	; 0x80000000
 80002b8:	d507      	bpl.n	80002ca <__adddf3+0xe6>
 80002ba:	f04f 0e00 	mov.w	lr, #0
 80002be:	f1dc 0c00 	rsbs	ip, ip, #0
 80002c2:	eb7e 0000 	sbcs.w	r0, lr, r0
 80002c6:	eb6e 0101 	sbc.w	r1, lr, r1
 80002ca:	f5b1 1f80 	cmp.w	r1, #1048576	; 0x100000
 80002ce:	d31b      	bcc.n	8000308 <__adddf3+0x124>
 80002d0:	f5b1 1f00 	cmp.w	r1, #2097152	; 0x200000
 80002d4:	d30c      	bcc.n	80002f0 <__adddf3+0x10c>
 80002d6:	0849      	lsrs	r1, r1, #1
 80002d8:	ea5f 0030 	movs.w	r0, r0, rrx
 80002dc:	ea4f 0c3c 	mov.w	ip, ip, rrx
 80002e0:	f104 0401 	add.w	r4, r4, #1
 80002e4:	ea4f 5244 	mov.w	r2, r4, lsl #21
 80002e8:	f512 0f80 	cmn.w	r2, #4194304	; 0x400000
 80002ec:	f080 809a 	bcs.w	8000424 <__adddf3+0x240>
 80002f0:	f1bc 4f00 	cmp.w	ip, #2147483648	; 0x80000000
 80002f4:	bf08      	it	eq
 80002f6:	ea5f 0c50 	movseq.w	ip, r0, lsr #1
 80002fa:	f150 0000 	adcs.w	r0, r0, #0
 80002fe:	eb41 5104 	adc.w	r1, r1, r4, lsl #20
 8000302:	ea41 0105 	orr.w	r1, r1, r5
 8000306:	bd30      	pop	{r4, r5, pc}
 8000308:	ea5f 0c4c 	movs.w	ip, ip, lsl #1
 800030c:	4140      	adcs	r0, r0
 800030e:	eb41 0101 	adc.w	r1, r1, r1
 8000312:	3c01      	subs	r4, #1
 8000314:	bf28      	it	cs
 8000316:	f5b1 1f80 	cmpcs.w	r1, #1048576	; 0x100000
 800031a:	d2e9      	bcs.n	80002f0 <__adddf3+0x10c>
 800031c:	f091 0f00 	teq	r1, #0
 8000320:	bf04      	itt	eq
 8000322:	4601      	moveq	r1, r0
 8000324:	2000      	moveq	r0, #0
 8000326:	fab1 f381 	clz	r3, r1
 800032a:	bf08      	it	eq
 800032c:	3320      	addeq	r3, #32
 800032e:	f1a3 030b 	sub.w	r3, r3, #11
 8000332:	f1b3 0220 	subs.w	r2, r3, #32
 8000336:	da0c      	bge.n	8000352 <__adddf3+0x16e>
 8000338:	320c      	adds	r2, #12
 800033a:	dd08      	ble.n	800034e <__adddf3+0x16a>
 800033c:	f102 0c14 	add.w	ip, r2, #20
 8000340:	f1c2 020c 	rsb	r2, r2, #12
 8000344:	fa01 f00c 	lsl.w	r0, r1, ip
 8000348:	fa21 f102 	lsr.w	r1, r1, r2
 800034c:	e00c      	b.n	8000368 <__adddf3+0x184>
 800034e:	f102 0214 	add.w	r2, r2, #20
 8000352:	bfd8      	it	le
 8000354:	f1c2 0c20 	rsble	ip, r2, #32
 8000358:	fa01 f102 	lsl.w	r1, r1, r2
 800035c:	fa20 fc0c 	lsr.w	ip, r0, ip
 8000360:	bfdc      	itt	le
 8000362:	ea41 010c 	orrle.w	r1, r1, ip
 8000366:	4090      	lslle	r0, r2
 8000368:	1ae4      	subs	r4, r4, r3
 800036a:	bfa2      	ittt	ge
 800036c:	eb01 5104 	addge.w	r1, r1, r4, lsl #20
 8000370:	4329      	orrge	r1, r5
 8000372:	bd30      	popge	{r4, r5, pc}
 8000374:	ea6f 0404 	mvn.w	r4, r4
 8000378:	3c1f      	subs	r4, #31
 800037a:	da1c      	bge.n	80003b6 <__adddf3+0x1d2>
 800037c:	340c      	adds	r4, #12
 800037e:	dc0e      	bgt.n	800039e <__adddf3+0x1ba>
 8000380:	f104 0414 	add.w	r4, r4, #20
 8000384:	f1c4 0220 	rsb	r2, r4, #32
 8000388:	fa20 f004 	lsr.w	r0, r0, r4
 800038c:	fa01 f302 	lsl.w	r3, r1, r2
 8000390:	ea40 0003 	orr.w	r0, r0, r3
 8000394:	fa21 f304 	lsr.w	r3, r1, r4
 8000398:	ea45 0103 	orr.w	r1, r5, r3
 800039c:	bd30      	pop	{r4, r5, pc}
 800039e:	f1c4 040c 	rsb	r4, r4, #12
 80003a2:	f1c4 0220 	rsb	r2, r4, #32
 80003a6:	fa20 f002 	lsr.w	r0, r0, r2
 80003aa:	fa01 f304 	lsl.w	r3, r1, r4
 80003ae:	ea40 0003 	orr.w	r0, r0, r3
 80003b2:	4629      	mov	r1, r5
 80003b4:	bd30      	pop	{r4, r5, pc}
 80003b6:	fa21 f004 	lsr.w	r0, r1, r4
 80003ba:	4629      	mov	r1, r5
 80003bc:	bd30      	pop	{r4, r5, pc}
 80003be:	f094 0f00 	teq	r4, #0
 80003c2:	f483 1380 	eor.w	r3, r3, #1048576	; 0x100000
 80003c6:	bf06      	itte	eq
 80003c8:	f481 1180 	eoreq.w	r1, r1, #1048576	; 0x100000
 80003cc:	3401      	addeq	r4, #1
 80003ce:	3d01      	subne	r5, #1
 80003d0:	e74e      	b.n	8000270 <__adddf3+0x8c>
 80003d2:	ea7f 5c64 	mvns.w	ip, r4, asr #21
 80003d6:	bf18      	it	ne
 80003d8:	ea7f 5c65 	mvnsne.w	ip, r5, asr #21
 80003dc:	d029      	beq.n	8000432 <__adddf3+0x24e>
 80003de:	ea94 0f05 	teq	r4, r5
 80003e2:	bf08      	it	eq
 80003e4:	ea90 0f02 	teqeq	r0, r2
 80003e8:	d005      	beq.n	80003f6 <__adddf3+0x212>
 80003ea:	ea54 0c00 	orrs.w	ip, r4, r0
 80003ee:	bf04      	itt	eq
 80003f0:	4619      	moveq	r1, r3
 80003f2:	4610      	moveq	r0, r2
 80003f4:	bd30      	pop	{r4, r5, pc}
 80003f6:	ea91 0f03 	teq	r1, r3
 80003fa:	bf1e      	ittt	ne
 80003fc:	2100      	movne	r1, #0
 80003fe:	2000      	movne	r0, #0
 8000400:	bd30      	popne	{r4, r5, pc}
 8000402:	ea5f 5c54 	movs.w	ip, r4, lsr #21
 8000406:	d105      	bne.n	8000414 <__adddf3+0x230>
 8000408:	0040      	lsls	r0, r0, #1
 800040a:	4149      	adcs	r1, r1
 800040c:	bf28      	it	cs
 800040e:	f041 4100 	orrcs.w	r1, r1, #2147483648	; 0x80000000
 8000412:	bd30      	pop	{r4, r5, pc}
 8000414:	f514 0480 	adds.w	r4, r4, #4194304	; 0x400000
 8000418:	bf3c      	itt	cc
 800041a:	f501 1180 	addcc.w	r1, r1, #1048576	; 0x100000
 800041e:	bd30      	popcc	{r4, r5, pc}
 8000420:	f001 4500 	and.w	r5, r1, #2147483648	; 0x80000000
 8000424:	f045 41fe 	orr.w	r1, r5, #2130706432	; 0x7f000000
 8000428:	f441 0170 	orr.w	r1, r1, #15728640	; 0xf00000
 800042c:	f04f 0000 	mov.w	r0, #0
 8000430:	bd30      	pop	{r4, r5, pc}
 8000432:	ea7f 5c64 	mvns.w	ip, r4, asr #21
 8000436:	bf1a      	itte	ne
 8000438:	4619      	movne	r1, r3
 800043a:	4610      	movne	r0, r2
 800043c:	ea7f 5c65 	mvnseq.w	ip, r5, asr #21
 8000440:	bf1c      	itt	ne
 8000442:	460b      	movne	r3, r1
 8000444:	4602      	movne	r2, r0
 8000446:	ea50 3401 	orrs.w	r4, r0, r1, lsl #12
 800044a:	bf06      	itte	eq
 800044c:	ea52 3503 	orrseq.w	r5, r2, r3, lsl #12
 8000450:	ea91 0f03 	teqeq	r1, r3
 8000454:	f441 2100 	orrne.w	r1, r1, #524288	; 0x80000
 8000458:	bd30      	pop	{r4, r5, pc}
 800045a:	bf00      	nop

0800045c <__aeabi_ui2d>:
 800045c:	f090 0f00 	teq	r0, #0
 8000460:	bf04      	itt	eq
 8000462:	2100      	moveq	r1, #0
 8000464:	4770      	bxeq	lr
 8000466:	b530      	push	{r4, r5, lr}
 8000468:	f44f 6480 	mov.w	r4, #1024	; 0x400
 800046c:	f104 0432 	add.w	r4, r4, #50	; 0x32
 8000470:	f04f 0500 	mov.w	r5, #0
 8000474:	f04f 0100 	mov.w	r1, #0
 8000478:	e750      	b.n	800031c <__adddf3+0x138>
 800047a:	bf00      	nop

0800047c <__aeabi_i2d>:
 800047c:	f090 0f00 	teq	r0, #0
 8000480:	bf04      	itt	eq
 8000482:	2100      	moveq	r1, #0
 8000484:	4770      	bxeq	lr
 8000486:	b530      	push	{r4, r5, lr}
 8000488:	f44f 6480 	mov.w	r4, #1024	; 0x400
 800048c:	f104 0432 	add.w	r4, r4, #50	; 0x32
 8000490:	f010 4500 	ands.w	r5, r0, #2147483648	; 0x80000000
 8000494:	bf48      	it	mi
 8000496:	4240      	negmi	r0, r0
 8000498:	f04f 0100 	mov.w	r1, #0
 800049c:	e73e      	b.n	800031c <__adddf3+0x138>
 800049e:	bf00      	nop

080004a0 <__aeabi_f2d>:
 80004a0:	0042      	lsls	r2, r0, #1
 80004a2:	ea4f 01e2 	mov.w	r1, r2, asr #3
 80004a6:	ea4f 0131 	mov.w	r1, r1, rrx
 80004aa:	ea4f 7002 	mov.w	r0, r2, lsl #28
 80004ae:	bf1f      	itttt	ne
 80004b0:	f012 437f 	andsne.w	r3, r2, #4278190080	; 0xff000000
 80004b4:	f093 4f7f 	teqne	r3, #4278190080	; 0xff000000
 80004b8:	f081 5160 	eorne.w	r1, r1, #939524096	; 0x38000000
 80004bc:	4770      	bxne	lr
 80004be:	f032 427f 	bics.w	r2, r2, #4278190080	; 0xff000000
 80004c2:	bf08      	it	eq
 80004c4:	4770      	bxeq	lr
 80004c6:	f093 4f7f 	teq	r3, #4278190080	; 0xff000000
 80004ca:	bf04      	itt	eq
 80004cc:	f441 2100 	orreq.w	r1, r1, #524288	; 0x80000
 80004d0:	4770      	bxeq	lr
 80004d2:	b530      	push	{r4, r5, lr}
 80004d4:	f44f 7460 	mov.w	r4, #896	; 0x380
 80004d8:	f001 4500 	and.w	r5, r1, #2147483648	; 0x80000000
 80004dc:	f021 4100 	bic.w	r1, r1, #2147483648	; 0x80000000
 80004e0:	e71c      	b.n	800031c <__adddf3+0x138>
 80004e2:	bf00      	nop

080004e4 <__aeabi_ul2d>:
 80004e4:	ea50 0201 	orrs.w	r2, r0, r1
 80004e8:	bf08      	it	eq
 80004ea:	4770      	bxeq	lr
 80004ec:	b530      	push	{r4, r5, lr}
 80004ee:	f04f 0500 	mov.w	r5, #0
 80004f2:	e00a      	b.n	800050a <__aeabi_l2d+0x16>

080004f4 <__aeabi_l2d>:
 80004f4:	ea50 0201 	orrs.w	r2, r0, r1
 80004f8:	bf08      	it	eq
 80004fa:	4770      	bxeq	lr
 80004fc:	b530      	push	{r4, r5, lr}
 80004fe:	f011 4500 	ands.w	r5, r1, #2147483648	; 0x80000000
 8000502:	d502      	bpl.n	800050a <__aeabi_l2d+0x16>
 8000504:	4240      	negs	r0, r0
 8000506:	eb61 0141 	sbc.w	r1, r1, r1, lsl #1
 800050a:	f44f 6480 	mov.w	r4, #1024	; 0x400
 800050e:	f104 0432 	add.w	r4, r4, #50	; 0x32
 8000512:	ea5f 5c91 	movs.w	ip, r1, lsr #22
 8000516:	f43f aed8 	beq.w	80002ca <__adddf3+0xe6>
 800051a:	f04f 0203 	mov.w	r2, #3
 800051e:	ea5f 0cdc 	movs.w	ip, ip, lsr #3
 8000522:	bf18      	it	ne
 8000524:	3203      	addne	r2, #3
 8000526:	ea5f 0cdc 	movs.w	ip, ip, lsr #3
 800052a:	bf18      	it	ne
 800052c:	3203      	addne	r2, #3
 800052e:	eb02 02dc 	add.w	r2, r2, ip, lsr #3
 8000532:	f1c2 0320 	rsb	r3, r2, #32
 8000536:	fa00 fc03 	lsl.w	ip, r0, r3
 800053a:	fa20 f002 	lsr.w	r0, r0, r2
 800053e:	fa01 fe03 	lsl.w	lr, r1, r3
 8000542:	ea40 000e 	orr.w	r0, r0, lr
 8000546:	fa21 f102 	lsr.w	r1, r1, r2
 800054a:	4414      	add	r4, r2
 800054c:	e6bd      	b.n	80002ca <__adddf3+0xe6>
 800054e:	bf00      	nop

08000550 <__aeabi_dmul>:
 8000550:	b570      	push	{r4, r5, r6, lr}
 8000552:	f04f 0cff 	mov.w	ip, #255	; 0xff
 8000556:	f44c 6ce0 	orr.w	ip, ip, #1792	; 0x700
 800055a:	ea1c 5411 	ands.w	r4, ip, r1, lsr #20
 800055e:	bf1d      	ittte	ne
 8000560:	ea1c 5513 	andsne.w	r5, ip, r3, lsr #20
 8000564:	ea94 0f0c 	teqne	r4, ip
 8000568:	ea95 0f0c 	teqne	r5, ip
 800056c:	f000 f8de 	bleq	800072c <__aeabi_dmul+0x1dc>
 8000570:	442c      	add	r4, r5
 8000572:	ea81 0603 	eor.w	r6, r1, r3
 8000576:	ea21 514c 	bic.w	r1, r1, ip, lsl #21
 800057a:	ea23 534c 	bic.w	r3, r3, ip, lsl #21
 800057e:	ea50 3501 	orrs.w	r5, r0, r1, lsl #12
 8000582:	bf18      	it	ne
 8000584:	ea52 3503 	orrsne.w	r5, r2, r3, lsl #12
 8000588:	f441 1180 	orr.w	r1, r1, #1048576	; 0x100000
 800058c:	f443 1380 	orr.w	r3, r3, #1048576	; 0x100000
 8000590:	d038      	beq.n	8000604 <__aeabi_dmul+0xb4>
 8000592:	fba0 ce02 	umull	ip, lr, r0, r2
 8000596:	f04f 0500 	mov.w	r5, #0
 800059a:	fbe1 e502 	umlal	lr, r5, r1, r2
 800059e:	f006 4200 	and.w	r2, r6, #2147483648	; 0x80000000
 80005a2:	fbe0 e503 	umlal	lr, r5, r0, r3
 80005a6:	f04f 0600 	mov.w	r6, #0
 80005aa:	fbe1 5603 	umlal	r5, r6, r1, r3
 80005ae:	f09c 0f00 	teq	ip, #0
 80005b2:	bf18      	it	ne
 80005b4:	f04e 0e01 	orrne.w	lr, lr, #1
 80005b8:	f1a4 04ff 	sub.w	r4, r4, #255	; 0xff
 80005bc:	f5b6 7f00 	cmp.w	r6, #512	; 0x200
 80005c0:	f564 7440 	sbc.w	r4, r4, #768	; 0x300
 80005c4:	d204      	bcs.n	80005d0 <__aeabi_dmul+0x80>
 80005c6:	ea5f 0e4e 	movs.w	lr, lr, lsl #1
 80005ca:	416d      	adcs	r5, r5
 80005cc:	eb46 0606 	adc.w	r6, r6, r6
 80005d0:	ea42 21c6 	orr.w	r1, r2, r6, lsl #11
 80005d4:	ea41 5155 	orr.w	r1, r1, r5, lsr #21
 80005d8:	ea4f 20c5 	mov.w	r0, r5, lsl #11
 80005dc:	ea40 505e 	orr.w	r0, r0, lr, lsr #21
 80005e0:	ea4f 2ece 	mov.w	lr, lr, lsl #11
 80005e4:	f1b4 0cfd 	subs.w	ip, r4, #253	; 0xfd
 80005e8:	bf88      	it	hi
 80005ea:	f5bc 6fe0 	cmphi.w	ip, #1792	; 0x700
 80005ee:	d81e      	bhi.n	800062e <__aeabi_dmul+0xde>
 80005f0:	f1be 4f00 	cmp.w	lr, #2147483648	; 0x80000000
 80005f4:	bf08      	it	eq
 80005f6:	ea5f 0e50 	movseq.w	lr, r0, lsr #1
 80005fa:	f150 0000 	adcs.w	r0, r0, #0
 80005fe:	eb41 5104 	adc.w	r1, r1, r4, lsl #20
 8000602:	bd70      	pop	{r4, r5, r6, pc}
 8000604:	f006 4600 	and.w	r6, r6, #2147483648	; 0x80000000
 8000608:	ea46 0101 	orr.w	r1, r6, r1
 800060c:	ea40 0002 	orr.w	r0, r0, r2
 8000610:	ea81 0103 	eor.w	r1, r1, r3
 8000614:	ebb4 045c 	subs.w	r4, r4, ip, lsr #1
 8000618:	bfc2      	ittt	gt
 800061a:	ebd4 050c 	rsbsgt	r5, r4, ip
 800061e:	ea41 5104 	orrgt.w	r1, r1, r4, lsl #20
 8000622:	bd70      	popgt	{r4, r5, r6, pc}
 8000624:	f441 1180 	orr.w	r1, r1, #1048576	; 0x100000
 8000628:	f04f 0e00 	mov.w	lr, #0
 800062c:	3c01      	subs	r4, #1
 800062e:	f300 80ab 	bgt.w	8000788 <__aeabi_dmul+0x238>
 8000632:	f114 0f36 	cmn.w	r4, #54	; 0x36
 8000636:	bfde      	ittt	le
 8000638:	2000      	movle	r0, #0
 800063a:	f001 4100 	andle.w	r1, r1, #2147483648	; 0x80000000
 800063e:	bd70      	pople	{r4, r5, r6, pc}
 8000640:	f1c4 0400 	rsb	r4, r4, #0
 8000644:	3c20      	subs	r4, #32
 8000646:	da35      	bge.n	80006b4 <__aeabi_dmul+0x164>
 8000648:	340c      	adds	r4, #12
 800064a:	dc1b      	bgt.n	8000684 <__aeabi_dmul+0x134>
 800064c:	f104 0414 	add.w	r4, r4, #20
 8000650:	f1c4 0520 	rsb	r5, r4, #32
 8000654:	fa00 f305 	lsl.w	r3, r0, r5
 8000658:	fa20 f004 	lsr.w	r0, r0, r4
 800065c:	fa01 f205 	lsl.w	r2, r1, r5
 8000660:	ea40 0002 	orr.w	r0, r0, r2
 8000664:	f001 4200 	and.w	r2, r1, #2147483648	; 0x80000000
 8000668:	f021 4100 	bic.w	r1, r1, #2147483648	; 0x80000000
 800066c:	eb10 70d3 	adds.w	r0, r0, r3, lsr #31
 8000670:	fa21 f604 	lsr.w	r6, r1, r4
 8000674:	eb42 0106 	adc.w	r1, r2, r6
 8000678:	ea5e 0e43 	orrs.w	lr, lr, r3, lsl #1
 800067c:	bf08      	it	eq
 800067e:	ea20 70d3 	biceq.w	r0, r0, r3, lsr #31
 8000682:	bd70      	pop	{r4, r5, r6, pc}
 8000684:	f1c4 040c 	rsb	r4, r4, #12
 8000688:	f1c4 0520 	rsb	r5, r4, #32
 800068c:	fa00 f304 	lsl.w	r3, r0, r4
 8000690:	fa20 f005 	lsr.w	r0, r0, r5
 8000694:	fa01 f204 	lsl.w	r2, r1, r4
 8000698:	ea40 0002 	orr.w	r0, r0, r2
 800069c:	f001 4100 	and.w	r1, r1, #2147483648	; 0x80000000
 80006a0:	eb10 70d3 	adds.w	r0, r0, r3, lsr #31
 80006a4:	f141 0100 	adc.w	r1, r1, #0
 80006a8:	ea5e 0e43 	orrs.w	lr, lr, r3, lsl #1
 80006ac:	bf08      	it	eq
 80006ae:	ea20 70d3 	biceq.w	r0, r0, r3, lsr #31
 80006b2:	bd70      	pop	{r4, r5, r6, pc}
 80006b4:	f1c4 0520 	rsb	r5, r4, #32
 80006b8:	fa00 f205 	lsl.w	r2, r0, r5
 80006bc:	ea4e 0e02 	orr.w	lr, lr, r2
 80006c0:	fa20 f304 	lsr.w	r3, r0, r4
 80006c4:	fa01 f205 	lsl.w	r2, r1, r5
 80006c8:	ea43 0302 	orr.w	r3, r3, r2
 80006cc:	fa21 f004 	lsr.w	r0, r1, r4
 80006d0:	f001 4100 	and.w	r1, r1, #2147483648	; 0x80000000
 80006d4:	fa21 f204 	lsr.w	r2, r1, r4
 80006d8:	ea20 0002 	bic.w	r0, r0, r2
 80006dc:	eb00 70d3 	add.w	r0, r0, r3, lsr #31
 80006e0:	ea5e 0e43 	orrs.w	lr, lr, r3, lsl #1
 80006e4:	bf08      	it	eq
 80006e6:	ea20 70d3 	biceq.w	r0, r0, r3, lsr #31
 80006ea:	bd70      	pop	{r4, r5, r6, pc}
 80006ec:	f094 0f00 	teq	r4, #0
 80006f0:	d10f      	bne.n	8000712 <__aeabi_dmul+0x1c2>
 80006f2:	f001 4600 	and.w	r6, r1, #2147483648	; 0x80000000
 80006f6:	0040      	lsls	r0, r0, #1
 80006f8:	eb41 0101 	adc.w	r1, r1, r1
 80006fc:	f411 1f80 	tst.w	r1, #1048576	; 0x100000
 8000700:	bf08      	it	eq
 8000702:	3c01      	subeq	r4, #1
 8000704:	d0f7      	beq.n	80006f6 <__aeabi_dmul+0x1a6>
 8000706:	ea41 0106 	orr.w	r1, r1, r6
 800070a:	f095 0f00 	teq	r5, #0
 800070e:	bf18      	it	ne
 8000710:	4770      	bxne	lr
 8000712:	f003 4600 	and.w	r6, r3, #2147483648	; 0x80000000
 8000716:	0052      	lsls	r2, r2, #1
 8000718:	eb43 0303 	adc.w	r3, r3, r3
 800071c:	f413 1f80 	tst.w	r3, #1048576	; 0x100000
 8000720:	bf08      	it	eq
 8000722:	3d01      	subeq	r5, #1
 8000724:	d0f7      	beq.n	8000716 <__aeabi_dmul+0x1c6>
 8000726:	ea43 0306 	orr.w	r3, r3, r6
 800072a:	4770      	bx	lr
 800072c:	ea94 0f0c 	teq	r4, ip
 8000730:	ea0c 5513 	and.w	r5, ip, r3, lsr #20
 8000734:	bf18      	it	ne
 8000736:	ea95 0f0c 	teqne	r5, ip
 800073a:	d00c      	beq.n	8000756 <__aeabi_dmul+0x206>
 800073c:	ea50 0641 	orrs.w	r6, r0, r1, lsl #1
 8000740:	bf18      	it	ne
 8000742:	ea52 0643 	orrsne.w	r6, r2, r3, lsl #1
 8000746:	d1d1      	bne.n	80006ec <__aeabi_dmul+0x19c>
 8000748:	ea81 0103 	eor.w	r1, r1, r3
 800074c:	f001 4100 	and.w	r1, r1, #2147483648	; 0x80000000
 8000750:	f04f 0000 	mov.w	r0, #0
 8000754:	bd70      	pop	{r4, r5, r6, pc}
 8000756:	ea50 0641 	orrs.w	r6, r0, r1, lsl #1
 800075a:	bf06      	itte	eq
 800075c:	4610      	moveq	r0, r2
 800075e:	4619      	moveq	r1, r3
 8000760:	ea52 0643 	orrsne.w	r6, r2, r3, lsl #1
 8000764:	d019      	beq.n	800079a <__aeabi_dmul+0x24a>
 8000766:	ea94 0f0c 	teq	r4, ip
 800076a:	d102      	bne.n	8000772 <__aeabi_dmul+0x222>
 800076c:	ea50 3601 	orrs.w	r6, r0, r1, lsl #12
 8000770:	d113      	bne.n	800079a <__aeabi_dmul+0x24a>
 8000772:	ea95 0f0c 	teq	r5, ip
 8000776:	d105      	bne.n	8000784 <__aeabi_dmul+0x234>
 8000778:	ea52 3603 	orrs.w	r6, r2, r3, lsl #12
 800077c:	bf1c      	itt	ne
 800077e:	4610      	movne	r0, r2
 8000780:	4619      	movne	r1, r3
 8000782:	d10a      	bne.n	800079a <__aeabi_dmul+0x24a>
 8000784:	ea81 0103 	eor.w	r1, r1, r3
 8000788:	f001 4100 	and.w	r1, r1, #2147483648	; 0x80000000
 800078c:	f041 41fe 	orr.w	r1, r1, #2130706432	; 0x7f000000
 8000790:	f441 0170 	orr.w	r1, r1, #15728640	; 0xf00000
 8000794:	f04f 0000 	mov.w	r0, #0
 8000798:	bd70      	pop	{r4, r5, r6, pc}
 800079a:	f041 41fe 	orr.w	r1, r1, #2130706432	; 0x7f000000
 800079e:	f441 0178 	orr.w	r1, r1, #16252928	; 0xf80000
 80007a2:	bd70      	pop	{r4, r5, r6, pc}

080007a4 <__aeabi_ddiv>:
 80007a4:	b570      	push	{r4, r5, r6, lr}
 80007a6:	f04f 0cff 	mov.w	ip, #255	; 0xff
 80007aa:	f44c 6ce0 	orr.w	ip, ip, #1792	; 0x700
 80007ae:	ea1c 5411 	ands.w	r4, ip, r1, lsr #20
 80007b2:	bf1d      	ittte	ne
 80007b4:	ea1c 5513 	andsne.w	r5, ip, r3, lsr #20
 80007b8:	ea94 0f0c 	teqne	r4, ip
 80007bc:	ea95 0f0c 	teqne	r5, ip
 80007c0:	f000 f8a7 	bleq	8000912 <__aeabi_ddiv+0x16e>
 80007c4:	eba4 0405 	sub.w	r4, r4, r5
 80007c8:	ea81 0e03 	eor.w	lr, r1, r3
 80007cc:	ea52 3503 	orrs.w	r5, r2, r3, lsl #12
 80007d0:	ea4f 3101 	mov.w	r1, r1, lsl #12
 80007d4:	f000 8088 	beq.w	80008e8 <__aeabi_ddiv+0x144>
 80007d8:	ea4f 3303 	mov.w	r3, r3, lsl #12
 80007dc:	f04f 5580 	mov.w	r5, #268435456	; 0x10000000
 80007e0:	ea45 1313 	orr.w	r3, r5, r3, lsr #4
 80007e4:	ea43 6312 	orr.w	r3, r3, r2, lsr #24
 80007e8:	ea4f 2202 	mov.w	r2, r2, lsl #8
 80007ec:	ea45 1511 	orr.w	r5, r5, r1, lsr #4
 80007f0:	ea45 6510 	orr.w	r5, r5, r0, lsr #24
 80007f4:	ea4f 2600 	mov.w	r6, r0, lsl #8
 80007f8:	f00e 4100 	and.w	r1, lr, #2147483648	; 0x80000000
 80007fc:	429d      	cmp	r5, r3
 80007fe:	bf08      	it	eq
 8000800:	4296      	cmpeq	r6, r2
 8000802:	f144 04fd 	adc.w	r4, r4, #253	; 0xfd
 8000806:	f504 7440 	add.w	r4, r4, #768	; 0x300
 800080a:	d202      	bcs.n	8000812 <__aeabi_ddiv+0x6e>
 800080c:	085b      	lsrs	r3, r3, #1
 800080e:	ea4f 0232 	mov.w	r2, r2, rrx
 8000812:	1ab6      	subs	r6, r6, r2
 8000814:	eb65 0503 	sbc.w	r5, r5, r3
 8000818:	085b      	lsrs	r3, r3, #1
 800081a:	ea4f 0232 	mov.w	r2, r2, rrx
 800081e:	f44f 1080 	mov.w	r0, #1048576	; 0x100000
 8000822:	f44f 2c00 	mov.w	ip, #524288	; 0x80000
 8000826:	ebb6 0e02 	subs.w	lr, r6, r2
 800082a:	eb75 0e03 	sbcs.w	lr, r5, r3
 800082e:	bf22      	ittt	cs
 8000830:	1ab6      	subcs	r6, r6, r2
 8000832:	4675      	movcs	r5, lr
 8000834:	ea40 000c 	orrcs.w	r0, r0, ip
 8000838:	085b      	lsrs	r3, r3, #1
 800083a:	ea4f 0232 	mov.w	r2, r2, rrx
 800083e:	ebb6 0e02 	subs.w	lr, r6, r2
 8000842:	eb75 0e03 	sbcs.w	lr, r5, r3
 8000846:	bf22      	ittt	cs
 8000848:	1ab6      	subcs	r6, r6, r2
 800084a:	4675      	movcs	r5, lr
 800084c:	ea40 005c 	orrcs.w	r0, r0, ip, lsr #1
 8000850:	085b      	lsrs	r3, r3, #1
 8000852:	ea4f 0232 	mov.w	r2, r2, rrx
 8000856:	ebb6 0e02 	subs.w	lr, r6, r2
 800085a:	eb75 0e03 	sbcs.w	lr, r5, r3
 800085e:	bf22      	ittt	cs
 8000860:	1ab6      	subcs	r6, r6, r2
 8000862:	4675      	movcs	r5, lr
 8000864:	ea40 009c 	orrcs.w	r0, r0, ip, lsr #2
 8000868:	085b      	lsrs	r3, r3, #1
 800086a:	ea4f 0232 	mov.w	r2, r2, rrx
 800086e:	ebb6 0e02 	subs.w	lr, r6, r2
 8000872:	eb75 0e03 	sbcs.w	lr, r5, r3
 8000876:	bf22      	ittt	cs
 8000878:	1ab6      	subcs	r6, r6, r2
 800087a:	4675      	movcs	r5, lr
 800087c:	ea40 00dc 	orrcs.w	r0, r0, ip, lsr #3
 8000880:	ea55 0e06 	orrs.w	lr, r5, r6
 8000884:	d018      	beq.n	80008b8 <__aeabi_ddiv+0x114>
 8000886:	ea4f 1505 	mov.w	r5, r5, lsl #4
 800088a:	ea45 7516 	orr.w	r5, r5, r6, lsr #28
 800088e:	ea4f 1606 	mov.w	r6, r6, lsl #4
 8000892:	ea4f 03c3 	mov.w	r3, r3, lsl #3
 8000896:	ea43 7352 	orr.w	r3, r3, r2, lsr #29
 800089a:	ea4f 02c2 	mov.w	r2, r2, lsl #3
 800089e:	ea5f 1c1c 	movs.w	ip, ip, lsr #4
 80008a2:	d1c0      	bne.n	8000826 <__aeabi_ddiv+0x82>
 80008a4:	f411 1f80 	tst.w	r1, #1048576	; 0x100000
 80008a8:	d10b      	bne.n	80008c2 <__aeabi_ddiv+0x11e>
 80008aa:	ea41 0100 	orr.w	r1, r1, r0
 80008ae:	f04f 0000 	mov.w	r0, #0
 80008b2:	f04f 4c00 	mov.w	ip, #2147483648	; 0x80000000
 80008b6:	e7b6      	b.n	8000826 <__aeabi_ddiv+0x82>
 80008b8:	f411 1f80 	tst.w	r1, #1048576	; 0x100000
 80008bc:	bf04      	itt	eq
 80008be:	4301      	orreq	r1, r0
 80008c0:	2000      	moveq	r0, #0
 80008c2:	f1b4 0cfd 	subs.w	ip, r4, #253	; 0xfd
 80008c6:	bf88      	it	hi
 80008c8:	f5bc 6fe0 	cmphi.w	ip, #1792	; 0x700
 80008cc:	f63f aeaf 	bhi.w	800062e <__aeabi_dmul+0xde>
 80008d0:	ebb5 0c03 	subs.w	ip, r5, r3
 80008d4:	bf04      	itt	eq
 80008d6:	ebb6 0c02 	subseq.w	ip, r6, r2
 80008da:	ea5f 0c50 	movseq.w	ip, r0, lsr #1
 80008de:	f150 0000 	adcs.w	r0, r0, #0
 80008e2:	eb41 5104 	adc.w	r1, r1, r4, lsl #20
 80008e6:	bd70      	pop	{r4, r5, r6, pc}
 80008e8:	f00e 4e00 	and.w	lr, lr, #2147483648	; 0x80000000
 80008ec:	ea4e 3111 	orr.w	r1, lr, r1, lsr #12
 80008f0:	eb14 045c 	adds.w	r4, r4, ip, lsr #1
 80008f4:	bfc2      	ittt	gt
 80008f6:	ebd4 050c 	rsbsgt	r5, r4, ip
 80008fa:	ea41 5104 	orrgt.w	r1, r1, r4, lsl #20
 80008fe:	bd70      	popgt	{r4, r5, r6, pc}
 8000900:	f441 1180 	orr.w	r1, r1, #1048576	; 0x100000
 8000904:	f04f 0e00 	mov.w	lr, #0
 8000908:	3c01      	subs	r4, #1
 800090a:	e690      	b.n	800062e <__aeabi_dmul+0xde>
 800090c:	ea45 0e06 	orr.w	lr, r5, r6
 8000910:	e68d      	b.n	800062e <__aeabi_dmul+0xde>
 8000912:	ea0c 5513 	and.w	r5, ip, r3, lsr #20
 8000916:	ea94 0f0c 	teq	r4, ip
 800091a:	bf08      	it	eq
 800091c:	ea95 0f0c 	teqeq	r5, ip
 8000920:	f43f af3b 	beq.w	800079a <__aeabi_dmul+0x24a>
 8000924:	ea94 0f0c 	teq	r4, ip
 8000928:	d10a      	bne.n	8000940 <__aeabi_ddiv+0x19c>
 800092a:	ea50 3401 	orrs.w	r4, r0, r1, lsl #12
 800092e:	f47f af34 	bne.w	800079a <__aeabi_dmul+0x24a>
 8000932:	ea95 0f0c 	teq	r5, ip
 8000936:	f47f af25 	bne.w	8000784 <__aeabi_dmul+0x234>
 800093a:	4610      	mov	r0, r2
 800093c:	4619      	mov	r1, r3
 800093e:	e72c      	b.n	800079a <__aeabi_dmul+0x24a>
 8000940:	ea95 0f0c 	teq	r5, ip
 8000944:	d106      	bne.n	8000954 <__aeabi_ddiv+0x1b0>
 8000946:	ea52 3503 	orrs.w	r5, r2, r3, lsl #12
 800094a:	f43f aefd 	beq.w	8000748 <__aeabi_dmul+0x1f8>
 800094e:	4610      	mov	r0, r2
 8000950:	4619      	mov	r1, r3
 8000952:	e722      	b.n	800079a <__aeabi_dmul+0x24a>
 8000954:	ea50 0641 	orrs.w	r6, r0, r1, lsl #1
 8000958:	bf18      	it	ne
 800095a:	ea52 0643 	orrsne.w	r6, r2, r3, lsl #1
 800095e:	f47f aec5 	bne.w	80006ec <__aeabi_dmul+0x19c>
 8000962:	ea50 0441 	orrs.w	r4, r0, r1, lsl #1
 8000966:	f47f af0d 	bne.w	8000784 <__aeabi_dmul+0x234>
 800096a:	ea52 0543 	orrs.w	r5, r2, r3, lsl #1
 800096e:	f47f aeeb 	bne.w	8000748 <__aeabi_dmul+0x1f8>
 8000972:	e712      	b.n	800079a <__aeabi_dmul+0x24a>

08000974 <__aeabi_d2f>:
 8000974:	ea4f 0241 	mov.w	r2, r1, lsl #1
 8000978:	f1b2 43e0 	subs.w	r3, r2, #1879048192	; 0x70000000
 800097c:	bf24      	itt	cs
 800097e:	f5b3 1c00 	subscs.w	ip, r3, #2097152	; 0x200000
 8000982:	f1dc 5cfe 	rsbscs	ip, ip, #532676608	; 0x1fc00000
 8000986:	d90d      	bls.n	80009a4 <__aeabi_d2f+0x30>
 8000988:	f001 4c00 	and.w	ip, r1, #2147483648	; 0x80000000
 800098c:	ea4f 02c0 	mov.w	r2, r0, lsl #3
 8000990:	ea4c 7050 	orr.w	r0, ip, r0, lsr #29
 8000994:	f1b2 4f00 	cmp.w	r2, #2147483648	; 0x80000000
 8000998:	eb40 0083 	adc.w	r0, r0, r3, lsl #2
 800099c:	bf08      	it	eq
 800099e:	f020 0001 	biceq.w	r0, r0, #1
 80009a2:	4770      	bx	lr
 80009a4:	f011 4f80 	tst.w	r1, #1073741824	; 0x40000000
 80009a8:	d121      	bne.n	80009ee <__aeabi_d2f+0x7a>
 80009aa:	f113 7238 	adds.w	r2, r3, #48234496	; 0x2e00000
 80009ae:	bfbc      	itt	lt
 80009b0:	f001 4000 	andlt.w	r0, r1, #2147483648	; 0x80000000
 80009b4:	4770      	bxlt	lr
 80009b6:	f441 1180 	orr.w	r1, r1, #1048576	; 0x100000
 80009ba:	ea4f 5252 	mov.w	r2, r2, lsr #21
 80009be:	f1c2 0218 	rsb	r2, r2, #24
 80009c2:	f1c2 0c20 	rsb	ip, r2, #32
 80009c6:	fa10 f30c 	lsls.w	r3, r0, ip
 80009ca:	fa20 f002 	lsr.w	r0, r0, r2
 80009ce:	bf18      	it	ne
 80009d0:	f040 0001 	orrne.w	r0, r0, #1
 80009d4:	ea4f 23c1 	mov.w	r3, r1, lsl #11
 80009d8:	ea4f 23d3 	mov.w	r3, r3, lsr #11
 80009dc:	fa03 fc0c 	lsl.w	ip, r3, ip
 80009e0:	ea40 000c 	orr.w	r0, r0, ip
 80009e4:	fa23 f302 	lsr.w	r3, r3, r2
 80009e8:	ea4f 0343 	mov.w	r3, r3, lsl #1
 80009ec:	e7cc      	b.n	8000988 <__aeabi_d2f+0x14>
 80009ee:	ea7f 5362 	mvns.w	r3, r2, asr #21
 80009f2:	d107      	bne.n	8000a04 <__aeabi_d2f+0x90>
 80009f4:	ea50 3301 	orrs.w	r3, r0, r1, lsl #12
 80009f8:	bf1e      	ittt	ne
 80009fa:	f04f 40fe 	movne.w	r0, #2130706432	; 0x7f000000
 80009fe:	f440 0040 	orrne.w	r0, r0, #12582912	; 0xc00000
 8000a02:	4770      	bxne	lr
 8000a04:	f001 4000 	and.w	r0, r1, #2147483648	; 0x80000000
 8000a08:	f040 40fe 	orr.w	r0, r0, #2130706432	; 0x7f000000
 8000a0c:	f440 0000 	orr.w	r0, r0, #8388608	; 0x800000
 8000a10:	4770      	bx	lr
 8000a12:	bf00      	nop

08000a14 <__aeabi_uldivmod>:
 8000a14:	b953      	cbnz	r3, 8000a2c <__aeabi_uldivmod+0x18>
 8000a16:	b94a      	cbnz	r2, 8000a2c <__aeabi_uldivmod+0x18>
 8000a18:	2900      	cmp	r1, #0
 8000a1a:	bf08      	it	eq
 8000a1c:	2800      	cmpeq	r0, #0
 8000a1e:	bf1c      	itt	ne
 8000a20:	f04f 31ff 	movne.w	r1, #4294967295
 8000a24:	f04f 30ff 	movne.w	r0, #4294967295
 8000a28:	f000 b974 	b.w	8000d14 <__aeabi_idiv0>
 8000a2c:	f1ad 0c08 	sub.w	ip, sp, #8
 8000a30:	e96d ce04 	strd	ip, lr, [sp, #-16]!
 8000a34:	f000 f806 	bl	8000a44 <__udivmoddi4>
 8000a38:	f8dd e004 	ldr.w	lr, [sp, #4]
 8000a3c:	e9dd 2302 	ldrd	r2, r3, [sp, #8]
 8000a40:	b004      	add	sp, #16
 8000a42:	4770      	bx	lr

08000a44 <__udivmoddi4>:
 8000a44:	e92d 47f0 	stmdb	sp!, {r4, r5, r6, r7, r8, r9, sl, lr}
 8000a48:	9d08      	ldr	r5, [sp, #32]
 8000a4a:	4604      	mov	r4, r0
 8000a4c:	468e      	mov	lr, r1
 8000a4e:	2b00      	cmp	r3, #0
 8000a50:	d14d      	bne.n	8000aee <__udivmoddi4+0xaa>
 8000a52:	428a      	cmp	r2, r1
 8000a54:	4694      	mov	ip, r2
 8000a56:	d969      	bls.n	8000b2c <__udivmoddi4+0xe8>
 8000a58:	fab2 f282 	clz	r2, r2
 8000a5c:	b152      	cbz	r2, 8000a74 <__udivmoddi4+0x30>
 8000a5e:	fa01 f302 	lsl.w	r3, r1, r2
 8000a62:	f1c2 0120 	rsb	r1, r2, #32
 8000a66:	fa20 f101 	lsr.w	r1, r0, r1
 8000a6a:	fa0c fc02 	lsl.w	ip, ip, r2
 8000a6e:	ea41 0e03 	orr.w	lr, r1, r3
 8000a72:	4094      	lsls	r4, r2
 8000a74:	ea4f 481c 	mov.w	r8, ip, lsr #16
 8000a78:	0c21      	lsrs	r1, r4, #16
 8000a7a:	fbbe f6f8 	udiv	r6, lr, r8
 8000a7e:	fa1f f78c 	uxth.w	r7, ip
 8000a82:	fb08 e316 	mls	r3, r8, r6, lr
 8000a86:	ea41 4303 	orr.w	r3, r1, r3, lsl #16
 8000a8a:	fb06 f107 	mul.w	r1, r6, r7
 8000a8e:	4299      	cmp	r1, r3
 8000a90:	d90a      	bls.n	8000aa8 <__udivmoddi4+0x64>
 8000a92:	eb1c 0303 	adds.w	r3, ip, r3
 8000a96:	f106 30ff 	add.w	r0, r6, #4294967295
 8000a9a:	f080 811f 	bcs.w	8000cdc <__udivmoddi4+0x298>
 8000a9e:	4299      	cmp	r1, r3
 8000aa0:	f240 811c 	bls.w	8000cdc <__udivmoddi4+0x298>
 8000aa4:	3e02      	subs	r6, #2
 8000aa6:	4463      	add	r3, ip
 8000aa8:	1a5b      	subs	r3, r3, r1
 8000aaa:	b2a4      	uxth	r4, r4
 8000aac:	fbb3 f0f8 	udiv	r0, r3, r8
 8000ab0:	fb08 3310 	mls	r3, r8, r0, r3
 8000ab4:	ea44 4403 	orr.w	r4, r4, r3, lsl #16
 8000ab8:	fb00 f707 	mul.w	r7, r0, r7
 8000abc:	42a7      	cmp	r7, r4
 8000abe:	d90a      	bls.n	8000ad6 <__udivmoddi4+0x92>
 8000ac0:	eb1c 0404 	adds.w	r4, ip, r4
 8000ac4:	f100 33ff 	add.w	r3, r0, #4294967295
 8000ac8:	f080 810a 	bcs.w	8000ce0 <__udivmoddi4+0x29c>
 8000acc:	42a7      	cmp	r7, r4
 8000ace:	f240 8107 	bls.w	8000ce0 <__udivmoddi4+0x29c>
 8000ad2:	4464      	add	r4, ip
 8000ad4:	3802      	subs	r0, #2
 8000ad6:	ea40 4006 	orr.w	r0, r0, r6, lsl #16
 8000ada:	1be4      	subs	r4, r4, r7
 8000adc:	2600      	movs	r6, #0
 8000ade:	b11d      	cbz	r5, 8000ae8 <__udivmoddi4+0xa4>
 8000ae0:	40d4      	lsrs	r4, r2
 8000ae2:	2300      	movs	r3, #0
 8000ae4:	e9c5 4300 	strd	r4, r3, [r5]
 8000ae8:	4631      	mov	r1, r6
 8000aea:	e8bd 87f0 	ldmia.w	sp!, {r4, r5, r6, r7, r8, r9, sl, pc}
 8000aee:	428b      	cmp	r3, r1
 8000af0:	d909      	bls.n	8000b06 <__udivmoddi4+0xc2>
 8000af2:	2d00      	cmp	r5, #0
 8000af4:	f000 80ef 	beq.w	8000cd6 <__udivmoddi4+0x292>
 8000af8:	2600      	movs	r6, #0
 8000afa:	e9c5 0100 	strd	r0, r1, [r5]
 8000afe:	4630      	mov	r0, r6
 8000b00:	4631      	mov	r1, r6
 8000b02:	e8bd 87f0 	ldmia.w	sp!, {r4, r5, r6, r7, r8, r9, sl, pc}
 8000b06:	fab3 f683 	clz	r6, r3
 8000b0a:	2e00      	cmp	r6, #0
 8000b0c:	d14a      	bne.n	8000ba4 <__udivmoddi4+0x160>
 8000b0e:	428b      	cmp	r3, r1
 8000b10:	d302      	bcc.n	8000b18 <__udivmoddi4+0xd4>
 8000b12:	4282      	cmp	r2, r0
 8000b14:	f200 80f9 	bhi.w	8000d0a <__udivmoddi4+0x2c6>
 8000b18:	1a84      	subs	r4, r0, r2
 8000b1a:	eb61 0303 	sbc.w	r3, r1, r3
 8000b1e:	2001      	movs	r0, #1
 8000b20:	469e      	mov	lr, r3
 8000b22:	2d00      	cmp	r5, #0
 8000b24:	d0e0      	beq.n	8000ae8 <__udivmoddi4+0xa4>
 8000b26:	e9c5 4e00 	strd	r4, lr, [r5]
 8000b2a:	e7dd      	b.n	8000ae8 <__udivmoddi4+0xa4>
 8000b2c:	b902      	cbnz	r2, 8000b30 <__udivmoddi4+0xec>
 8000b2e:	deff      	udf	#255	; 0xff
 8000b30:	fab2 f282 	clz	r2, r2
 8000b34:	2a00      	cmp	r2, #0
 8000b36:	f040 8092 	bne.w	8000c5e <__udivmoddi4+0x21a>
 8000b3a:	eba1 010c 	sub.w	r1, r1, ip
 8000b3e:	ea4f 471c 	mov.w	r7, ip, lsr #16
 8000b42:	fa1f fe8c 	uxth.w	lr, ip
 8000b46:	2601      	movs	r6, #1
 8000b48:	0c20      	lsrs	r0, r4, #16
 8000b4a:	fbb1 f3f7 	udiv	r3, r1, r7
 8000b4e:	fb07 1113 	mls	r1, r7, r3, r1
 8000b52:	ea40 4101 	orr.w	r1, r0, r1, lsl #16
 8000b56:	fb0e f003 	mul.w	r0, lr, r3
 8000b5a:	4288      	cmp	r0, r1
 8000b5c:	d908      	bls.n	8000b70 <__udivmoddi4+0x12c>
 8000b5e:	eb1c 0101 	adds.w	r1, ip, r1
 8000b62:	f103 38ff 	add.w	r8, r3, #4294967295
 8000b66:	d202      	bcs.n	8000b6e <__udivmoddi4+0x12a>
 8000b68:	4288      	cmp	r0, r1
 8000b6a:	f200 80cb 	bhi.w	8000d04 <__udivmoddi4+0x2c0>
 8000b6e:	4643      	mov	r3, r8
 8000b70:	1a09      	subs	r1, r1, r0
 8000b72:	b2a4      	uxth	r4, r4
 8000b74:	fbb1 f0f7 	udiv	r0, r1, r7
 8000b78:	fb07 1110 	mls	r1, r7, r0, r1
 8000b7c:	ea44 4401 	orr.w	r4, r4, r1, lsl #16
 8000b80:	fb0e fe00 	mul.w	lr, lr, r0
 8000b84:	45a6      	cmp	lr, r4
 8000b86:	d908      	bls.n	8000b9a <__udivmoddi4+0x156>
 8000b88:	eb1c 0404 	adds.w	r4, ip, r4
 8000b8c:	f100 31ff 	add.w	r1, r0, #4294967295
 8000b90:	d202      	bcs.n	8000b98 <__udivmoddi4+0x154>
 8000b92:	45a6      	cmp	lr, r4
 8000b94:	f200 80bb 	bhi.w	8000d0e <__udivmoddi4+0x2ca>
 8000b98:	4608      	mov	r0, r1
 8000b9a:	eba4 040e 	sub.w	r4, r4, lr
 8000b9e:	ea40 4003 	orr.w	r0, r0, r3, lsl #16
 8000ba2:	e79c      	b.n	8000ade <__udivmoddi4+0x9a>
 8000ba4:	f1c6 0720 	rsb	r7, r6, #32
 8000ba8:	40b3      	lsls	r3, r6
 8000baa:	fa22 fc07 	lsr.w	ip, r2, r7
 8000bae:	ea4c 0c03 	orr.w	ip, ip, r3
 8000bb2:	fa20 f407 	lsr.w	r4, r0, r7
 8000bb6:	fa01 f306 	lsl.w	r3, r1, r6
 8000bba:	431c      	orrs	r4, r3
 8000bbc:	40f9      	lsrs	r1, r7
 8000bbe:	ea4f 491c 	mov.w	r9, ip, lsr #16
 8000bc2:	fa00 f306 	lsl.w	r3, r0, r6
 8000bc6:	fbb1 f8f9 	udiv	r8, r1, r9
 8000bca:	0c20      	lsrs	r0, r4, #16
 8000bcc:	fa1f fe8c 	uxth.w	lr, ip
 8000bd0:	fb09 1118 	mls	r1, r9, r8, r1
 8000bd4:	ea40 4101 	orr.w	r1, r0, r1, lsl #16
 8000bd8:	fb08 f00e 	mul.w	r0, r8, lr
 8000bdc:	4288      	cmp	r0, r1
 8000bde:	fa02 f206 	lsl.w	r2, r2, r6
 8000be2:	d90b      	bls.n	8000bfc <__udivmoddi4+0x1b8>
 8000be4:	eb1c 0101 	adds.w	r1, ip, r1
 8000be8:	f108 3aff 	add.w	sl, r8, #4294967295
 8000bec:	f080 8088 	bcs.w	8000d00 <__udivmoddi4+0x2bc>
 8000bf0:	4288      	cmp	r0, r1
 8000bf2:	f240 8085 	bls.w	8000d00 <__udivmoddi4+0x2bc>
 8000bf6:	f1a8 0802 	sub.w	r8, r8, #2
 8000bfa:	4461      	add	r1, ip
 8000bfc:	1a09      	subs	r1, r1, r0
 8000bfe:	b2a4      	uxth	r4, r4
 8000c00:	fbb1 f0f9 	udiv	r0, r1, r9
 8000c04:	fb09 1110 	mls	r1, r9, r0, r1
 8000c08:	ea44 4101 	orr.w	r1, r4, r1, lsl #16
 8000c0c:	fb00 fe0e 	mul.w	lr, r0, lr
 8000c10:	458e      	cmp	lr, r1
 8000c12:	d908      	bls.n	8000c26 <__udivmoddi4+0x1e2>
 8000c14:	eb1c 0101 	adds.w	r1, ip, r1
 8000c18:	f100 34ff 	add.w	r4, r0, #4294967295
 8000c1c:	d26c      	bcs.n	8000cf8 <__udivmoddi4+0x2b4>
 8000c1e:	458e      	cmp	lr, r1
 8000c20:	d96a      	bls.n	8000cf8 <__udivmoddi4+0x2b4>
 8000c22:	3802      	subs	r0, #2
 8000c24:	4461      	add	r1, ip
 8000c26:	ea40 4008 	orr.w	r0, r0, r8, lsl #16
 8000c2a:	fba0 9402 	umull	r9, r4, r0, r2
 8000c2e:	eba1 010e 	sub.w	r1, r1, lr
 8000c32:	42a1      	cmp	r1, r4
 8000c34:	46c8      	mov	r8, r9
 8000c36:	46a6      	mov	lr, r4
 8000c38:	d356      	bcc.n	8000ce8 <__udivmoddi4+0x2a4>
 8000c3a:	d053      	beq.n	8000ce4 <__udivmoddi4+0x2a0>
 8000c3c:	b15d      	cbz	r5, 8000c56 <__udivmoddi4+0x212>
 8000c3e:	ebb3 0208 	subs.w	r2, r3, r8
 8000c42:	eb61 010e 	sbc.w	r1, r1, lr
 8000c46:	fa01 f707 	lsl.w	r7, r1, r7
 8000c4a:	fa22 f306 	lsr.w	r3, r2, r6
 8000c4e:	40f1      	lsrs	r1, r6
 8000c50:	431f      	orrs	r7, r3
 8000c52:	e9c5 7100 	strd	r7, r1, [r5]
 8000c56:	2600      	movs	r6, #0
 8000c58:	4631      	mov	r1, r6
 8000c5a:	e8bd 87f0 	ldmia.w	sp!, {r4, r5, r6, r7, r8, r9, sl, pc}
 8000c5e:	f1c2 0320 	rsb	r3, r2, #32
 8000c62:	40d8      	lsrs	r0, r3
 8000c64:	fa0c fc02 	lsl.w	ip, ip, r2
 8000c68:	fa21 f303 	lsr.w	r3, r1, r3
 8000c6c:	4091      	lsls	r1, r2
 8000c6e:	4301      	orrs	r1, r0
 8000c70:	ea4f 471c 	mov.w	r7, ip, lsr #16
 8000c74:	fa1f fe8c 	uxth.w	lr, ip
 8000c78:	fbb3 f0f7 	udiv	r0, r3, r7
 8000c7c:	fb07 3610 	mls	r6, r7, r0, r3
 8000c80:	0c0b      	lsrs	r3, r1, #16
 8000c82:	ea43 4306 	orr.w	r3, r3, r6, lsl #16
 8000c86:	fb00 f60e 	mul.w	r6, r0, lr
 8000c8a:	429e      	cmp	r6, r3
 8000c8c:	fa04 f402 	lsl.w	r4, r4, r2
 8000c90:	d908      	bls.n	8000ca4 <__udivmoddi4+0x260>
 8000c92:	eb1c 0303 	adds.w	r3, ip, r3
 8000c96:	f100 38ff 	add.w	r8, r0, #4294967295
 8000c9a:	d22f      	bcs.n	8000cfc <__udivmoddi4+0x2b8>
 8000c9c:	429e      	cmp	r6, r3
 8000c9e:	d92d      	bls.n	8000cfc <__udivmoddi4+0x2b8>
 8000ca0:	3802      	subs	r0, #2
 8000ca2:	4463      	add	r3, ip
 8000ca4:	1b9b      	subs	r3, r3, r6
 8000ca6:	b289      	uxth	r1, r1
 8000ca8:	fbb3 f6f7 	udiv	r6, r3, r7
 8000cac:	fb07 3316 	mls	r3, r7, r6, r3
 8000cb0:	ea41 4103 	orr.w	r1, r1, r3, lsl #16
 8000cb4:	fb06 f30e 	mul.w	r3, r6, lr
 8000cb8:	428b      	cmp	r3, r1
 8000cba:	d908      	bls.n	8000cce <__udivmoddi4+0x28a>
 8000cbc:	eb1c 0101 	adds.w	r1, ip, r1
 8000cc0:	f106 38ff 	add.w	r8, r6, #4294967295
 8000cc4:	d216      	bcs.n	8000cf4 <__udivmoddi4+0x2b0>
 8000cc6:	428b      	cmp	r3, r1
 8000cc8:	d914      	bls.n	8000cf4 <__udivmoddi4+0x2b0>
 8000cca:	3e02      	subs	r6, #2
 8000ccc:	4461      	add	r1, ip
 8000cce:	1ac9      	subs	r1, r1, r3
 8000cd0:	ea46 4600 	orr.w	r6, r6, r0, lsl #16
 8000cd4:	e738      	b.n	8000b48 <__udivmoddi4+0x104>
 8000cd6:	462e      	mov	r6, r5
 8000cd8:	4628      	mov	r0, r5
 8000cda:	e705      	b.n	8000ae8 <__udivmoddi4+0xa4>
 8000cdc:	4606      	mov	r6, r0
 8000cde:	e6e3      	b.n	8000aa8 <__udivmoddi4+0x64>
 8000ce0:	4618      	mov	r0, r3
 8000ce2:	e6f8      	b.n	8000ad6 <__udivmoddi4+0x92>
 8000ce4:	454b      	cmp	r3, r9
 8000ce6:	d2a9      	bcs.n	8000c3c <__udivmoddi4+0x1f8>
 8000ce8:	ebb9 0802 	subs.w	r8, r9, r2
 8000cec:	eb64 0e0c 	sbc.w	lr, r4, ip
 8000cf0:	3801      	subs	r0, #1
 8000cf2:	e7a3      	b.n	8000c3c <__udivmoddi4+0x1f8>
 8000cf4:	4646      	mov	r6, r8
 8000cf6:	e7ea      	b.n	8000cce <__udivmoddi4+0x28a>
 8000cf8:	4620      	mov	r0, r4
 8000cfa:	e794      	b.n	8000c26 <__udivmoddi4+0x1e2>
 8000cfc:	4640      	mov	r0, r8
 8000cfe:	e7d1      	b.n	8000ca4 <__udivmoddi4+0x260>
 8000d00:	46d0      	mov	r8, sl
 8000d02:	e77b      	b.n	8000bfc <__udivmoddi4+0x1b8>
 8000d04:	3b02      	subs	r3, #2
 8000d06:	4461      	add	r1, ip
 8000d08:	e732      	b.n	8000b70 <__udivmoddi4+0x12c>
 8000d0a:	4630      	mov	r0, r6
 8000d0c:	e709      	b.n	8000b22 <__udivmoddi4+0xde>
 8000d0e:	4464      	add	r4, ip
 8000d10:	3802      	subs	r0, #2
 8000d12:	e742      	b.n	8000b9a <__udivmoddi4+0x156>

08000d14 <__aeabi_idiv0>:
 8000d14:	4770      	bx	lr
 8000d16:	bf00      	nop

08000d18 <_ZN23Adafruit_BusIO_RegisterC1EP18Adafruit_I2CDevice26_Adafruit_BusIO_SPIRegTypethhh>:
 * Adafruit_BusIO_Register::Adafruit_BusIO_Register(
    Adafruit_I2CDevice *i2cdevice, Adafruit_SPIDevice *spidevice,
    Adafruit_BusIO_SPIRegType type, uint16_t reg_addr, uint8_t width,
    uint8_t byteorder, uint8_t address_width) {
 */
Adafruit_BusIO_Register::Adafruit_BusIO_Register(
 8000d18:	b480      	push	{r7}
 8000d1a:	b085      	sub	sp, #20
 8000d1c:	af00      	add	r7, sp, #0
 8000d1e:	60f8      	str	r0, [r7, #12]
 8000d20:	60b9      	str	r1, [r7, #8]
 8000d22:	4611      	mov	r1, r2
 8000d24:	461a      	mov	r2, r3
 8000d26:	460b      	mov	r3, r1
 8000d28:	71fb      	strb	r3, [r7, #7]
 8000d2a:	4613      	mov	r3, r2
 8000d2c:	80bb      	strh	r3, [r7, #4]
    Adafruit_I2CDevice *i2cdevice, Adafruit_BusIO_SPIRegType type,
	uint16_t reg_addr, uint8_t width,
    uint8_t byteorder, uint8_t address_width) {
 8000d2e:	68fb      	ldr	r3, [r7, #12]
 8000d30:	2200      	movs	r2, #0
 8000d32:	611a      	str	r2, [r3, #16]
  //_spidevice = spidevice;
  _i2cdevice = i2cdevice;
 8000d34:	68fb      	ldr	r3, [r7, #12]
 8000d36:	68ba      	ldr	r2, [r7, #8]
 8000d38:	601a      	str	r2, [r3, #0]
  //_spiregtype = type;
  _addrwidth = address_width;
 8000d3a:	68fb      	ldr	r3, [r7, #12]
 8000d3c:	f897 2020 	ldrb.w	r2, [r7, #32]
 8000d40:	71da      	strb	r2, [r3, #7]
  _address = reg_addr;
 8000d42:	68fb      	ldr	r3, [r7, #12]
 8000d44:	88ba      	ldrh	r2, [r7, #4]
 8000d46:	809a      	strh	r2, [r3, #4]
  _byteorder = byteorder;
 8000d48:	68fb      	ldr	r3, [r7, #12]
 8000d4a:	7f3a      	ldrb	r2, [r7, #28]
 8000d4c:	721a      	strb	r2, [r3, #8]
  _width = width;
 8000d4e:	68fb      	ldr	r3, [r7, #12]
 8000d50:	7e3a      	ldrb	r2, [r7, #24]
 8000d52:	719a      	strb	r2, [r3, #6]
}
 8000d54:	68fb      	ldr	r3, [r7, #12]
 8000d56:	4618      	mov	r0, r3
 8000d58:	3714      	adds	r7, #20
 8000d5a:	46bd      	mov	sp, r7
 8000d5c:	f85d 7b04 	ldr.w	r7, [sp], #4
 8000d60:	4770      	bx	lr

08000d62 <_ZN23Adafruit_BusIO_Register5writeEPhh>:
 *    @param  buffer Pointer to data to write
 *    @param  len Number of bytes to write
 *    @return True on successful write (only really useful for I2C as SPI is
 * uncheckable)
 */
bool Adafruit_BusIO_Register::write(uint8_t *buffer, uint8_t len) {
 8000d62:	b580      	push	{r7, lr}
 8000d64:	b088      	sub	sp, #32
 8000d66:	af02      	add	r7, sp, #8
 8000d68:	60f8      	str	r0, [r7, #12]
 8000d6a:	60b9      	str	r1, [r7, #8]
 8000d6c:	4613      	mov	r3, r2
 8000d6e:	71fb      	strb	r3, [r7, #7]

  uint8_t addrbuffer[2] = {(uint8_t)(_address & 0xFF),
 8000d70:	68fb      	ldr	r3, [r7, #12]
 8000d72:	889b      	ldrh	r3, [r3, #4]
                           (uint8_t)(_address >> 8)};
 8000d74:	b2db      	uxtb	r3, r3
 8000d76:	753b      	strb	r3, [r7, #20]
 8000d78:	68fb      	ldr	r3, [r7, #12]
 8000d7a:	889b      	ldrh	r3, [r3, #4]
 8000d7c:	0a1b      	lsrs	r3, r3, #8
 8000d7e:	b29b      	uxth	r3, r3
 8000d80:	b2db      	uxtb	r3, r3
 8000d82:	757b      	strb	r3, [r7, #21]

  if (_i2cdevice) {
 8000d84:	68fb      	ldr	r3, [r7, #12]
 8000d86:	681b      	ldr	r3, [r3, #0]
 8000d88:	2b00      	cmp	r3, #0
 8000d8a:	d00e      	beq.n	8000daa <_ZN23Adafruit_BusIO_Register5writeEPhh+0x48>
    return _i2cdevice->write(buffer, len, true, addrbuffer, _addrwidth);
 8000d8c:	68fb      	ldr	r3, [r7, #12]
 8000d8e:	6818      	ldr	r0, [r3, #0]
 8000d90:	79fa      	ldrb	r2, [r7, #7]
 8000d92:	68fb      	ldr	r3, [r7, #12]
 8000d94:	79db      	ldrb	r3, [r3, #7]
 8000d96:	9301      	str	r3, [sp, #4]
 8000d98:	f107 0314 	add.w	r3, r7, #20
 8000d9c:	9300      	str	r3, [sp, #0]
 8000d9e:	2301      	movs	r3, #1
 8000da0:	68b9      	ldr	r1, [r7, #8]
 8000da2:	f000 f997 	bl	80010d4 <_ZN18Adafruit_I2CDevice5writeEPKhjbS1_j>
 8000da6:	4603      	mov	r3, r0
 8000da8:	e000      	b.n	8000dac <_ZN23Adafruit_BusIO_Register5writeEPhh+0x4a>
      addrbuffer[0] &= ~0x80;
      addrbuffer[0] |= 0x40;
    }
    return _spidevice->write(buffer, len, addrbuffer, _addrwidth);
  }*/
  return false;
 8000daa:	2300      	movs	r3, #0
}
 8000dac:	4618      	mov	r0, r3
 8000dae:	3718      	adds	r7, #24
 8000db0:	46bd      	mov	sp, r7
 8000db2:	bd80      	pop	{r7, pc}

08000db4 <_ZN23Adafruit_BusIO_Register5writeEmh>:
 *    @param  value Data to write
 *    @param  numbytes How many bytes from 'value' to write
 *    @return True on successful write (only really useful for I2C as SPI is
 * uncheckable)
 */
bool Adafruit_BusIO_Register::write(uint32_t value, uint8_t numbytes) {
 8000db4:	b580      	push	{r7, lr}
 8000db6:	b086      	sub	sp, #24
 8000db8:	af00      	add	r7, sp, #0
 8000dba:	60f8      	str	r0, [r7, #12]
 8000dbc:	60b9      	str	r1, [r7, #8]
 8000dbe:	4613      	mov	r3, r2
 8000dc0:	71fb      	strb	r3, [r7, #7]
  if (numbytes == 0) {
 8000dc2:	79fb      	ldrb	r3, [r7, #7]
 8000dc4:	2b00      	cmp	r3, #0
 8000dc6:	d102      	bne.n	8000dce <_ZN23Adafruit_BusIO_Register5writeEmh+0x1a>
    numbytes = _width;
 8000dc8:	68fb      	ldr	r3, [r7, #12]
 8000dca:	799b      	ldrb	r3, [r3, #6]
 8000dcc:	71fb      	strb	r3, [r7, #7]
  }
  if (numbytes > 4) {
 8000dce:	79fb      	ldrb	r3, [r7, #7]
 8000dd0:	2b04      	cmp	r3, #4
 8000dd2:	d901      	bls.n	8000dd8 <_ZN23Adafruit_BusIO_Register5writeEmh+0x24>
    return false;
 8000dd4:	2300      	movs	r3, #0
 8000dd6:	e02f      	b.n	8000e38 <_ZN23Adafruit_BusIO_Register5writeEmh+0x84>
  }

  // store a copy
  _cached = value;
 8000dd8:	68fb      	ldr	r3, [r7, #12]
 8000dda:	68ba      	ldr	r2, [r7, #8]
 8000ddc:	611a      	str	r2, [r3, #16]

  for (int i = 0; i < numbytes; i++) {
 8000dde:	2300      	movs	r3, #0
 8000de0:	617b      	str	r3, [r7, #20]
 8000de2:	79fb      	ldrb	r3, [r7, #7]
 8000de4:	697a      	ldr	r2, [r7, #20]
 8000de6:	429a      	cmp	r2, r3
 8000de8:	da1d      	bge.n	8000e26 <_ZN23Adafruit_BusIO_Register5writeEmh+0x72>
    if (_byteorder == LSBFIRST) {
 8000dea:	68fb      	ldr	r3, [r7, #12]
 8000dec:	7a1b      	ldrb	r3, [r3, #8]
 8000dee:	2b00      	cmp	r3, #0
 8000df0:	d108      	bne.n	8000e04 <_ZN23Adafruit_BusIO_Register5writeEmh+0x50>
      _buffer[i] = value & 0xFF;
 8000df2:	68bb      	ldr	r3, [r7, #8]
 8000df4:	b2d9      	uxtb	r1, r3
 8000df6:	68fa      	ldr	r2, [r7, #12]
 8000df8:	697b      	ldr	r3, [r7, #20]
 8000dfa:	4413      	add	r3, r2
 8000dfc:	3309      	adds	r3, #9
 8000dfe:	460a      	mov	r2, r1
 8000e00:	701a      	strb	r2, [r3, #0]
 8000e02:	e009      	b.n	8000e18 <_ZN23Adafruit_BusIO_Register5writeEmh+0x64>
    } else {
      _buffer[numbytes - i - 1] = value & 0xFF;
 8000e04:	79fa      	ldrb	r2, [r7, #7]
 8000e06:	697b      	ldr	r3, [r7, #20]
 8000e08:	1ad3      	subs	r3, r2, r3
 8000e0a:	3b01      	subs	r3, #1
 8000e0c:	68ba      	ldr	r2, [r7, #8]
 8000e0e:	b2d1      	uxtb	r1, r2
 8000e10:	68fa      	ldr	r2, [r7, #12]
 8000e12:	4413      	add	r3, r2
 8000e14:	460a      	mov	r2, r1
 8000e16:	725a      	strb	r2, [r3, #9]
    }
    value >>= 8;
 8000e18:	68bb      	ldr	r3, [r7, #8]
 8000e1a:	0a1b      	lsrs	r3, r3, #8
 8000e1c:	60bb      	str	r3, [r7, #8]
  for (int i = 0; i < numbytes; i++) {
 8000e1e:	697b      	ldr	r3, [r7, #20]
 8000e20:	3301      	adds	r3, #1
 8000e22:	617b      	str	r3, [r7, #20]
 8000e24:	e7dd      	b.n	8000de2 <_ZN23Adafruit_BusIO_Register5writeEmh+0x2e>
  }
  return write(_buffer, numbytes);
 8000e26:	68fb      	ldr	r3, [r7, #12]
 8000e28:	3309      	adds	r3, #9
 8000e2a:	79fa      	ldrb	r2, [r7, #7]
 8000e2c:	4619      	mov	r1, r3
 8000e2e:	68f8      	ldr	r0, [r7, #12]
 8000e30:	f7ff ff97 	bl	8000d62 <_ZN23Adafruit_BusIO_Register5writeEPhh>
 8000e34:	4603      	mov	r3, r0
 8000e36:	bf00      	nop
}
 8000e38:	4618      	mov	r0, r3
 8000e3a:	3718      	adds	r7, #24
 8000e3c:	46bd      	mov	sp, r7
 8000e3e:	bd80      	pop	{r7, pc}

08000e40 <_ZN23Adafruit_BusIO_Register4readEv>:
/*!
 *    @brief  Read data from the register location. This does not do any error
 * checking!
 *    @return Returns 0xFFFFFFFF on failure, value otherwise
 */
uint32_t Adafruit_BusIO_Register::read(void) {
 8000e40:	b580      	push	{r7, lr}
 8000e42:	b084      	sub	sp, #16
 8000e44:	af00      	add	r7, sp, #0
 8000e46:	6078      	str	r0, [r7, #4]
  if (!read(_buffer, _width)) {
 8000e48:	687b      	ldr	r3, [r7, #4]
 8000e4a:	f103 0109 	add.w	r1, r3, #9
 8000e4e:	687b      	ldr	r3, [r7, #4]
 8000e50:	799b      	ldrb	r3, [r3, #6]
 8000e52:	461a      	mov	r2, r3
 8000e54:	6878      	ldr	r0, [r7, #4]
 8000e56:	f000 f83a 	bl	8000ece <_ZN23Adafruit_BusIO_Register4readEPhh>
 8000e5a:	4603      	mov	r3, r0
 8000e5c:	f083 0301 	eor.w	r3, r3, #1
 8000e60:	b2db      	uxtb	r3, r3
 8000e62:	2b00      	cmp	r3, #0
 8000e64:	d002      	beq.n	8000e6c <_ZN23Adafruit_BusIO_Register4readEv+0x2c>
    return -1;
 8000e66:	f04f 33ff 	mov.w	r3, #4294967295
 8000e6a:	e02c      	b.n	8000ec6 <_ZN23Adafruit_BusIO_Register4readEv+0x86>
  }

  uint32_t value = 0;
 8000e6c:	2300      	movs	r3, #0
 8000e6e:	60fb      	str	r3, [r7, #12]

  for (int i = 0; i < _width; i++) {
 8000e70:	2300      	movs	r3, #0
 8000e72:	60bb      	str	r3, [r7, #8]
 8000e74:	687b      	ldr	r3, [r7, #4]
 8000e76:	799b      	ldrb	r3, [r3, #6]
 8000e78:	461a      	mov	r2, r3
 8000e7a:	68bb      	ldr	r3, [r7, #8]
 8000e7c:	4293      	cmp	r3, r2
 8000e7e:	da21      	bge.n	8000ec4 <_ZN23Adafruit_BusIO_Register4readEv+0x84>
    value <<= 8;
 8000e80:	68fb      	ldr	r3, [r7, #12]
 8000e82:	021b      	lsls	r3, r3, #8
 8000e84:	60fb      	str	r3, [r7, #12]
    if (_byteorder == LSBFIRST) {
 8000e86:	687b      	ldr	r3, [r7, #4]
 8000e88:	7a1b      	ldrb	r3, [r3, #8]
 8000e8a:	2b00      	cmp	r3, #0
 8000e8c:	d10d      	bne.n	8000eaa <_ZN23Adafruit_BusIO_Register4readEv+0x6a>
      value |= _buffer[_width - i - 1];
 8000e8e:	687b      	ldr	r3, [r7, #4]
 8000e90:	799b      	ldrb	r3, [r3, #6]
 8000e92:	461a      	mov	r2, r3
 8000e94:	68bb      	ldr	r3, [r7, #8]
 8000e96:	1ad3      	subs	r3, r2, r3
 8000e98:	3b01      	subs	r3, #1
 8000e9a:	687a      	ldr	r2, [r7, #4]
 8000e9c:	4413      	add	r3, r2
 8000e9e:	7a5b      	ldrb	r3, [r3, #9]
 8000ea0:	461a      	mov	r2, r3
 8000ea2:	68fb      	ldr	r3, [r7, #12]
 8000ea4:	4313      	orrs	r3, r2
 8000ea6:	60fb      	str	r3, [r7, #12]
 8000ea8:	e008      	b.n	8000ebc <_ZN23Adafruit_BusIO_Register4readEv+0x7c>
    } else {
      value |= _buffer[i];
 8000eaa:	687a      	ldr	r2, [r7, #4]
 8000eac:	68bb      	ldr	r3, [r7, #8]
 8000eae:	4413      	add	r3, r2
 8000eb0:	3309      	adds	r3, #9
 8000eb2:	781b      	ldrb	r3, [r3, #0]
 8000eb4:	461a      	mov	r2, r3
 8000eb6:	68fb      	ldr	r3, [r7, #12]
 8000eb8:	4313      	orrs	r3, r2
 8000eba:	60fb      	str	r3, [r7, #12]
  for (int i = 0; i < _width; i++) {
 8000ebc:	68bb      	ldr	r3, [r7, #8]
 8000ebe:	3301      	adds	r3, #1
 8000ec0:	60bb      	str	r3, [r7, #8]
 8000ec2:	e7d7      	b.n	8000e74 <_ZN23Adafruit_BusIO_Register4readEv+0x34>
    }
  }

  return value;
 8000ec4:	68fb      	ldr	r3, [r7, #12]
}
 8000ec6:	4618      	mov	r0, r3
 8000ec8:	3710      	adds	r7, #16
 8000eca:	46bd      	mov	sp, r7
 8000ecc:	bd80      	pop	{r7, pc}

08000ece <_ZN23Adafruit_BusIO_Register4readEPhh>:
 *    @param  buffer Pointer to data to read into
 *    @param  len Number of bytes to read
 *    @return True on successful write (only really useful for I2C as SPI is
 * uncheckable)
 */
bool Adafruit_BusIO_Register::read(uint8_t *buffer, uint8_t len) {
 8000ece:	b590      	push	{r4, r7, lr}
 8000ed0:	b089      	sub	sp, #36	; 0x24
 8000ed2:	af02      	add	r7, sp, #8
 8000ed4:	60f8      	str	r0, [r7, #12]
 8000ed6:	60b9      	str	r1, [r7, #8]
 8000ed8:	4613      	mov	r3, r2
 8000eda:	71fb      	strb	r3, [r7, #7]
  uint8_t addrbuffer[2] = {(uint8_t)(_address & 0xFF),
 8000edc:	68fb      	ldr	r3, [r7, #12]
 8000ede:	889b      	ldrh	r3, [r3, #4]
                           (uint8_t)(_address >> 8)};
 8000ee0:	b2db      	uxtb	r3, r3
 8000ee2:	753b      	strb	r3, [r7, #20]
 8000ee4:	68fb      	ldr	r3, [r7, #12]
 8000ee6:	889b      	ldrh	r3, [r3, #4]
 8000ee8:	0a1b      	lsrs	r3, r3, #8
 8000eea:	b29b      	uxth	r3, r3
 8000eec:	b2db      	uxtb	r3, r3
 8000eee:	757b      	strb	r3, [r7, #21]

  if (_i2cdevice) {
 8000ef0:	68fb      	ldr	r3, [r7, #12]
 8000ef2:	681b      	ldr	r3, [r3, #0]
 8000ef4:	2b00      	cmp	r3, #0
 8000ef6:	d010      	beq.n	8000f1a <_ZN23Adafruit_BusIO_Register4readEPhh+0x4c>
    return _i2cdevice->write_then_read(addrbuffer, _addrwidth, buffer, len);
 8000ef8:	68fb      	ldr	r3, [r7, #12]
 8000efa:	6818      	ldr	r0, [r3, #0]
 8000efc:	68fb      	ldr	r3, [r7, #12]
 8000efe:	79db      	ldrb	r3, [r3, #7]
 8000f00:	461c      	mov	r4, r3
 8000f02:	79fb      	ldrb	r3, [r7, #7]
 8000f04:	f107 0114 	add.w	r1, r7, #20
 8000f08:	2200      	movs	r2, #0
 8000f0a:	9201      	str	r2, [sp, #4]
 8000f0c:	9300      	str	r3, [sp, #0]
 8000f0e:	68bb      	ldr	r3, [r7, #8]
 8000f10:	4622      	mov	r2, r4
 8000f12:	f000 f94e 	bl	80011b2 <_ZN18Adafruit_I2CDevice15write_then_readEPKhjPhjb>
 8000f16:	4603      	mov	r3, r0
 8000f18:	e000      	b.n	8000f1c <_ZN23Adafruit_BusIO_Register4readEPhh+0x4e>
    if (_spiregtype == AD8_HIGH_TOREAD_AD7_HIGH_TOINC) {
      addrbuffer[0] |= 0x80 | 0x40;
    }
    return _spidevice->write_then_read(addrbuffer, _addrwidth, buffer, len);
  }*/
  return false;
 8000f1a:	2300      	movs	r3, #0
}
 8000f1c:	4618      	mov	r0, r3
 8000f1e:	371c      	adds	r7, #28
 8000f20:	46bd      	mov	sp, r7
 8000f22:	bd90      	pop	{r4, r7, pc}

08000f24 <_ZN27Adafruit_BusIO_RegisterBitsC1EP23Adafruit_BusIO_Registerhh>:
 * touching other bits
 *    @param  reg The Adafruit_BusIO_Register which defines the bus/register
 *    @param  bits The number of bits wide we are slicing
 *    @param  shift The number of bits that our bit-slice is shifted from LSB
 */
Adafruit_BusIO_RegisterBits::Adafruit_BusIO_RegisterBits(
 8000f24:	b480      	push	{r7}
 8000f26:	b085      	sub	sp, #20
 8000f28:	af00      	add	r7, sp, #0
 8000f2a:	60f8      	str	r0, [r7, #12]
 8000f2c:	60b9      	str	r1, [r7, #8]
 8000f2e:	4611      	mov	r1, r2
 8000f30:	461a      	mov	r2, r3
 8000f32:	460b      	mov	r3, r1
 8000f34:	71fb      	strb	r3, [r7, #7]
 8000f36:	4613      	mov	r3, r2
 8000f38:	71bb      	strb	r3, [r7, #6]
    Adafruit_BusIO_Register *reg, uint8_t bits, uint8_t shift) {
  _register = reg;
 8000f3a:	68fb      	ldr	r3, [r7, #12]
 8000f3c:	68ba      	ldr	r2, [r7, #8]
 8000f3e:	601a      	str	r2, [r3, #0]
  _bits = bits;
 8000f40:	68fb      	ldr	r3, [r7, #12]
 8000f42:	79fa      	ldrb	r2, [r7, #7]
 8000f44:	711a      	strb	r2, [r3, #4]
  _shift = shift;
 8000f46:	68fb      	ldr	r3, [r7, #12]
 8000f48:	79ba      	ldrb	r2, [r7, #6]
 8000f4a:	715a      	strb	r2, [r3, #5]
}
 8000f4c:	68fb      	ldr	r3, [r7, #12]
 8000f4e:	4618      	mov	r0, r3
 8000f50:	3714      	adds	r7, #20
 8000f52:	46bd      	mov	sp, r7
 8000f54:	f85d 7b04 	ldr.w	r7, [sp], #4
 8000f58:	4770      	bx	lr

08000f5a <_ZN27Adafruit_BusIO_RegisterBits4readEv>:

/*!
 *    @brief  Read 4 bytes of data from the register
 *    @return  data The 4 bytes to read
 */
uint32_t Adafruit_BusIO_RegisterBits::read(void) {
 8000f5a:	b580      	push	{r7, lr}
 8000f5c:	b084      	sub	sp, #16
 8000f5e:	af00      	add	r7, sp, #0
 8000f60:	6078      	str	r0, [r7, #4]
  uint32_t val = _register->read();
 8000f62:	687b      	ldr	r3, [r7, #4]
 8000f64:	681b      	ldr	r3, [r3, #0]
 8000f66:	4618      	mov	r0, r3
 8000f68:	f7ff ff6a 	bl	8000e40 <_ZN23Adafruit_BusIO_Register4readEv>
 8000f6c:	60f8      	str	r0, [r7, #12]
  val >>= _shift;
 8000f6e:	687b      	ldr	r3, [r7, #4]
 8000f70:	795b      	ldrb	r3, [r3, #5]
 8000f72:	461a      	mov	r2, r3
 8000f74:	68fb      	ldr	r3, [r7, #12]
 8000f76:	40d3      	lsrs	r3, r2
 8000f78:	60fb      	str	r3, [r7, #12]
  return val & ((1 << (_bits)) - 1);
 8000f7a:	687b      	ldr	r3, [r7, #4]
 8000f7c:	791b      	ldrb	r3, [r3, #4]
 8000f7e:	461a      	mov	r2, r3
 8000f80:	2301      	movs	r3, #1
 8000f82:	4093      	lsls	r3, r2
 8000f84:	3b01      	subs	r3, #1
 8000f86:	461a      	mov	r2, r3
 8000f88:	68fb      	ldr	r3, [r7, #12]
 8000f8a:	4013      	ands	r3, r2
}
 8000f8c:	4618      	mov	r0, r3
 8000f8e:	3710      	adds	r7, #16
 8000f90:	46bd      	mov	sp, r7
 8000f92:	bd80      	pop	{r7, pc}

08000f94 <_ZN27Adafruit_BusIO_RegisterBits5writeEm>:
 *    @brief  Write 4 bytes of data to the register
 *    @param  data The 4 bytes to write
 *    @return True on successful write (only really useful for I2C as SPI is
 * uncheckable)
 */
bool Adafruit_BusIO_RegisterBits::write(uint32_t data) {
 8000f94:	b590      	push	{r4, r7, lr}
 8000f96:	b085      	sub	sp, #20
 8000f98:	af00      	add	r7, sp, #0
 8000f9a:	6078      	str	r0, [r7, #4]
 8000f9c:	6039      	str	r1, [r7, #0]
  uint32_t val = _register->read();
 8000f9e:	687b      	ldr	r3, [r7, #4]
 8000fa0:	681b      	ldr	r3, [r3, #0]
 8000fa2:	4618      	mov	r0, r3
 8000fa4:	f7ff ff4c 	bl	8000e40 <_ZN23Adafruit_BusIO_Register4readEv>
 8000fa8:	60f8      	str	r0, [r7, #12]

  // mask off the data before writing
  uint32_t mask = (1 << (_bits)) - 1;
 8000faa:	687b      	ldr	r3, [r7, #4]
 8000fac:	791b      	ldrb	r3, [r3, #4]
 8000fae:	461a      	mov	r2, r3
 8000fb0:	2301      	movs	r3, #1
 8000fb2:	4093      	lsls	r3, r2
 8000fb4:	3b01      	subs	r3, #1
 8000fb6:	60bb      	str	r3, [r7, #8]
  data &= mask;
 8000fb8:	683a      	ldr	r2, [r7, #0]
 8000fba:	68bb      	ldr	r3, [r7, #8]
 8000fbc:	4013      	ands	r3, r2
 8000fbe:	603b      	str	r3, [r7, #0]

  mask <<= _shift;
 8000fc0:	687b      	ldr	r3, [r7, #4]
 8000fc2:	795b      	ldrb	r3, [r3, #5]
 8000fc4:	461a      	mov	r2, r3
 8000fc6:	68bb      	ldr	r3, [r7, #8]
 8000fc8:	4093      	lsls	r3, r2
 8000fca:	60bb      	str	r3, [r7, #8]
  val &= ~mask;          // remove the current data at that spot
 8000fcc:	68bb      	ldr	r3, [r7, #8]
 8000fce:	43db      	mvns	r3, r3
 8000fd0:	68fa      	ldr	r2, [r7, #12]
 8000fd2:	4013      	ands	r3, r2
 8000fd4:	60fb      	str	r3, [r7, #12]
  val |= data << _shift; // and add in the new data
 8000fd6:	687b      	ldr	r3, [r7, #4]
 8000fd8:	795b      	ldrb	r3, [r3, #5]
 8000fda:	461a      	mov	r2, r3
 8000fdc:	683b      	ldr	r3, [r7, #0]
 8000fde:	4093      	lsls	r3, r2
 8000fe0:	68fa      	ldr	r2, [r7, #12]
 8000fe2:	4313      	orrs	r3, r2
 8000fe4:	60fb      	str	r3, [r7, #12]

  return _register->write(val, _register->width());
 8000fe6:	687b      	ldr	r3, [r7, #4]
 8000fe8:	681c      	ldr	r4, [r3, #0]
 8000fea:	687b      	ldr	r3, [r7, #4]
 8000fec:	681b      	ldr	r3, [r3, #0]
 8000fee:	4618      	mov	r0, r3
 8000ff0:	f000 f80b 	bl	800100a <_ZN23Adafruit_BusIO_Register5widthEv>
 8000ff4:	4603      	mov	r3, r0
 8000ff6:	461a      	mov	r2, r3
 8000ff8:	68f9      	ldr	r1, [r7, #12]
 8000ffa:	4620      	mov	r0, r4
 8000ffc:	f7ff feda 	bl	8000db4 <_ZN23Adafruit_BusIO_Register5writeEmh>
 8001000:	4603      	mov	r3, r0
}
 8001002:	4618      	mov	r0, r3
 8001004:	3714      	adds	r7, #20
 8001006:	46bd      	mov	sp, r7
 8001008:	bd90      	pop	{r4, r7, pc}

0800100a <_ZN23Adafruit_BusIO_Register5widthEv>:

/*!
 *    @brief  The width of the register data, helpful for doing calculations
 *    @returns The data width used when initializing the register
 */
uint8_t Adafruit_BusIO_Register::width(void) { return _width; }
 800100a:	b480      	push	{r7}
 800100c:	b083      	sub	sp, #12
 800100e:	af00      	add	r7, sp, #0
 8001010:	6078      	str	r0, [r7, #4]
 8001012:	687b      	ldr	r3, [r7, #4]
 8001014:	799b      	ldrb	r3, [r3, #6]
 8001016:	4618      	mov	r0, r3
 8001018:	370c      	adds	r7, #12
 800101a:	46bd      	mov	sp, r7
 800101c:	f85d 7b04 	ldr.w	r7, [sp], #4
 8001020:	4770      	bx	lr

08001022 <_ZN18Adafruit_I2CDevice13maxBufferSizeEv>:
                       bool stop = false);
  bool setSpeed(uint32_t desiredclk);

  /*!   @brief  How many bytes we can read in a transaction
   *    @return The size of the Wire receive/transmit buffer */
  size_t maxBufferSize() { return _maxBufferSize; }
 8001022:	b480      	push	{r7}
 8001024:	b083      	sub	sp, #12
 8001026:	af00      	add	r7, sp, #0
 8001028:	6078      	str	r0, [r7, #4]
 800102a:	687b      	ldr	r3, [r7, #4]
 800102c:	685b      	ldr	r3, [r3, #4]
 800102e:	4618      	mov	r0, r3
 8001030:	370c      	adds	r7, #12
 8001032:	46bd      	mov	sp, r7
 8001034:	f85d 7b04 	ldr.w	r7, [sp], #4
 8001038:	4770      	bx	lr

0800103a <_ZN18Adafruit_I2CDeviceC1Eh>:
  _maxBufferSize = I2C_BUFFER_LENGTH;
#else
  _maxBufferSize = 32;
#endif
}*/
Adafruit_I2CDevice::Adafruit_I2CDevice(uint8_t addr) {
 800103a:	b480      	push	{r7}
 800103c:	b083      	sub	sp, #12
 800103e:	af00      	add	r7, sp, #0
 8001040:	6078      	str	r0, [r7, #4]
 8001042:	460b      	mov	r3, r1
 8001044:	70fb      	strb	r3, [r7, #3]
  _addr = addr;
 8001046:	687b      	ldr	r3, [r7, #4]
 8001048:	78fa      	ldrb	r2, [r7, #3]
 800104a:	701a      	strb	r2, [r3, #0]
  //_wire = theWire;
  _begun = false;
 800104c:	687b      	ldr	r3, [r7, #4]
 800104e:	2200      	movs	r2, #0
 8001050:	705a      	strb	r2, [r3, #1]
#ifdef ARDUINO_ARCH_SAMD
  _maxBufferSize = 250; // as defined in Wire.h's RingBuffer
#elif defined(ESP32)
  _maxBufferSize = I2C_BUFFER_LENGTH;
#else
  _maxBufferSize = 32;
 8001052:	687b      	ldr	r3, [r7, #4]
 8001054:	2220      	movs	r2, #32
 8001056:	605a      	str	r2, [r3, #4]
#endif
}
 8001058:	687b      	ldr	r3, [r7, #4]
 800105a:	4618      	mov	r0, r3
 800105c:	370c      	adds	r7, #12
 800105e:	46bd      	mov	sp, r7
 8001060:	f85d 7b04 	ldr.w	r7, [sp], #4
 8001064:	4770      	bx	lr

08001066 <_ZN18Adafruit_I2CDevice5beginEb>:
    return detected();
  }
  return true;
}*/

bool Adafruit_I2CDevice::begin(bool addr_detect) {
 8001066:	b580      	push	{r7, lr}
 8001068:	b082      	sub	sp, #8
 800106a:	af00      	add	r7, sp, #0
 800106c:	6078      	str	r0, [r7, #4]
 800106e:	460b      	mov	r3, r1
 8001070:	70fb      	strb	r3, [r7, #3]
  //_wire->begin();
  _begun = true;
 8001072:	687b      	ldr	r3, [r7, #4]
 8001074:	2201      	movs	r2, #1
 8001076:	705a      	strb	r2, [r3, #1]

  if (addr_detect) {
 8001078:	78fb      	ldrb	r3, [r7, #3]
 800107a:	2b00      	cmp	r3, #0
 800107c:	d004      	beq.n	8001088 <_ZN18Adafruit_I2CDevice5beginEb+0x22>
    return detected();
 800107e:	6878      	ldr	r0, [r7, #4]
 8001080:	f000 f807 	bl	8001092 <_ZN18Adafruit_I2CDevice8detectedEv>
 8001084:	4603      	mov	r3, r0
 8001086:	e000      	b.n	800108a <_ZN18Adafruit_I2CDevice5beginEb+0x24>
  }
  return true;
 8001088:	2301      	movs	r3, #1
}
 800108a:	4618      	mov	r0, r3
 800108c:	3708      	adds	r7, #8
 800108e:	46bd      	mov	sp, r7
 8001090:	bd80      	pop	{r7, pc}

08001092 <_ZN18Adafruit_I2CDevice8detectedEv>:
/*!
 *    @brief  Scans I2C for the address - note will give a false-positive
 *    if there's no pullups on I2C
 *    @return True if I2C initialized and a device with the addr found
 */
bool Adafruit_I2CDevice::detected(void) {
 8001092:	b580      	push	{r7, lr}
 8001094:	b082      	sub	sp, #8
 8001096:	af00      	add	r7, sp, #0
 8001098:	6078      	str	r0, [r7, #4]
  // Init I2C if not done yet
  if (!_begun && !begin()) {
 800109a:	687b      	ldr	r3, [r7, #4]
 800109c:	785b      	ldrb	r3, [r3, #1]
 800109e:	f083 0301 	eor.w	r3, r3, #1
 80010a2:	b2db      	uxtb	r3, r3
 80010a4:	2b00      	cmp	r3, #0
 80010a6:	d00b      	beq.n	80010c0 <_ZN18Adafruit_I2CDevice8detectedEv+0x2e>
 80010a8:	2101      	movs	r1, #1
 80010aa:	6878      	ldr	r0, [r7, #4]
 80010ac:	f7ff ffdb 	bl	8001066 <_ZN18Adafruit_I2CDevice5beginEb>
 80010b0:	4603      	mov	r3, r0
 80010b2:	f083 0301 	eor.w	r3, r3, #1
 80010b6:	b2db      	uxtb	r3, r3
 80010b8:	2b00      	cmp	r3, #0
 80010ba:	d001      	beq.n	80010c0 <_ZN18Adafruit_I2CDevice8detectedEv+0x2e>
 80010bc:	2301      	movs	r3, #1
 80010be:	e000      	b.n	80010c2 <_ZN18Adafruit_I2CDevice8detectedEv+0x30>
 80010c0:	2300      	movs	r3, #0
 80010c2:	2b00      	cmp	r3, #0
 80010c4:	d001      	beq.n	80010ca <_ZN18Adafruit_I2CDevice8detectedEv+0x38>
    return false;
 80010c6:	2300      	movs	r3, #0
 80010c8:	e000      	b.n	80010cc <_ZN18Adafruit_I2CDevice8detectedEv+0x3a>
    return true;
  }*/
#ifdef DEBUG_SERIAL
  DEBUG_SERIAL.println(F(" Not detected"));
#endif
  return false;
 80010ca:	2300      	movs	r3, #0
}
 80010cc:	4618      	mov	r0, r3
 80010ce:	3708      	adds	r7, #8
 80010d0:	46bd      	mov	sp, r7
 80010d2:	bd80      	pop	{r7, pc}

080010d4 <_ZN18Adafruit_I2CDevice5writeEPKhjbS1_j>:
 *    @param  stop Whether to send an I2C STOP signal on write
 *    @return True if write was successful, otherwise false.
 */
bool Adafruit_I2CDevice::write(const uint8_t *buffer, size_t len, bool stop,
                               const uint8_t *prefix_buffer,
                               size_t prefix_len) {
 80010d4:	b590      	push	{r4, r7, lr}
 80010d6:	b085      	sub	sp, #20
 80010d8:	af00      	add	r7, sp, #0
 80010da:	60f8      	str	r0, [r7, #12]
 80010dc:	60b9      	str	r1, [r7, #8]
 80010de:	607a      	str	r2, [r7, #4]
 80010e0:	70fb      	strb	r3, [r7, #3]
  if ((len + prefix_len) > maxBufferSize()) {
 80010e2:	687a      	ldr	r2, [r7, #4]
 80010e4:	6a7b      	ldr	r3, [r7, #36]	; 0x24
 80010e6:	18d4      	adds	r4, r2, r3
 80010e8:	68f8      	ldr	r0, [r7, #12]
 80010ea:	f7ff ff9a 	bl	8001022 <_ZN18Adafruit_I2CDevice13maxBufferSizeEv>
 80010ee:	4603      	mov	r3, r0
 80010f0:	429c      	cmp	r4, r3
 80010f2:	bf8c      	ite	hi
 80010f4:	2301      	movhi	r3, #1
 80010f6:	2300      	movls	r3, #0
 80010f8:	b2db      	uxtb	r3, r3
 80010fa:	2b00      	cmp	r3, #0
 80010fc:	d001      	beq.n	8001102 <_ZN18Adafruit_I2CDevice5writeEPKhjbS1_j+0x2e>
    // we will need to find out if some platforms have larger
    // I2C buffer sizes :/
#ifdef DEBUG_SERIAL
    DEBUG_SERIAL.println(F("\tI2CDevice could not write such a large buffer"));
#endif
    return false;
 80010fe:	2300      	movs	r3, #0
 8001100:	e7ff      	b.n	8001102 <_ZN18Adafruit_I2CDevice5writeEPKhjbS1_j+0x2e>
#ifdef DEBUG_SERIAL
    DEBUG_SERIAL.println("\tFailed to send!");
#endif
    return false;
  }*/
}
 8001102:	4618      	mov	r0, r3
 8001104:	3714      	adds	r7, #20
 8001106:	46bd      	mov	sp, r7
 8001108:	bd90      	pop	{r4, r7, pc}

0800110a <_ZN18Adafruit_I2CDevice4readEPhjb>:
 *    @param  buffer Pointer to buffer of data to read into
 *    @param  len Number of bytes from buffer to read.
 *    @param  stop Whether to send an I2C STOP signal on read
 *    @return True if read was successful, otherwise false.
 */
bool Adafruit_I2CDevice::read(uint8_t *buffer, size_t len, bool stop) {
 800110a:	b590      	push	{r4, r7, lr}
 800110c:	b089      	sub	sp, #36	; 0x24
 800110e:	af00      	add	r7, sp, #0
 8001110:	60f8      	str	r0, [r7, #12]
 8001112:	60b9      	str	r1, [r7, #8]
 8001114:	607a      	str	r2, [r7, #4]
 8001116:	70fb      	strb	r3, [r7, #3]
  size_t pos = 0;
 8001118:	2300      	movs	r3, #0
 800111a:	61fb      	str	r3, [r7, #28]
  while (pos < len) {
 800111c:	69fa      	ldr	r2, [r7, #28]
 800111e:	687b      	ldr	r3, [r7, #4]
 8001120:	429a      	cmp	r2, r3
 8001122:	d233      	bcs.n	800118c <_ZN18Adafruit_I2CDevice4readEPhjb+0x82>
    size_t read_len =
        ((len - pos) > maxBufferSize()) ? maxBufferSize() : (len - pos);
 8001124:	687a      	ldr	r2, [r7, #4]
 8001126:	69fb      	ldr	r3, [r7, #28]
 8001128:	1ad4      	subs	r4, r2, r3
 800112a:	68f8      	ldr	r0, [r7, #12]
 800112c:	f7ff ff79 	bl	8001022 <_ZN18Adafruit_I2CDevice13maxBufferSizeEv>
 8001130:	4603      	mov	r3, r0
 8001132:	429c      	cmp	r4, r3
 8001134:	d904      	bls.n	8001140 <_ZN18Adafruit_I2CDevice4readEPhjb+0x36>
 8001136:	68f8      	ldr	r0, [r7, #12]
 8001138:	f7ff ff73 	bl	8001022 <_ZN18Adafruit_I2CDevice13maxBufferSizeEv>
 800113c:	4603      	mov	r3, r0
 800113e:	e002      	b.n	8001146 <_ZN18Adafruit_I2CDevice4readEPhjb+0x3c>
 8001140:	687a      	ldr	r2, [r7, #4]
 8001142:	69fb      	ldr	r3, [r7, #28]
 8001144:	1ad3      	subs	r3, r2, r3
 8001146:	61bb      	str	r3, [r7, #24]
    bool read_stop = (pos < (len - read_len)) ? false : stop;
 8001148:	687a      	ldr	r2, [r7, #4]
 800114a:	69bb      	ldr	r3, [r7, #24]
 800114c:	1ad3      	subs	r3, r2, r3
 800114e:	69fa      	ldr	r2, [r7, #28]
 8001150:	429a      	cmp	r2, r3
 8001152:	d304      	bcc.n	800115e <_ZN18Adafruit_I2CDevice4readEPhjb+0x54>
 8001154:	78fb      	ldrb	r3, [r7, #3]
 8001156:	2b00      	cmp	r3, #0
 8001158:	d001      	beq.n	800115e <_ZN18Adafruit_I2CDevice4readEPhjb+0x54>
 800115a:	2301      	movs	r3, #1
 800115c:	e000      	b.n	8001160 <_ZN18Adafruit_I2CDevice4readEPhjb+0x56>
 800115e:	2300      	movs	r3, #0
 8001160:	75fb      	strb	r3, [r7, #23]
    if (!_read(buffer + pos, read_len, read_stop))
 8001162:	68ba      	ldr	r2, [r7, #8]
 8001164:	69fb      	ldr	r3, [r7, #28]
 8001166:	18d1      	adds	r1, r2, r3
 8001168:	7dfb      	ldrb	r3, [r7, #23]
 800116a:	69ba      	ldr	r2, [r7, #24]
 800116c:	68f8      	ldr	r0, [r7, #12]
 800116e:	f000 f812 	bl	8001196 <_ZN18Adafruit_I2CDevice5_readEPhjb>
 8001172:	4603      	mov	r3, r0
 8001174:	f083 0301 	eor.w	r3, r3, #1
 8001178:	b2db      	uxtb	r3, r3
 800117a:	2b00      	cmp	r3, #0
 800117c:	d001      	beq.n	8001182 <_ZN18Adafruit_I2CDevice4readEPhjb+0x78>
      return false;
 800117e:	2300      	movs	r3, #0
 8001180:	e005      	b.n	800118e <_ZN18Adafruit_I2CDevice4readEPhjb+0x84>
    pos += read_len;
 8001182:	69fa      	ldr	r2, [r7, #28]
 8001184:	69bb      	ldr	r3, [r7, #24]
 8001186:	4413      	add	r3, r2
 8001188:	61fb      	str	r3, [r7, #28]
  while (pos < len) {
 800118a:	e7c7      	b.n	800111c <_ZN18Adafruit_I2CDevice4readEPhjb+0x12>
  }
  return true;
 800118c:	2301      	movs	r3, #1
}
 800118e:	4618      	mov	r0, r3
 8001190:	3724      	adds	r7, #36	; 0x24
 8001192:	46bd      	mov	sp, r7
 8001194:	bd90      	pop	{r4, r7, pc}

08001196 <_ZN18Adafruit_I2CDevice5_readEPhjb>:

bool Adafruit_I2CDevice::_read(uint8_t *buffer, size_t len, bool stop) {
 8001196:	b480      	push	{r7}
 8001198:	b085      	sub	sp, #20
 800119a:	af00      	add	r7, sp, #0
 800119c:	60f8      	str	r0, [r7, #12]
 800119e:	60b9      	str	r1, [r7, #8]
 80011a0:	607a      	str	r2, [r7, #4]
 80011a2:	70fb      	strb	r3, [r7, #3]
    // Not enough data available to fulfill our obligation!
#ifdef DEBUG_SERIAL
    //DEBUG_SERIAL.print(F("\tI2CDevice did not receive enough data: "));
    //DEBUG_SERIAL.println(recv);
#endif
    return false;
 80011a4:	2300      	movs	r3, #0
  }
  DEBUG_SERIAL.println();
#endif

  return true;
}
 80011a6:	4618      	mov	r0, r3
 80011a8:	3714      	adds	r7, #20
 80011aa:	46bd      	mov	sp, r7
 80011ac:	f85d 7b04 	ldr.w	r7, [sp], #4
 80011b0:	4770      	bx	lr

080011b2 <_ZN18Adafruit_I2CDevice15write_then_readEPKhjPhjb>:
 *    @param  stop Whether to send an I2C STOP signal between the write and read
 *    @return True if write & read was successful, otherwise false.
 */
bool Adafruit_I2CDevice::write_then_read(const uint8_t *write_buffer,
                                         size_t write_len, uint8_t *read_buffer,
                                         size_t read_len, bool stop) {
 80011b2:	b580      	push	{r7, lr}
 80011b4:	b086      	sub	sp, #24
 80011b6:	af02      	add	r7, sp, #8
 80011b8:	60f8      	str	r0, [r7, #12]
 80011ba:	60b9      	str	r1, [r7, #8]
 80011bc:	607a      	str	r2, [r7, #4]
 80011be:	603b      	str	r3, [r7, #0]
  if (!write(write_buffer, write_len, stop)) {
 80011c0:	7f3b      	ldrb	r3, [r7, #28]
 80011c2:	2200      	movs	r2, #0
 80011c4:	9201      	str	r2, [sp, #4]
 80011c6:	2200      	movs	r2, #0
 80011c8:	9200      	str	r2, [sp, #0]
 80011ca:	687a      	ldr	r2, [r7, #4]
 80011cc:	68b9      	ldr	r1, [r7, #8]
 80011ce:	68f8      	ldr	r0, [r7, #12]
 80011d0:	f7ff ff80 	bl	80010d4 <_ZN18Adafruit_I2CDevice5writeEPKhjbS1_j>
 80011d4:	4603      	mov	r3, r0
 80011d6:	f083 0301 	eor.w	r3, r3, #1
 80011da:	b2db      	uxtb	r3, r3
 80011dc:	2b00      	cmp	r3, #0
 80011de:	d001      	beq.n	80011e4 <_ZN18Adafruit_I2CDevice15write_then_readEPKhjPhjb+0x32>
    return false;
 80011e0:	2300      	movs	r3, #0
 80011e2:	e007      	b.n	80011f4 <_ZN18Adafruit_I2CDevice15write_then_readEPKhjPhjb+0x42>
  }

  return read(read_buffer, read_len);
 80011e4:	2301      	movs	r3, #1
 80011e6:	69ba      	ldr	r2, [r7, #24]
 80011e8:	6839      	ldr	r1, [r7, #0]
 80011ea:	68f8      	ldr	r0, [r7, #12]
 80011ec:	f7ff ff8d 	bl	800110a <_ZN18Adafruit_I2CDevice4readEPhjb>
 80011f0:	4603      	mov	r3, r0
 80011f2:	bf00      	nop
}
 80011f4:	4618      	mov	r0, r3
 80011f6:	3710      	adds	r7, #16
 80011f8:	46bd      	mov	sp, r7
 80011fa:	bd80      	pop	{r7, pc}

080011fc <_ZN17Adafruit_ICM20948C1Ev>:

/*!
 *    @brief  Instantiates a new ICM20948 class!
 */

Adafruit_ICM20948::Adafruit_ICM20948(void) {}
 80011fc:	b580      	push	{r7, lr}
 80011fe:	b082      	sub	sp, #8
 8001200:	af00      	add	r7, sp, #0
 8001202:	6078      	str	r0, [r7, #4]
 8001204:	687b      	ldr	r3, [r7, #4]
 8001206:	4618      	mov	r0, r3
 8001208:	f000 fb02 	bl	8001810 <_ZN15Adafruit_ICM20XC1Ev>
 800120c:	4a03      	ldr	r2, [pc, #12]	; (800121c <_ZN17Adafruit_ICM20948C1Ev+0x20>)
 800120e:	687b      	ldr	r3, [r7, #4]
 8001210:	601a      	str	r2, [r3, #0]
 8001212:	687b      	ldr	r3, [r7, #4]
 8001214:	4618      	mov	r0, r3
 8001216:	3708      	adds	r7, #8
 8001218:	46bd      	mov	sp, r7
 800121a:	bd80      	pop	{r7, pc}
 800121c:	08006698 	.word	0x08006698

08001220 <_ZN17Adafruit_ICM209489begin_I2CEhl>:
  }

  return init_success;
}*/

bool Adafruit_ICM20948::begin_I2C(uint8_t i2c_address, int32_t sensor_id) {
 8001220:	b590      	push	{r4, r7, lr}
 8001222:	b087      	sub	sp, #28
 8001224:	af00      	add	r7, sp, #0
 8001226:	60f8      	str	r0, [r7, #12]
 8001228:	460b      	mov	r3, r1
 800122a:	607a      	str	r2, [r7, #4]
 800122c:	72fb      	strb	r3, [r7, #11]

  if (i2c_dev) {
 800122e:	68fb      	ldr	r3, [r7, #12]
 8001230:	6adb      	ldr	r3, [r3, #44]	; 0x2c
 8001232:	2b00      	cmp	r3, #0
 8001234:	d007      	beq.n	8001246 <_ZN17Adafruit_ICM209489begin_I2CEhl+0x26>
    delete i2c_dev; // remove old interface
 8001236:	68fb      	ldr	r3, [r7, #12]
 8001238:	6adb      	ldr	r3, [r3, #44]	; 0x2c
 800123a:	2b00      	cmp	r3, #0
 800123c:	d003      	beq.n	8001246 <_ZN17Adafruit_ICM209489begin_I2CEhl+0x26>
 800123e:	2108      	movs	r1, #8
 8001240:	4618      	mov	r0, r3
 8001242:	f005 f85b 	bl	80062fc <_ZdlPvj>
  }

  //i2c_dev = new Adafruit_I2CDevice(i2c_address, wire);
  i2c_dev = new Adafruit_I2CDevice(i2c_address);
 8001246:	2008      	movs	r0, #8
 8001248:	f005 f85a 	bl	8006300 <_Znwj>
 800124c:	4603      	mov	r3, r0
 800124e:	461c      	mov	r4, r3
 8001250:	7afb      	ldrb	r3, [r7, #11]
 8001252:	4619      	mov	r1, r3
 8001254:	4620      	mov	r0, r4
 8001256:	f7ff fef0 	bl	800103a <_ZN18Adafruit_I2CDeviceC1Eh>
 800125a:	68fb      	ldr	r3, [r7, #12]
 800125c:	62dc      	str	r4, [r3, #44]	; 0x2c

  if (!i2c_dev->begin()) {
 800125e:	68fb      	ldr	r3, [r7, #12]
 8001260:	6adb      	ldr	r3, [r3, #44]	; 0x2c
 8001262:	2101      	movs	r1, #1
 8001264:	4618      	mov	r0, r3
 8001266:	f7ff fefe 	bl	8001066 <_ZN18Adafruit_I2CDevice5beginEb>
 800126a:	4603      	mov	r3, r0
 800126c:	f083 0301 	eor.w	r3, r3, #1
 8001270:	b2db      	uxtb	r3, r3
 8001272:	2b00      	cmp	r3, #0
 8001274:	d001      	beq.n	800127a <_ZN17Adafruit_ICM209489begin_I2CEhl+0x5a>
    //Serial.println("I2C begin Failed");
    return false;
 8001276:	2300      	movs	r3, #0
 8001278:	e012      	b.n	80012a0 <_ZN17Adafruit_ICM209489begin_I2CEhl+0x80>
  }
  bool init_success = _init(sensor_id);
 800127a:	68fb      	ldr	r3, [r7, #12]
 800127c:	6879      	ldr	r1, [r7, #4]
 800127e:	4618      	mov	r0, r3
 8001280:	f000 fb75 	bl	800196e <_ZN15Adafruit_ICM20X5_initEl>
 8001284:	4603      	mov	r3, r0
 8001286:	75fb      	strb	r3, [r7, #23]
  if (!setupMag()) {
 8001288:	68f8      	ldr	r0, [r7, #12]
 800128a:	f000 f843 	bl	8001314 <_ZN17Adafruit_ICM209488setupMagEv>
 800128e:	4603      	mov	r3, r0
 8001290:	f083 0301 	eor.w	r3, r3, #1
 8001294:	b2db      	uxtb	r3, r3
 8001296:	2b00      	cmp	r3, #0
 8001298:	d001      	beq.n	800129e <_ZN17Adafruit_ICM209489begin_I2CEhl+0x7e>
    //Serial.println("failed to setup mag");
    return false;
 800129a:	2300      	movs	r3, #0
 800129c:	e000      	b.n	80012a0 <_ZN17Adafruit_ICM209489begin_I2CEhl+0x80>
  }

  return init_success;
 800129e:	7dfb      	ldrb	r3, [r7, #23]
}
 80012a0:	4618      	mov	r0, r3
 80012a2:	371c      	adds	r7, #28
 80012a4:	46bd      	mov	sp, r7
 80012a6:	bd90      	pop	{r4, r7, pc}

080012a8 <_ZN17Adafruit_ICM2094820auxI2CBusSetupFailedEv>:

// A million thanks to the SparkFun folks for their library that I pillaged to
// write this method! See their Arduino library here:
// https://github.com/sparkfun/SparkFun_ICM-20948_ArduinoLibrary
bool Adafruit_ICM20948::auxI2CBusSetupFailed(void) {
 80012a8:	b580      	push	{r7, lr}
 80012aa:	b084      	sub	sp, #16
 80012ac:	af00      	add	r7, sp, #0
 80012ae:	6078      	str	r0, [r7, #4]
  // check aux I2C bus connection by reading the magnetometer chip ID
  bool aux_i2c_setup_failed = true;
 80012b0:	2301      	movs	r3, #1
 80012b2:	73fb      	strb	r3, [r7, #15]
  for (int i = 0; i < I2C_MASTER_RESETS_BEFORE_FAIL; i++) {
 80012b4:	2300      	movs	r3, #0
 80012b6:	60bb      	str	r3, [r7, #8]
 80012b8:	68bb      	ldr	r3, [r7, #8]
 80012ba:	2b04      	cmp	r3, #4
 80012bc:	dc16      	bgt.n	80012ec <_ZN17Adafruit_ICM2094820auxI2CBusSetupFailedEv+0x44>
    if (getMagId() != ICM20948_MAG_ID) {
 80012be:	6878      	ldr	r0, [r7, #4]
 80012c0:	f000 f819 	bl	80012f6 <_ZN17Adafruit_ICM209488getMagIdEv>
 80012c4:	4603      	mov	r3, r0
 80012c6:	2b09      	cmp	r3, #9
 80012c8:	bf14      	ite	ne
 80012ca:	2301      	movne	r3, #1
 80012cc:	2300      	moveq	r3, #0
 80012ce:	b2db      	uxtb	r3, r3
 80012d0:	2b00      	cmp	r3, #0
 80012d2:	d004      	beq.n	80012de <_ZN17Adafruit_ICM2094820auxI2CBusSetupFailedEv+0x36>
      resetI2CMaster();
 80012d4:	687b      	ldr	r3, [r7, #4]
 80012d6:	4618      	mov	r0, r3
 80012d8:	f001 f8b1 	bl	800243e <_ZN15Adafruit_ICM20X14resetI2CMasterEv>
 80012dc:	e002      	b.n	80012e4 <_ZN17Adafruit_ICM2094820auxI2CBusSetupFailedEv+0x3c>
    } else {
      aux_i2c_setup_failed = false;
 80012de:	2300      	movs	r3, #0
 80012e0:	73fb      	strb	r3, [r7, #15]
      break;
 80012e2:	e003      	b.n	80012ec <_ZN17Adafruit_ICM2094820auxI2CBusSetupFailedEv+0x44>
  for (int i = 0; i < I2C_MASTER_RESETS_BEFORE_FAIL; i++) {
 80012e4:	68bb      	ldr	r3, [r7, #8]
 80012e6:	3301      	adds	r3, #1
 80012e8:	60bb      	str	r3, [r7, #8]
 80012ea:	e7e5      	b.n	80012b8 <_ZN17Adafruit_ICM2094820auxI2CBusSetupFailedEv+0x10>
    }
  }
  return aux_i2c_setup_failed;
 80012ec:	7bfb      	ldrb	r3, [r7, #15]
}
 80012ee:	4618      	mov	r0, r3
 80012f0:	3710      	adds	r7, #16
 80012f2:	46bd      	mov	sp, r7
 80012f4:	bd80      	pop	{r7, pc}

080012f6 <_ZN17Adafruit_ICM209488getMagIdEv>:

uint8_t Adafruit_ICM20948::getMagId(void) {
 80012f6:	b580      	push	{r7, lr}
 80012f8:	b082      	sub	sp, #8
 80012fa:	af00      	add	r7, sp, #0
 80012fc:	6078      	str	r0, [r7, #4]
  // verify the magnetometer id
  return readExternalRegister(0x8C, 0x01);
 80012fe:	687b      	ldr	r3, [r7, #4]
 8001300:	2201      	movs	r2, #1
 8001302:	218c      	movs	r1, #140	; 0x8c
 8001304:	4618      	mov	r0, r3
 8001306:	f000 ff79 	bl	80021fc <_ZN15Adafruit_ICM20X20readExternalRegisterEhh>
 800130a:	4603      	mov	r3, r0
}
 800130c:	4618      	mov	r0, r3
 800130e:	3708      	adds	r7, #8
 8001310:	46bd      	mov	sp, r7
 8001312:	bd80      	pop	{r7, pc}

08001314 <_ZN17Adafruit_ICM209488setupMagEv>:

bool Adafruit_ICM20948::setupMag(void) {
 8001314:	b580      	push	{r7, lr}
 8001316:	b086      	sub	sp, #24
 8001318:	af02      	add	r7, sp, #8
 800131a:	6078      	str	r0, [r7, #4]
  uint8_t buffer[2];

  setI2CBypass(false);
 800131c:	687b      	ldr	r3, [r7, #4]
 800131e:	2100      	movs	r1, #0
 8001320:	4618      	mov	r0, r3
 8001322:	f000 fef2 	bl	800210a <_ZN15Adafruit_ICM20X12setI2CBypassEb>

  configureI2CMaster();
 8001326:	687b      	ldr	r3, [r7, #4]
 8001328:	4618      	mov	r0, r3
 800132a:	f000 ff45 	bl	80021b8 <_ZN15Adafruit_ICM20X18configureI2CMasterEv>

  enableI2CMaster(true);
 800132e:	687b      	ldr	r3, [r7, #4]
 8001330:	2101      	movs	r1, #1
 8001332:	4618      	mov	r0, r3
 8001334:	f000 ff14 	bl	8002160 <_ZN15Adafruit_ICM20X15enableI2CMasterEb>

  if (auxI2CBusSetupFailed()) {
 8001338:	6878      	ldr	r0, [r7, #4]
 800133a:	f7ff ffb5 	bl	80012a8 <_ZN17Adafruit_ICM2094820auxI2CBusSetupFailedEv>
 800133e:	4603      	mov	r3, r0
 8001340:	2b00      	cmp	r3, #0
 8001342:	d001      	beq.n	8001348 <_ZN17Adafruit_ICM209488setupMagEv+0x34>
    return false;
 8001344:	2300      	movs	r3, #0
 8001346:	e059      	b.n	80013fc <_ZN17Adafruit_ICM209488setupMagEv+0xe8>
  }

  // set mag data rate
  if (!setMagDataRate(AK09916_MAG_DATARATE_100_HZ)) {
 8001348:	2108      	movs	r1, #8
 800134a:	6878      	ldr	r0, [r7, #4]
 800134c:	f000 f989 	bl	8001662 <_ZN17Adafruit_ICM2094814setMagDataRateE19ak09916_data_rate_t>
 8001350:	4603      	mov	r3, r0
 8001352:	f083 0301 	eor.w	r3, r3, #1
 8001356:	b2db      	uxtb	r3, r3
 8001358:	2b00      	cmp	r3, #0
 800135a:	d001      	beq.n	8001360 <_ZN17Adafruit_ICM209488setupMagEv+0x4c>
    //Serial.println("Error setting magnetometer data rate on external bus");
    return false;
 800135c:	2300      	movs	r3, #0
 800135e:	e04d      	b.n	80013fc <_ZN17Adafruit_ICM209488setupMagEv+0xe8>
  }

  // TODO: extract method
  // Set up Slave0 to proxy Mag readings
  _setBank(3);
 8001360:	687b      	ldr	r3, [r7, #4]
 8001362:	2103      	movs	r1, #3
 8001364:	4618      	mov	r0, r3
 8001366:	f000 fd4e 	bl	8001e06 <_ZN15Adafruit_ICM20X8_setBankEh>
  // set up slave0 to proxy reads to mag
  buffer[0] = ICM20X_B3_I2C_SLV0_ADDR;
 800136a:	2303      	movs	r3, #3
 800136c:	733b      	strb	r3, [r7, #12]
  buffer[1] = 0x8C;
 800136e:	238c      	movs	r3, #140	; 0x8c
 8001370:	737b      	strb	r3, [r7, #13]
  if (!i2c_dev->write(buffer, 2)) {
 8001372:	687b      	ldr	r3, [r7, #4]
 8001374:	6ad8      	ldr	r0, [r3, #44]	; 0x2c
 8001376:	f107 010c 	add.w	r1, r7, #12
 800137a:	2300      	movs	r3, #0
 800137c:	9301      	str	r3, [sp, #4]
 800137e:	2300      	movs	r3, #0
 8001380:	9300      	str	r3, [sp, #0]
 8001382:	2301      	movs	r3, #1
 8001384:	2202      	movs	r2, #2
 8001386:	f7ff fea5 	bl	80010d4 <_ZN18Adafruit_I2CDevice5writeEPKhjbS1_j>
 800138a:	4603      	mov	r3, r0
 800138c:	f083 0301 	eor.w	r3, r3, #1
 8001390:	b2db      	uxtb	r3, r3
 8001392:	2b00      	cmp	r3, #0
 8001394:	d001      	beq.n	800139a <_ZN17Adafruit_ICM209488setupMagEv+0x86>
    return false;
 8001396:	2300      	movs	r3, #0
 8001398:	e030      	b.n	80013fc <_ZN17Adafruit_ICM209488setupMagEv+0xe8>
  }

  buffer[0] = ICM20X_B3_I2C_SLV0_REG;
 800139a:	2304      	movs	r3, #4
 800139c:	733b      	strb	r3, [r7, #12]
  buffer[1] = 0x10;
 800139e:	2310      	movs	r3, #16
 80013a0:	737b      	strb	r3, [r7, #13]
  if (!i2c_dev->write(buffer, 2)) {
 80013a2:	687b      	ldr	r3, [r7, #4]
 80013a4:	6ad8      	ldr	r0, [r3, #44]	; 0x2c
 80013a6:	f107 010c 	add.w	r1, r7, #12
 80013aa:	2300      	movs	r3, #0
 80013ac:	9301      	str	r3, [sp, #4]
 80013ae:	2300      	movs	r3, #0
 80013b0:	9300      	str	r3, [sp, #0]
 80013b2:	2301      	movs	r3, #1
 80013b4:	2202      	movs	r2, #2
 80013b6:	f7ff fe8d 	bl	80010d4 <_ZN18Adafruit_I2CDevice5writeEPKhjbS1_j>
 80013ba:	4603      	mov	r3, r0
 80013bc:	f083 0301 	eor.w	r3, r3, #1
 80013c0:	b2db      	uxtb	r3, r3
 80013c2:	2b00      	cmp	r3, #0
 80013c4:	d001      	beq.n	80013ca <_ZN17Adafruit_ICM209488setupMagEv+0xb6>
    return false;
 80013c6:	2300      	movs	r3, #0
 80013c8:	e018      	b.n	80013fc <_ZN17Adafruit_ICM209488setupMagEv+0xe8>
  }

  buffer[0] = ICM20X_B3_I2C_SLV0_CTRL;
 80013ca:	2305      	movs	r3, #5
 80013cc:	733b      	strb	r3, [r7, #12]
  buffer[1] = 0x89; // enable, read 9 bytes
 80013ce:	2389      	movs	r3, #137	; 0x89
 80013d0:	737b      	strb	r3, [r7, #13]
  if (!i2c_dev->write(buffer, 2)) {
 80013d2:	687b      	ldr	r3, [r7, #4]
 80013d4:	6ad8      	ldr	r0, [r3, #44]	; 0x2c
 80013d6:	f107 010c 	add.w	r1, r7, #12
 80013da:	2300      	movs	r3, #0
 80013dc:	9301      	str	r3, [sp, #4]
 80013de:	2300      	movs	r3, #0
 80013e0:	9300      	str	r3, [sp, #0]
 80013e2:	2301      	movs	r3, #1
 80013e4:	2202      	movs	r2, #2
 80013e6:	f7ff fe75 	bl	80010d4 <_ZN18Adafruit_I2CDevice5writeEPKhjbS1_j>
 80013ea:	4603      	mov	r3, r0
 80013ec:	f083 0301 	eor.w	r3, r3, #1
 80013f0:	b2db      	uxtb	r3, r3
 80013f2:	2b00      	cmp	r3, #0
 80013f4:	d001      	beq.n	80013fa <_ZN17Adafruit_ICM209488setupMagEv+0xe6>
    return false;
 80013f6:	2300      	movs	r3, #0
 80013f8:	e000      	b.n	80013fc <_ZN17Adafruit_ICM209488setupMagEv+0xe8>
  }

  return true;
 80013fa:	2301      	movs	r3, #1
}
 80013fc:	4618      	mov	r0, r3
 80013fe:	3710      	adds	r7, #16
 8001400:	46bd      	mov	sp, r7
 8001402:	bd80      	pop	{r7, pc}

08001404 <_ZN17Adafruit_ICM2094815readMagRegisterEh>:
 * @param slv_addr
 * @param mag_reg_addr
 * @param num_finished_checks
 * @return uint8_t
 */
uint8_t Adafruit_ICM20948::readMagRegister(uint8_t mag_reg_addr) {
 8001404:	b580      	push	{r7, lr}
 8001406:	b082      	sub	sp, #8
 8001408:	af00      	add	r7, sp, #0
 800140a:	6078      	str	r0, [r7, #4]
 800140c:	460b      	mov	r3, r1
 800140e:	70fb      	strb	r3, [r7, #3]
  return readExternalRegister(0x8C, mag_reg_addr);
 8001410:	687b      	ldr	r3, [r7, #4]
 8001412:	78fa      	ldrb	r2, [r7, #3]
 8001414:	218c      	movs	r1, #140	; 0x8c
 8001416:	4618      	mov	r0, r3
 8001418:	f000 fef0 	bl	80021fc <_ZN15Adafruit_ICM20X20readExternalRegisterEhh>
 800141c:	4603      	mov	r3, r0
}
 800141e:	4618      	mov	r0, r3
 8001420:	3708      	adds	r7, #8
 8001422:	46bd      	mov	sp, r7
 8001424:	bd80      	pop	{r7, pc}

08001426 <_ZN17Adafruit_ICM2094816writeMagRegisterEhh>:

bool Adafruit_ICM20948::writeMagRegister(uint8_t mag_reg_addr, uint8_t value) {
 8001426:	b580      	push	{r7, lr}
 8001428:	b082      	sub	sp, #8
 800142a:	af00      	add	r7, sp, #0
 800142c:	6078      	str	r0, [r7, #4]
 800142e:	460b      	mov	r3, r1
 8001430:	70fb      	strb	r3, [r7, #3]
 8001432:	4613      	mov	r3, r2
 8001434:	70bb      	strb	r3, [r7, #2]
  return writeExternalRegister(0x0C, mag_reg_addr, value);
 8001436:	6878      	ldr	r0, [r7, #4]
 8001438:	78bb      	ldrb	r3, [r7, #2]
 800143a:	78fa      	ldrb	r2, [r7, #3]
 800143c:	210c      	movs	r1, #12
 800143e:	f000 fef2 	bl	8002226 <_ZN15Adafruit_ICM20X21writeExternalRegisterEhhh>
 8001442:	4603      	mov	r3, r0
}
 8001444:	4618      	mov	r0, r3
 8001446:	3708      	adds	r7, #8
 8001448:	46bd      	mov	sp, r7
 800144a:	bd80      	pop	{r7, pc}
 800144c:	0000      	movs	r0, r0
	...

08001450 <_ZN17Adafruit_ICM2094811scaleValuesEv>:

void Adafruit_ICM20948::scaleValues(void) {
 8001450:	b580      	push	{r7, lr}
 8001452:	b086      	sub	sp, #24
 8001454:	af00      	add	r7, sp, #0
 8001456:	6078      	str	r0, [r7, #4]

  icm20948_gyro_range_t gyro_range = (icm20948_gyro_range_t)current_gyro_range;
 8001458:	687b      	ldr	r3, [r7, #4]
 800145a:	f893 305d 	ldrb.w	r3, [r3, #93]	; 0x5d
 800145e:	73fb      	strb	r3, [r7, #15]
  icm20948_accel_range_t accel_range =
 8001460:	687b      	ldr	r3, [r7, #4]
 8001462:	f893 305c 	ldrb.w	r3, [r3, #92]	; 0x5c
 8001466:	73bb      	strb	r3, [r7, #14]
      (icm20948_accel_range_t)current_accel_range;

  float accel_scale = 1.0;
 8001468:	f04f 537e 	mov.w	r3, #1065353216	; 0x3f800000
 800146c:	617b      	str	r3, [r7, #20]
  float gyro_scale = 1.0;
 800146e:	f04f 537e 	mov.w	r3, #1065353216	; 0x3f800000
 8001472:	613b      	str	r3, [r7, #16]

  if (gyro_range == ICM20948_GYRO_RANGE_250_DPS)
 8001474:	7bfb      	ldrb	r3, [r7, #15]
 8001476:	2b00      	cmp	r3, #0
 8001478:	d101      	bne.n	800147e <_ZN17Adafruit_ICM2094811scaleValuesEv+0x2e>
    gyro_scale = 131.0;
 800147a:	4b61      	ldr	r3, [pc, #388]	; (8001600 <_ZN17Adafruit_ICM2094811scaleValuesEv+0x1b0>)
 800147c:	613b      	str	r3, [r7, #16]
  if (gyro_range == ICM20948_GYRO_RANGE_500_DPS)
 800147e:	7bfb      	ldrb	r3, [r7, #15]
 8001480:	2b01      	cmp	r3, #1
 8001482:	d101      	bne.n	8001488 <_ZN17Adafruit_ICM2094811scaleValuesEv+0x38>
    gyro_scale = 65.5;
 8001484:	4b5f      	ldr	r3, [pc, #380]	; (8001604 <_ZN17Adafruit_ICM2094811scaleValuesEv+0x1b4>)
 8001486:	613b      	str	r3, [r7, #16]
  if (gyro_range == ICM20948_GYRO_RANGE_1000_DPS)
 8001488:	7bfb      	ldrb	r3, [r7, #15]
 800148a:	2b02      	cmp	r3, #2
 800148c:	d101      	bne.n	8001492 <_ZN17Adafruit_ICM2094811scaleValuesEv+0x42>
    gyro_scale = 32.8;
 800148e:	4b5e      	ldr	r3, [pc, #376]	; (8001608 <_ZN17Adafruit_ICM2094811scaleValuesEv+0x1b8>)
 8001490:	613b      	str	r3, [r7, #16]
  if (gyro_range == ICM20948_GYRO_RANGE_2000_DPS)
 8001492:	7bfb      	ldrb	r3, [r7, #15]
 8001494:	2b03      	cmp	r3, #3
 8001496:	d101      	bne.n	800149c <_ZN17Adafruit_ICM2094811scaleValuesEv+0x4c>
    gyro_scale = 16.4;
 8001498:	4b5c      	ldr	r3, [pc, #368]	; (800160c <_ZN17Adafruit_ICM2094811scaleValuesEv+0x1bc>)
 800149a:	613b      	str	r3, [r7, #16]

  if (accel_range == ICM20948_ACCEL_RANGE_2_G)
 800149c:	7bbb      	ldrb	r3, [r7, #14]
 800149e:	2b00      	cmp	r3, #0
 80014a0:	d102      	bne.n	80014a8 <_ZN17Adafruit_ICM2094811scaleValuesEv+0x58>
    accel_scale = 16384.0;
 80014a2:	f04f 438d 	mov.w	r3, #1182793728	; 0x46800000
 80014a6:	617b      	str	r3, [r7, #20]
  if (accel_range == ICM20948_ACCEL_RANGE_4_G)
 80014a8:	7bbb      	ldrb	r3, [r7, #14]
 80014aa:	2b01      	cmp	r3, #1
 80014ac:	d102      	bne.n	80014b4 <_ZN17Adafruit_ICM2094811scaleValuesEv+0x64>
    accel_scale = 8192.0;
 80014ae:	f04f 438c 	mov.w	r3, #1174405120	; 0x46000000
 80014b2:	617b      	str	r3, [r7, #20]
  if (accel_range == ICM20948_ACCEL_RANGE_8_G)
 80014b4:	7bbb      	ldrb	r3, [r7, #14]
 80014b6:	2b02      	cmp	r3, #2
 80014b8:	d102      	bne.n	80014c0 <_ZN17Adafruit_ICM2094811scaleValuesEv+0x70>
    accel_scale = 4096.0;
 80014ba:	f04f 438b 	mov.w	r3, #1166016512	; 0x45800000
 80014be:	617b      	str	r3, [r7, #20]
  if (accel_range == ICM20948_ACCEL_RANGE_16_G)
 80014c0:	7bbb      	ldrb	r3, [r7, #14]
 80014c2:	2b03      	cmp	r3, #3
 80014c4:	d102      	bne.n	80014cc <_ZN17Adafruit_ICM2094811scaleValuesEv+0x7c>
    accel_scale = 2048.0;
 80014c6:	f04f 438a 	mov.w	r3, #1157627904	; 0x45000000
 80014ca:	617b      	str	r3, [r7, #20]

  gyroX = rawGyroX / gyro_scale;
 80014cc:	687b      	ldr	r3, [r7, #4]
 80014ce:	f9b3 3050 	ldrsh.w	r3, [r3, #80]	; 0x50
 80014d2:	ee07 3a90 	vmov	s15, r3
 80014d6:	eef8 6ae7 	vcvt.f32.s32	s13, s15
 80014da:	ed97 7a04 	vldr	s14, [r7, #16]
 80014de:	eec6 7a87 	vdiv.f32	s15, s13, s14
 80014e2:	687b      	ldr	r3, [r7, #4]
 80014e4:	edc3 7a05 	vstr	s15, [r3, #20]
  gyroY = rawGyroY / gyro_scale;
 80014e8:	687b      	ldr	r3, [r7, #4]
 80014ea:	f9b3 3052 	ldrsh.w	r3, [r3, #82]	; 0x52
 80014ee:	ee07 3a90 	vmov	s15, r3
 80014f2:	eef8 6ae7 	vcvt.f32.s32	s13, s15
 80014f6:	ed97 7a04 	vldr	s14, [r7, #16]
 80014fa:	eec6 7a87 	vdiv.f32	s15, s13, s14
 80014fe:	687b      	ldr	r3, [r7, #4]
 8001500:	edc3 7a06 	vstr	s15, [r3, #24]
  gyroZ = rawGyroZ / gyro_scale;
 8001504:	687b      	ldr	r3, [r7, #4]
 8001506:	f9b3 3054 	ldrsh.w	r3, [r3, #84]	; 0x54
 800150a:	ee07 3a90 	vmov	s15, r3
 800150e:	eef8 6ae7 	vcvt.f32.s32	s13, s15
 8001512:	ed97 7a04 	vldr	s14, [r7, #16]
 8001516:	eec6 7a87 	vdiv.f32	s15, s13, s14
 800151a:	687b      	ldr	r3, [r7, #4]
 800151c:	edc3 7a07 	vstr	s15, [r3, #28]

  accX = rawAccX / accel_scale;
 8001520:	687b      	ldr	r3, [r7, #4]
 8001522:	f9b3 3048 	ldrsh.w	r3, [r3, #72]	; 0x48
 8001526:	ee07 3a90 	vmov	s15, r3
 800152a:	eef8 6ae7 	vcvt.f32.s32	s13, s15
 800152e:	ed97 7a05 	vldr	s14, [r7, #20]
 8001532:	eec6 7a87 	vdiv.f32	s15, s13, s14
 8001536:	687b      	ldr	r3, [r7, #4]
 8001538:	edc3 7a02 	vstr	s15, [r3, #8]
  accY = rawAccY / accel_scale;
 800153c:	687b      	ldr	r3, [r7, #4]
 800153e:	f9b3 304a 	ldrsh.w	r3, [r3, #74]	; 0x4a
 8001542:	ee07 3a90 	vmov	s15, r3
 8001546:	eef8 6ae7 	vcvt.f32.s32	s13, s15
 800154a:	ed97 7a05 	vldr	s14, [r7, #20]
 800154e:	eec6 7a87 	vdiv.f32	s15, s13, s14
 8001552:	687b      	ldr	r3, [r7, #4]
 8001554:	edc3 7a03 	vstr	s15, [r3, #12]
  accZ = rawAccZ / accel_scale;
 8001558:	687b      	ldr	r3, [r7, #4]
 800155a:	f9b3 304c 	ldrsh.w	r3, [r3, #76]	; 0x4c
 800155e:	ee07 3a90 	vmov	s15, r3
 8001562:	eef8 6ae7 	vcvt.f32.s32	s13, s15
 8001566:	ed97 7a05 	vldr	s14, [r7, #20]
 800156a:	eec6 7a87 	vdiv.f32	s15, s13, s14
 800156e:	687b      	ldr	r3, [r7, #4]
 8001570:	edc3 7a04 	vstr	s15, [r3, #16]

  magX = rawMagX * ICM20948_UT_PER_LSB;
 8001574:	687b      	ldr	r3, [r7, #4]
 8001576:	f9b3 3056 	ldrsh.w	r3, [r3, #86]	; 0x56
 800157a:	4618      	mov	r0, r3
 800157c:	f7fe ff7e 	bl	800047c <__aeabi_i2d>
 8001580:	a31d      	add	r3, pc, #116	; (adr r3, 80015f8 <_ZN17Adafruit_ICM2094811scaleValuesEv+0x1a8>)
 8001582:	e9d3 2300 	ldrd	r2, r3, [r3]
 8001586:	f7fe ffe3 	bl	8000550 <__aeabi_dmul>
 800158a:	4602      	mov	r2, r0
 800158c:	460b      	mov	r3, r1
 800158e:	4610      	mov	r0, r2
 8001590:	4619      	mov	r1, r3
 8001592:	f7ff f9ef 	bl	8000974 <__aeabi_d2f>
 8001596:	4602      	mov	r2, r0
 8001598:	687b      	ldr	r3, [r7, #4]
 800159a:	621a      	str	r2, [r3, #32]
  magY = rawMagY * ICM20948_UT_PER_LSB;
 800159c:	687b      	ldr	r3, [r7, #4]
 800159e:	f9b3 3058 	ldrsh.w	r3, [r3, #88]	; 0x58
 80015a2:	4618      	mov	r0, r3
 80015a4:	f7fe ff6a 	bl	800047c <__aeabi_i2d>
 80015a8:	a313      	add	r3, pc, #76	; (adr r3, 80015f8 <_ZN17Adafruit_ICM2094811scaleValuesEv+0x1a8>)
 80015aa:	e9d3 2300 	ldrd	r2, r3, [r3]
 80015ae:	f7fe ffcf 	bl	8000550 <__aeabi_dmul>
 80015b2:	4602      	mov	r2, r0
 80015b4:	460b      	mov	r3, r1
 80015b6:	4610      	mov	r0, r2
 80015b8:	4619      	mov	r1, r3
 80015ba:	f7ff f9db 	bl	8000974 <__aeabi_d2f>
 80015be:	4602      	mov	r2, r0
 80015c0:	687b      	ldr	r3, [r7, #4]
 80015c2:	625a      	str	r2, [r3, #36]	; 0x24
  magZ = rawMagZ * ICM20948_UT_PER_LSB;
 80015c4:	687b      	ldr	r3, [r7, #4]
 80015c6:	f9b3 305a 	ldrsh.w	r3, [r3, #90]	; 0x5a
 80015ca:	4618      	mov	r0, r3
 80015cc:	f7fe ff56 	bl	800047c <__aeabi_i2d>
 80015d0:	a309      	add	r3, pc, #36	; (adr r3, 80015f8 <_ZN17Adafruit_ICM2094811scaleValuesEv+0x1a8>)
 80015d2:	e9d3 2300 	ldrd	r2, r3, [r3]
 80015d6:	f7fe ffbb 	bl	8000550 <__aeabi_dmul>
 80015da:	4602      	mov	r2, r0
 80015dc:	460b      	mov	r3, r1
 80015de:	4610      	mov	r0, r2
 80015e0:	4619      	mov	r1, r3
 80015e2:	f7ff f9c7 	bl	8000974 <__aeabi_d2f>
 80015e6:	4602      	mov	r2, r0
 80015e8:	687b      	ldr	r3, [r7, #4]
 80015ea:	629a      	str	r2, [r3, #40]	; 0x28
}
 80015ec:	bf00      	nop
 80015ee:	3718      	adds	r7, #24
 80015f0:	46bd      	mov	sp, r7
 80015f2:	bd80      	pop	{r7, pc}
 80015f4:	f3af 8000 	nop.w
 80015f8:	33333333 	.word	0x33333333
 80015fc:	3fc33333 	.word	0x3fc33333
 8001600:	43030000 	.word	0x43030000
 8001604:	42830000 	.word	0x42830000
 8001608:	42033333 	.word	0x42033333
 800160c:	41833333 	.word	0x41833333

08001610 <_ZN17Adafruit_ICM2094813getAccelRangeEv>:
/**************************************************************************/
/*!
    @brief Get the accelerometer's measurement range.
    @returns The accelerometer's measurement range (`icm20948_accel_range_t`).
*/
icm20948_accel_range_t Adafruit_ICM20948::getAccelRange(void) {
 8001610:	b580      	push	{r7, lr}
 8001612:	b082      	sub	sp, #8
 8001614:	af00      	add	r7, sp, #0
 8001616:	6078      	str	r0, [r7, #4]
  return (icm20948_accel_range_t)readAccelRange();
 8001618:	687b      	ldr	r3, [r7, #4]
 800161a:	4618      	mov	r0, r3
 800161c:	f000 fc15 	bl	8001e4a <_ZN15Adafruit_ICM20X14readAccelRangeEv>
 8001620:	4603      	mov	r3, r0
}
 8001622:	4618      	mov	r0, r3
 8001624:	3708      	adds	r7, #8
 8001626:	46bd      	mov	sp, r7
 8001628:	bd80      	pop	{r7, pc}

0800162a <_ZN17Adafruit_ICM2094812getGyroRangeEv>:
/**************************************************************************/
/*!
    @brief Get the gyro's measurement range.
    @returns The gyro's measurement range (`icm20948_gyro_range_t`).
*/
icm20948_gyro_range_t Adafruit_ICM20948::getGyroRange(void) {
 800162a:	b580      	push	{r7, lr}
 800162c:	b082      	sub	sp, #8
 800162e:	af00      	add	r7, sp, #0
 8001630:	6078      	str	r0, [r7, #4]
  return (icm20948_gyro_range_t)readGyroRange();
 8001632:	687b      	ldr	r3, [r7, #4]
 8001634:	4618      	mov	r0, r3
 8001636:	f000 fc6b 	bl	8001f10 <_ZN15Adafruit_ICM20X13readGyroRangeEv>
 800163a:	4603      	mov	r3, r0
}
 800163c:	4618      	mov	r0, r3
 800163e:	3708      	adds	r7, #8
 8001640:	46bd      	mov	sp, r7
 8001642:	bd80      	pop	{r7, pc}

08001644 <_ZN17Adafruit_ICM2094814getMagDataRateEv>:
/**
 * @brief Get the current magnetometer measurement rate
 *
 * @return ak09916_data_rate_t the current rate
 */
ak09916_data_rate_t Adafruit_ICM20948::getMagDataRate(void) {
 8001644:	b580      	push	{r7, lr}
 8001646:	b084      	sub	sp, #16
 8001648:	af00      	add	r7, sp, #0
 800164a:	6078      	str	r0, [r7, #4]

  uint8_t raw_mag_rate = readMagRegister(AK09916_CNTL2);
 800164c:	2131      	movs	r1, #49	; 0x31
 800164e:	6878      	ldr	r0, [r7, #4]
 8001650:	f7ff fed8 	bl	8001404 <_ZN17Adafruit_ICM2094815readMagRegisterEh>
 8001654:	4603      	mov	r3, r0
 8001656:	73fb      	strb	r3, [r7, #15]
  return (ak09916_data_rate_t)(raw_mag_rate);
 8001658:	7bfb      	ldrb	r3, [r7, #15]
}
 800165a:	4618      	mov	r0, r3
 800165c:	3710      	adds	r7, #16
 800165e:	46bd      	mov	sp, r7
 8001660:	bd80      	pop	{r7, pc}

08001662 <_ZN17Adafruit_ICM2094814setMagDataRateE19ak09916_data_rate_t>:
 *
 * @param rate The rate to set.
 *
 * @return true: success false: failure
 */
bool Adafruit_ICM20948::setMagDataRate(ak09916_data_rate_t rate) {
 8001662:	b580      	push	{r7, lr}
 8001664:	b084      	sub	sp, #16
 8001666:	af00      	add	r7, sp, #0
 8001668:	6078      	str	r0, [r7, #4]
 800166a:	460b      	mov	r3, r1
 800166c:	70fb      	strb	r3, [r7, #3]
   * See page 9 of https://www.y-ic.es/datasheet/78/SMDSW.020-2OZ.pdf
   */

  // don't need to read/mask because there's nothing else in the register and
  // it's right justified
  bool success = writeMagRegister(AK09916_CNTL2, AK09916_MAG_DATARATE_SHUTDOWN);
 800166e:	2200      	movs	r2, #0
 8001670:	2131      	movs	r1, #49	; 0x31
 8001672:	6878      	ldr	r0, [r7, #4]
 8001674:	f7ff fed7 	bl	8001426 <_ZN17Adafruit_ICM2094816writeMagRegisterEhh>
 8001678:	4603      	mov	r3, r0
 800167a:	73fb      	strb	r3, [r7, #15]
  HAL_Delay(1);
 800167c:	2001      	movs	r0, #1
 800167e:	f001 ff6f 	bl	8003560 <HAL_Delay>
  return writeMagRegister(AK09916_CNTL2, rate) && success;
 8001682:	78fb      	ldrb	r3, [r7, #3]
 8001684:	461a      	mov	r2, r3
 8001686:	2131      	movs	r1, #49	; 0x31
 8001688:	6878      	ldr	r0, [r7, #4]
 800168a:	f7ff fecc 	bl	8001426 <_ZN17Adafruit_ICM2094816writeMagRegisterEhh>
 800168e:	4603      	mov	r3, r0
 8001690:	2b00      	cmp	r3, #0
 8001692:	d004      	beq.n	800169e <_ZN17Adafruit_ICM2094814setMagDataRateE19ak09916_data_rate_t+0x3c>
 8001694:	7bfb      	ldrb	r3, [r7, #15]
 8001696:	2b00      	cmp	r3, #0
 8001698:	d001      	beq.n	800169e <_ZN17Adafruit_ICM2094814setMagDataRateE19ak09916_data_rate_t+0x3c>
 800169a:	2301      	movs	r3, #1
 800169c:	e000      	b.n	80016a0 <_ZN17Adafruit_ICM2094814setMagDataRateE19ak09916_data_rate_t+0x3e>
 800169e:	2300      	movs	r3, #0
}
 80016a0:	4618      	mov	r0, r3
 80016a2:	3710      	adds	r7, #16
 80016a4:	46bd      	mov	sp, r7
 80016a6:	bd80      	pop	{r7, pc}

080016a8 <_ZN15Adafruit_SensorC1Ev>:
 * https://github.com/android/platform_hardware_libhardware/blob/master/include/hardware/sensors.h
 */
class Adafruit_Sensor {
public:
  // Constructor(s)
  Adafruit_Sensor() {}
 80016a8:	b480      	push	{r7}
 80016aa:	b083      	sub	sp, #12
 80016ac:	af00      	add	r7, sp, #0
 80016ae:	6078      	str	r0, [r7, #4]
 80016b0:	4a04      	ldr	r2, [pc, #16]	; (80016c4 <_ZN15Adafruit_SensorC1Ev+0x1c>)
 80016b2:	687b      	ldr	r3, [r7, #4]
 80016b4:	601a      	str	r2, [r3, #0]
 80016b6:	687b      	ldr	r3, [r7, #4]
 80016b8:	4618      	mov	r0, r3
 80016ba:	370c      	adds	r7, #12
 80016bc:	46bd      	mov	sp, r7
 80016be:	f85d 7b04 	ldr.w	r7, [sp], #4
 80016c2:	4770      	bx	lr
 80016c4:	08006728 	.word	0x08006728

080016c8 <_ZN15Adafruit_SensorD1Ev>:
  virtual ~Adafruit_Sensor() {}
 80016c8:	b480      	push	{r7}
 80016ca:	b083      	sub	sp, #12
 80016cc:	af00      	add	r7, sp, #0
 80016ce:	6078      	str	r0, [r7, #4]
 80016d0:	4a04      	ldr	r2, [pc, #16]	; (80016e4 <_ZN15Adafruit_SensorD1Ev+0x1c>)
 80016d2:	687b      	ldr	r3, [r7, #4]
 80016d4:	601a      	str	r2, [r3, #0]
 80016d6:	687b      	ldr	r3, [r7, #4]
 80016d8:	4618      	mov	r0, r3
 80016da:	370c      	adds	r7, #12
 80016dc:	46bd      	mov	sp, r7
 80016de:	f85d 7b04 	ldr.w	r7, [sp], #4
 80016e2:	4770      	bx	lr
 80016e4:	08006728 	.word	0x08006728

080016e8 <_ZN15Adafruit_SensorD0Ev>:
 80016e8:	b580      	push	{r7, lr}
 80016ea:	b082      	sub	sp, #8
 80016ec:	af00      	add	r7, sp, #0
 80016ee:	6078      	str	r0, [r7, #4]
 80016f0:	6878      	ldr	r0, [r7, #4]
 80016f2:	f7ff ffe9 	bl	80016c8 <_ZN15Adafruit_SensorD1Ev>
 80016f6:	2104      	movs	r1, #4
 80016f8:	6878      	ldr	r0, [r7, #4]
 80016fa:	f004 fdff 	bl	80062fc <_ZdlPvj>
 80016fe:	687b      	ldr	r3, [r7, #4]
 8001700:	4618      	mov	r0, r3
 8001702:	3708      	adds	r7, #8
 8001704:	46bd      	mov	sp, r7
 8001706:	bd80      	pop	{r7, pc}

08001708 <_ZN15Adafruit_Sensor15enableAutoRangeEb>:
  // These must be defined by the subclass

  /*! @brief Whether we should automatically change the range (if possible) for
     higher precision
      @param enabled True if we will try to autorange */
  virtual void enableAutoRange(bool enabled) {
 8001708:	b480      	push	{r7}
 800170a:	b083      	sub	sp, #12
 800170c:	af00      	add	r7, sp, #0
 800170e:	6078      	str	r0, [r7, #4]
 8001710:	460b      	mov	r3, r1
 8001712:	70fb      	strb	r3, [r7, #3]
    (void)enabled; /* suppress unused warning */
  };
 8001714:	bf00      	nop
 8001716:	370c      	adds	r7, #12
 8001718:	46bd      	mov	sp, r7
 800171a:	f85d 7b04 	ldr.w	r7, [sp], #4
 800171e:	4770      	bx	lr

08001720 <_ZN29Adafruit_ICM20X_AccelerometerC1EP15Adafruit_ICM20X>:
class Adafruit_ICM20X_Accelerometer : public Adafruit_Sensor {
public:
  /** @brief Create an Adafruit_Sensor compatible object for the accelerometer
     sensor
      @param parent A pointer to the ICM20X class */
  Adafruit_ICM20X_Accelerometer(Adafruit_ICM20X *parent) {
 8001720:	b580      	push	{r7, lr}
 8001722:	b082      	sub	sp, #8
 8001724:	af00      	add	r7, sp, #0
 8001726:	6078      	str	r0, [r7, #4]
 8001728:	6039      	str	r1, [r7, #0]
 800172a:	687b      	ldr	r3, [r7, #4]
 800172c:	4618      	mov	r0, r3
 800172e:	f7ff ffbb 	bl	80016a8 <_ZN15Adafruit_SensorC1Ev>
 8001732:	4a09      	ldr	r2, [pc, #36]	; (8001758 <_ZN29Adafruit_ICM20X_AccelerometerC1EP15Adafruit_ICM20X+0x38>)
 8001734:	687b      	ldr	r3, [r7, #4]
 8001736:	601a      	str	r2, [r3, #0]
 8001738:	687b      	ldr	r3, [r7, #4]
 800173a:	f240 220a 	movw	r2, #522	; 0x20a
 800173e:	605a      	str	r2, [r3, #4]
 8001740:	687b      	ldr	r3, [r7, #4]
 8001742:	2200      	movs	r2, #0
 8001744:	609a      	str	r2, [r3, #8]
    _theICM20X = parent;
 8001746:	687b      	ldr	r3, [r7, #4]
 8001748:	683a      	ldr	r2, [r7, #0]
 800174a:	609a      	str	r2, [r3, #8]
  }
 800174c:	687b      	ldr	r3, [r7, #4]
 800174e:	4618      	mov	r0, r3
 8001750:	3708      	adds	r7, #8
 8001752:	46bd      	mov	sp, r7
 8001754:	bd80      	pop	{r7, pc}
 8001756:	bf00      	nop
 8001758:	0800670c 	.word	0x0800670c

0800175c <_ZN20Adafruit_ICM20X_GyroC1EP15Adafruit_ICM20X>:
/** Adafruit Unified Sensor interface for gyro component of ICM20X */
class Adafruit_ICM20X_Gyro : public Adafruit_Sensor {
public:
  /** @brief Create an Adafruit_Sensor compatible object for the gyro sensor
      @param parent A pointer to the ICM20X class */
  Adafruit_ICM20X_Gyro(Adafruit_ICM20X *parent) { _theICM20X = parent; }
 800175c:	b580      	push	{r7, lr}
 800175e:	b082      	sub	sp, #8
 8001760:	af00      	add	r7, sp, #0
 8001762:	6078      	str	r0, [r7, #4]
 8001764:	6039      	str	r1, [r7, #0]
 8001766:	687b      	ldr	r3, [r7, #4]
 8001768:	4618      	mov	r0, r3
 800176a:	f7ff ff9d 	bl	80016a8 <_ZN15Adafruit_SensorC1Ev>
 800176e:	4a09      	ldr	r2, [pc, #36]	; (8001794 <_ZN20Adafruit_ICM20X_GyroC1EP15Adafruit_ICM20X+0x38>)
 8001770:	687b      	ldr	r3, [r7, #4]
 8001772:	601a      	str	r2, [r3, #0]
 8001774:	687b      	ldr	r3, [r7, #4]
 8001776:	f240 220b 	movw	r2, #523	; 0x20b
 800177a:	605a      	str	r2, [r3, #4]
 800177c:	687b      	ldr	r3, [r7, #4]
 800177e:	2200      	movs	r2, #0
 8001780:	609a      	str	r2, [r3, #8]
 8001782:	687b      	ldr	r3, [r7, #4]
 8001784:	683a      	ldr	r2, [r7, #0]
 8001786:	609a      	str	r2, [r3, #8]
 8001788:	687b      	ldr	r3, [r7, #4]
 800178a:	4618      	mov	r0, r3
 800178c:	3708      	adds	r7, #8
 800178e:	46bd      	mov	sp, r7
 8001790:	bd80      	pop	{r7, pc}
 8001792:	bf00      	nop
 8001794:	080066f0 	.word	0x080066f0

08001798 <_ZN28Adafruit_ICM20X_MagnetometerC1EP15Adafruit_ICM20X>:
class Adafruit_ICM20X_Magnetometer : public Adafruit_Sensor {
public:
  /** @brief Create an Adafruit_Sensor compatible object for the magnetometer
     sensor
      @param parent A pointer to the ICM20X class */
  Adafruit_ICM20X_Magnetometer(Adafruit_ICM20X *parent) { _theICM20X = parent; }
 8001798:	b580      	push	{r7, lr}
 800179a:	b082      	sub	sp, #8
 800179c:	af00      	add	r7, sp, #0
 800179e:	6078      	str	r0, [r7, #4]
 80017a0:	6039      	str	r1, [r7, #0]
 80017a2:	687b      	ldr	r3, [r7, #4]
 80017a4:	4618      	mov	r0, r3
 80017a6:	f7ff ff7f 	bl	80016a8 <_ZN15Adafruit_SensorC1Ev>
 80017aa:	4a09      	ldr	r2, [pc, #36]	; (80017d0 <_ZN28Adafruit_ICM20X_MagnetometerC1EP15Adafruit_ICM20X+0x38>)
 80017ac:	687b      	ldr	r3, [r7, #4]
 80017ae:	601a      	str	r2, [r3, #0]
 80017b0:	687b      	ldr	r3, [r7, #4]
 80017b2:	f44f 7203 	mov.w	r2, #524	; 0x20c
 80017b6:	605a      	str	r2, [r3, #4]
 80017b8:	687b      	ldr	r3, [r7, #4]
 80017ba:	2200      	movs	r2, #0
 80017bc:	609a      	str	r2, [r3, #8]
 80017be:	687b      	ldr	r3, [r7, #4]
 80017c0:	683a      	ldr	r2, [r7, #0]
 80017c2:	609a      	str	r2, [r3, #8]
 80017c4:	687b      	ldr	r3, [r7, #4]
 80017c6:	4618      	mov	r0, r3
 80017c8:	3708      	adds	r7, #8
 80017ca:	46bd      	mov	sp, r7
 80017cc:	bd80      	pop	{r7, pc}
 80017ce:	bf00      	nop
 80017d0:	080066d4 	.word	0x080066d4

080017d4 <_ZN20Adafruit_ICM20X_TempC1EP15Adafruit_ICM20X>:
/** Adafruit Unified Sensor interface for temperature component of ICM20X */
class Adafruit_ICM20X_Temp : public Adafruit_Sensor {
public:
  /** @brief Create an Adafruit_Sensor compatible object for the temp sensor
      @param parent A pointer to the ICM20X class */
  Adafruit_ICM20X_Temp(Adafruit_ICM20X *parent) { _theICM20X = parent; }
 80017d4:	b580      	push	{r7, lr}
 80017d6:	b082      	sub	sp, #8
 80017d8:	af00      	add	r7, sp, #0
 80017da:	6078      	str	r0, [r7, #4]
 80017dc:	6039      	str	r1, [r7, #0]
 80017de:	687b      	ldr	r3, [r7, #4]
 80017e0:	4618      	mov	r0, r3
 80017e2:	f7ff ff61 	bl	80016a8 <_ZN15Adafruit_SensorC1Ev>
 80017e6:	4a09      	ldr	r2, [pc, #36]	; (800180c <_ZN20Adafruit_ICM20X_TempC1EP15Adafruit_ICM20X+0x38>)
 80017e8:	687b      	ldr	r3, [r7, #4]
 80017ea:	601a      	str	r2, [r3, #0]
 80017ec:	687b      	ldr	r3, [r7, #4]
 80017ee:	f240 220d 	movw	r2, #525	; 0x20d
 80017f2:	605a      	str	r2, [r3, #4]
 80017f4:	687b      	ldr	r3, [r7, #4]
 80017f6:	2200      	movs	r2, #0
 80017f8:	609a      	str	r2, [r3, #8]
 80017fa:	687b      	ldr	r3, [r7, #4]
 80017fc:	683a      	ldr	r2, [r7, #0]
 80017fe:	609a      	str	r2, [r3, #8]
 8001800:	687b      	ldr	r3, [r7, #4]
 8001802:	4618      	mov	r0, r3
 8001804:	3708      	adds	r7, #8
 8001806:	46bd      	mov	sp, r7
 8001808:	bd80      	pop	{r7, pc}
 800180a:	bf00      	nop
 800180c:	080066b8 	.word	0x080066b8

08001810 <_ZN15Adafruit_ICM20XC1Ev>:
#include "ICM20948\Adafruit_ICM20X.h"

/*!
 *    @brief  Instantiates a new ICM20X class!
 */
Adafruit_ICM20X::Adafruit_ICM20X(void) {}
 8001810:	b480      	push	{r7}
 8001812:	b083      	sub	sp, #12
 8001814:	af00      	add	r7, sp, #0
 8001816:	6078      	str	r0, [r7, #4]
 8001818:	4a0c      	ldr	r2, [pc, #48]	; (800184c <_ZN15Adafruit_ICM20XC1Ev+0x3c>)
 800181a:	687b      	ldr	r3, [r7, #4]
 800181c:	601a      	str	r2, [r3, #0]
 800181e:	687b      	ldr	r3, [r7, #4]
 8001820:	2200      	movs	r2, #0
 8001822:	62da      	str	r2, [r3, #44]	; 0x2c
 8001824:	687b      	ldr	r3, [r7, #4]
 8001826:	2200      	movs	r2, #0
 8001828:	631a      	str	r2, [r3, #48]	; 0x30
 800182a:	687b      	ldr	r3, [r7, #4]
 800182c:	2200      	movs	r2, #0
 800182e:	635a      	str	r2, [r3, #52]	; 0x34
 8001830:	687b      	ldr	r3, [r7, #4]
 8001832:	2200      	movs	r2, #0
 8001834:	639a      	str	r2, [r3, #56]	; 0x38
 8001836:	687b      	ldr	r3, [r7, #4]
 8001838:	2200      	movs	r2, #0
 800183a:	63da      	str	r2, [r3, #60]	; 0x3c
 800183c:	687b      	ldr	r3, [r7, #4]
 800183e:	4618      	mov	r0, r3
 8001840:	370c      	adds	r7, #12
 8001842:	46bd      	mov	sp, r7
 8001844:	f85d 7b04 	ldr.w	r7, [sp], #4
 8001848:	4770      	bx	lr
 800184a:	bf00      	nop
 800184c:	080066a8 	.word	0x080066a8

08001850 <_ZN15Adafruit_ICM20XD1Ev>:

/*!
 *    @brief  Cleans up the ICM20X
 */
Adafruit_ICM20X::~Adafruit_ICM20X(void) {
 8001850:	b580      	push	{r7, lr}
 8001852:	b082      	sub	sp, #8
 8001854:	af00      	add	r7, sp, #0
 8001856:	6078      	str	r0, [r7, #4]
 8001858:	4a1d      	ldr	r2, [pc, #116]	; (80018d0 <_ZN15Adafruit_ICM20XD1Ev+0x80>)
 800185a:	687b      	ldr	r3, [r7, #4]
 800185c:	601a      	str	r2, [r3, #0]
  if (accel_sensor)
 800185e:	687b      	ldr	r3, [r7, #4]
 8001860:	6b1b      	ldr	r3, [r3, #48]	; 0x30
 8001862:	2b00      	cmp	r3, #0
 8001864:	d008      	beq.n	8001878 <_ZN15Adafruit_ICM20XD1Ev+0x28>
    delete accel_sensor;
 8001866:	687b      	ldr	r3, [r7, #4]
 8001868:	6b1b      	ldr	r3, [r3, #48]	; 0x30
 800186a:	2b00      	cmp	r3, #0
 800186c:	d004      	beq.n	8001878 <_ZN15Adafruit_ICM20XD1Ev+0x28>
 800186e:	681a      	ldr	r2, [r3, #0]
 8001870:	3204      	adds	r2, #4
 8001872:	6812      	ldr	r2, [r2, #0]
 8001874:	4618      	mov	r0, r3
 8001876:	4790      	blx	r2
  if (gyro_sensor)
 8001878:	687b      	ldr	r3, [r7, #4]
 800187a:	6b5b      	ldr	r3, [r3, #52]	; 0x34
 800187c:	2b00      	cmp	r3, #0
 800187e:	d008      	beq.n	8001892 <_ZN15Adafruit_ICM20XD1Ev+0x42>
    delete gyro_sensor;
 8001880:	687b      	ldr	r3, [r7, #4]
 8001882:	6b5b      	ldr	r3, [r3, #52]	; 0x34
 8001884:	2b00      	cmp	r3, #0
 8001886:	d004      	beq.n	8001892 <_ZN15Adafruit_ICM20XD1Ev+0x42>
 8001888:	681a      	ldr	r2, [r3, #0]
 800188a:	3204      	adds	r2, #4
 800188c:	6812      	ldr	r2, [r2, #0]
 800188e:	4618      	mov	r0, r3
 8001890:	4790      	blx	r2
  if (mag_sensor)
 8001892:	687b      	ldr	r3, [r7, #4]
 8001894:	6b9b      	ldr	r3, [r3, #56]	; 0x38
 8001896:	2b00      	cmp	r3, #0
 8001898:	d008      	beq.n	80018ac <_ZN15Adafruit_ICM20XD1Ev+0x5c>
    delete mag_sensor;
 800189a:	687b      	ldr	r3, [r7, #4]
 800189c:	6b9b      	ldr	r3, [r3, #56]	; 0x38
 800189e:	2b00      	cmp	r3, #0
 80018a0:	d004      	beq.n	80018ac <_ZN15Adafruit_ICM20XD1Ev+0x5c>
 80018a2:	681a      	ldr	r2, [r3, #0]
 80018a4:	3204      	adds	r2, #4
 80018a6:	6812      	ldr	r2, [r2, #0]
 80018a8:	4618      	mov	r0, r3
 80018aa:	4790      	blx	r2
  if (temp_sensor)
 80018ac:	687b      	ldr	r3, [r7, #4]
 80018ae:	6bdb      	ldr	r3, [r3, #60]	; 0x3c
 80018b0:	2b00      	cmp	r3, #0
 80018b2:	d008      	beq.n	80018c6 <_ZN15Adafruit_ICM20XD1Ev+0x76>
    delete temp_sensor;
 80018b4:	687b      	ldr	r3, [r7, #4]
 80018b6:	6bdb      	ldr	r3, [r3, #60]	; 0x3c
 80018b8:	2b00      	cmp	r3, #0
 80018ba:	d004      	beq.n	80018c6 <_ZN15Adafruit_ICM20XD1Ev+0x76>
 80018bc:	681a      	ldr	r2, [r3, #0]
 80018be:	3204      	adds	r2, #4
 80018c0:	6812      	ldr	r2, [r2, #0]
 80018c2:	4618      	mov	r0, r3
 80018c4:	4790      	blx	r2
}
 80018c6:	687b      	ldr	r3, [r7, #4]
 80018c8:	4618      	mov	r0, r3
 80018ca:	3708      	adds	r7, #8
 80018cc:	46bd      	mov	sp, r7
 80018ce:	bd80      	pop	{r7, pc}
 80018d0:	080066a8 	.word	0x080066a8

080018d4 <_ZN15Adafruit_ICM20X9begin_I2CEhl>:
  (void)i2c_address;
  (void)wire;
  (void)sensor_id;
  return false;
}*/
bool Adafruit_ICM20X::begin_I2C(uint8_t i2c_address, int32_t sensor_id) {
 80018d4:	b480      	push	{r7}
 80018d6:	b085      	sub	sp, #20
 80018d8:	af00      	add	r7, sp, #0
 80018da:	60f8      	str	r0, [r7, #12]
 80018dc:	460b      	mov	r3, r1
 80018de:	607a      	str	r2, [r7, #4]
 80018e0:	72fb      	strb	r3, [r7, #11]
  (void)i2c_address;
  (void)sensor_id;
  return false;
 80018e2:	2300      	movs	r3, #0
}
 80018e4:	4618      	mov	r0, r3
 80018e6:	3714      	adds	r7, #20
 80018e8:	46bd      	mov	sp, r7
 80018ea:	f85d 7b04 	ldr.w	r7, [sp], #4
 80018ee:	4770      	bx	lr

080018f0 <_ZN15Adafruit_ICM20X5resetEv>:

/*!
 * @brief Reset the internal registers and restores the default settings
 *
 */
void Adafruit_ICM20X::reset(void) {
 80018f0:	b580      	push	{r7, lr}
 80018f2:	b08e      	sub	sp, #56	; 0x38
 80018f4:	af04      	add	r7, sp, #16
 80018f6:	6078      	str	r0, [r7, #4]
  _setBank(0);
 80018f8:	2100      	movs	r1, #0
 80018fa:	6878      	ldr	r0, [r7, #4]
 80018fc:	f000 fa83 	bl	8001e06 <_ZN15Adafruit_ICM20X8_setBankEh>

  //Adafruit_BusIO_Register pwr_mgmt1 = Adafruit_BusIO_Register(
  //    i2c_dev, spi_dev, ADDRBIT8_HIGH_TOREAD, ICM20X_B0_PWR_MGMT_1, 1);

  Adafruit_BusIO_Register pwr_mgmt1 = Adafruit_BusIO_Register(
      i2c_dev, ADDRBIT8_HIGH_TOREAD, ICM20X_B0_PWR_MGMT_1, 1);
 8001900:	687b      	ldr	r3, [r7, #4]
 8001902:	6ad9      	ldr	r1, [r3, #44]	; 0x2c
 8001904:	f107 0014 	add.w	r0, r7, #20
 8001908:	2301      	movs	r3, #1
 800190a:	9302      	str	r3, [sp, #8]
 800190c:	2300      	movs	r3, #0
 800190e:	9301      	str	r3, [sp, #4]
 8001910:	2301      	movs	r3, #1
 8001912:	9300      	str	r3, [sp, #0]
 8001914:	2306      	movs	r3, #6
 8001916:	2200      	movs	r2, #0
 8001918:	f7ff f9fe 	bl	8000d18 <_ZN23Adafruit_BusIO_RegisterC1EP18Adafruit_I2CDevice26_Adafruit_BusIO_SPIRegTypethhh>

  Adafruit_BusIO_RegisterBits reset_bit =
      Adafruit_BusIO_RegisterBits(&pwr_mgmt1, 1, 7);
 800191c:	f107 0114 	add.w	r1, r7, #20
 8001920:	f107 000c 	add.w	r0, r7, #12
 8001924:	2307      	movs	r3, #7
 8001926:	2201      	movs	r2, #1
 8001928:	f7ff fafc 	bl	8000f24 <_ZN27Adafruit_BusIO_RegisterBitsC1EP23Adafruit_BusIO_Registerhh>

  reset_bit.write(1);
 800192c:	f107 030c 	add.w	r3, r7, #12
 8001930:	2101      	movs	r1, #1
 8001932:	4618      	mov	r0, r3
 8001934:	f7ff fb2e 	bl	8000f94 <_ZN27Adafruit_BusIO_RegisterBits5writeEm>
  HAL_Delay(20);
 8001938:	2014      	movs	r0, #20
 800193a:	f001 fe11 	bl	8003560 <HAL_Delay>

  while (reset_bit.read()) {
 800193e:	f107 030c 	add.w	r3, r7, #12
 8001942:	4618      	mov	r0, r3
 8001944:	f7ff fb09 	bl	8000f5a <_ZN27Adafruit_BusIO_RegisterBits4readEv>
 8001948:	4603      	mov	r3, r0
 800194a:	2b00      	cmp	r3, #0
 800194c:	bf14      	ite	ne
 800194e:	2301      	movne	r3, #1
 8001950:	2300      	moveq	r3, #0
 8001952:	b2db      	uxtb	r3, r3
 8001954:	2b00      	cmp	r3, #0
 8001956:	d003      	beq.n	8001960 <_ZN15Adafruit_ICM20X5resetEv+0x70>
    HAL_Delay(10);
 8001958:	200a      	movs	r0, #10
 800195a:	f001 fe01 	bl	8003560 <HAL_Delay>
  while (reset_bit.read()) {
 800195e:	e7ee      	b.n	800193e <_ZN15Adafruit_ICM20X5resetEv+0x4e>
  };
  HAL_Delay(50);
 8001960:	2032      	movs	r0, #50	; 0x32
 8001962:	f001 fdfd 	bl	8003560 <HAL_Delay>
}
 8001966:	bf00      	nop
 8001968:	3728      	adds	r7, #40	; 0x28
 800196a:	46bd      	mov	sp, r7
 800196c:	bd80      	pop	{r7, pc}

0800196e <_ZN15Adafruit_ICM20X5_initEl>:

/*!  @brief Initilizes the sensor
 *   @param sensor_id Optional unique ID for the sensor set
 *   @returns True if chip identified and initialized
 */
bool Adafruit_ICM20X::_init(int32_t sensor_id) {
 800196e:	b590      	push	{r4, r7, lr}
 8001970:	b095      	sub	sp, #84	; 0x54
 8001972:	af04      	add	r7, sp, #16
 8001974:	6078      	str	r0, [r7, #4]
 8001976:	6039      	str	r1, [r7, #0]

	  //Adafruit_BusIO_Register chip_id = Adafruit_BusIO_Register(
	  //    i2c_dev, spi_dev, ADDRBIT8_HIGH_TOREAD, ICM20X_B0_WHOAMI);

  Adafruit_BusIO_Register chip_id = Adafruit_BusIO_Register(
      i2c_dev, ADDRBIT8_HIGH_TOREAD, ICM20X_B0_WHOAMI);
 8001978:	687b      	ldr	r3, [r7, #4]
 800197a:	6ad9      	ldr	r1, [r3, #44]	; 0x2c
 800197c:	f107 0028 	add.w	r0, r7, #40	; 0x28
 8001980:	2301      	movs	r3, #1
 8001982:	9302      	str	r3, [sp, #8]
 8001984:	2300      	movs	r3, #0
 8001986:	9301      	str	r3, [sp, #4]
 8001988:	2301      	movs	r3, #1
 800198a:	9300      	str	r3, [sp, #0]
 800198c:	2300      	movs	r3, #0
 800198e:	2200      	movs	r2, #0
 8001990:	f7ff f9c2 	bl	8000d18 <_ZN23Adafruit_BusIO_RegisterC1EP18Adafruit_I2CDevice26_Adafruit_BusIO_SPIRegTypethhh>

  _setBank(0);
 8001994:	2100      	movs	r1, #0
 8001996:	6878      	ldr	r0, [r7, #4]
 8001998:	f000 fa35 	bl	8001e06 <_ZN15Adafruit_ICM20X8_setBankEh>
  uint8_t chip_id_ = chip_id.read();
 800199c:	f107 0328 	add.w	r3, r7, #40	; 0x28
 80019a0:	4618      	mov	r0, r3
 80019a2:	f7ff fa4d 	bl	8000e40 <_ZN23Adafruit_BusIO_Register4readEv>
 80019a6:	4603      	mov	r3, r0
 80019a8:	f887 303f 	strb.w	r3, [r7, #63]	; 0x3f
  // This returns true when using a 649 lib with a 948
  if ((chip_id_ != ICM20649_CHIP_ID) && (chip_id_ != ICM20948_CHIP_ID)) {
 80019ac:	f897 303f 	ldrb.w	r3, [r7, #63]	; 0x3f
 80019b0:	2be1      	cmp	r3, #225	; 0xe1
 80019b2:	d005      	beq.n	80019c0 <_ZN15Adafruit_ICM20X5_initEl+0x52>
 80019b4:	f897 303f 	ldrb.w	r3, [r7, #63]	; 0x3f
 80019b8:	2bea      	cmp	r3, #234	; 0xea
 80019ba:	d001      	beq.n	80019c0 <_ZN15Adafruit_ICM20X5_initEl+0x52>
    return false;
 80019bc:	2300      	movs	r3, #0
 80019be:	e078      	b.n	8001ab2 <_ZN15Adafruit_ICM20X5_initEl+0x144>
  }

  _sensorid_accel = sensor_id;
 80019c0:	683b      	ldr	r3, [r7, #0]
 80019c2:	b29a      	uxth	r2, r3
 80019c4:	687b      	ldr	r3, [r7, #4]
 80019c6:	f8a3 2040 	strh.w	r2, [r3, #64]	; 0x40
  _sensorid_gyro = sensor_id + 1;
 80019ca:	683b      	ldr	r3, [r7, #0]
 80019cc:	b29b      	uxth	r3, r3
 80019ce:	3301      	adds	r3, #1
 80019d0:	b29a      	uxth	r2, r3
 80019d2:	687b      	ldr	r3, [r7, #4]
 80019d4:	f8a3 2042 	strh.w	r2, [r3, #66]	; 0x42
  _sensorid_mag = sensor_id + 2;
 80019d8:	683b      	ldr	r3, [r7, #0]
 80019da:	b29b      	uxth	r3, r3
 80019dc:	3302      	adds	r3, #2
 80019de:	b29a      	uxth	r2, r3
 80019e0:	687b      	ldr	r3, [r7, #4]
 80019e2:	f8a3 2044 	strh.w	r2, [r3, #68]	; 0x44
  _sensorid_temp = sensor_id + 3;
 80019e6:	683b      	ldr	r3, [r7, #0]
 80019e8:	b29b      	uxth	r3, r3
 80019ea:	3303      	adds	r3, #3
 80019ec:	b29a      	uxth	r2, r3
 80019ee:	687b      	ldr	r3, [r7, #4]
 80019f0:	f8a3 2046 	strh.w	r2, [r3, #70]	; 0x46

  reset();
 80019f4:	6878      	ldr	r0, [r7, #4]
 80019f6:	f7ff ff7b 	bl	80018f0 <_ZN15Adafruit_ICM20X5resetEv>

  //Adafruit_BusIO_Register pwr_mgmt_1 = Adafruit_BusIO_Register(
  //    i2c_dev, spi_dev, ADDRBIT8_HIGH_TOREAD, ICM20X_B0_PWR_MGMT_1);

  Adafruit_BusIO_Register pwr_mgmt_1 = Adafruit_BusIO_Register(
      i2c_dev, ADDRBIT8_HIGH_TOREAD, ICM20X_B0_PWR_MGMT_1);
 80019fa:	687b      	ldr	r3, [r7, #4]
 80019fc:	6ad9      	ldr	r1, [r3, #44]	; 0x2c
 80019fe:	f107 0014 	add.w	r0, r7, #20
 8001a02:	2301      	movs	r3, #1
 8001a04:	9302      	str	r3, [sp, #8]
 8001a06:	2300      	movs	r3, #0
 8001a08:	9301      	str	r3, [sp, #4]
 8001a0a:	2301      	movs	r3, #1
 8001a0c:	9300      	str	r3, [sp, #0]
 8001a0e:	2306      	movs	r3, #6
 8001a10:	2200      	movs	r2, #0
 8001a12:	f7ff f981 	bl	8000d18 <_ZN23Adafruit_BusIO_RegisterC1EP18Adafruit_I2CDevice26_Adafruit_BusIO_SPIRegTypethhh>

  Adafruit_BusIO_RegisterBits sleep =
      Adafruit_BusIO_RegisterBits(&pwr_mgmt_1, 1, 6);
 8001a16:	f107 0114 	add.w	r1, r7, #20
 8001a1a:	f107 000c 	add.w	r0, r7, #12
 8001a1e:	2306      	movs	r3, #6
 8001a20:	2201      	movs	r2, #1
 8001a22:	f7ff fa7f 	bl	8000f24 <_ZN27Adafruit_BusIO_RegisterBitsC1EP23Adafruit_BusIO_Registerhh>
  sleep.write(false); // take out of default sleep state
 8001a26:	f107 030c 	add.w	r3, r7, #12
 8001a2a:	2100      	movs	r1, #0
 8001a2c:	4618      	mov	r0, r3
 8001a2e:	f7ff fab1 	bl	8000f94 <_ZN27Adafruit_BusIO_RegisterBits5writeEm>

  // 3 will be the largest range for either sensor
  writeGyroRange(3);
 8001a32:	2103      	movs	r1, #3
 8001a34:	6878      	ldr	r0, [r7, #4]
 8001a36:	f000 fa9b 	bl	8001f70 <_ZN15Adafruit_ICM20X14writeGyroRangeEh>
  writeAccelRange(3);
 8001a3a:	2103      	movs	r1, #3
 8001a3c:	6878      	ldr	r0, [r7, #4]
 8001a3e:	f000 fa34 	bl	8001eaa <_ZN15Adafruit_ICM20X15writeAccelRangeEh>

  // 1100Hz/(1+10) = 100Hz
  setGyroRateDivisor(10);
 8001a42:	210a      	movs	r1, #10
 8001a44:	6878      	ldr	r0, [r7, #4]
 8001a46:	f000 fb39 	bl	80020bc <_ZN15Adafruit_ICM20X18setGyroRateDivisorEh>

  // # 1125Hz/(1+20) = 53.57Hz
  setAccelRateDivisor(20);
 8001a4a:	2114      	movs	r1, #20
 8001a4c:	6878      	ldr	r0, [r7, #4]
 8001a4e:	f000 fae8 	bl	8002022 <_ZN15Adafruit_ICM20X19setAccelRateDivisorEt>

  temp_sensor = new Adafruit_ICM20X_Temp(this);
 8001a52:	200c      	movs	r0, #12
 8001a54:	f004 fc54 	bl	8006300 <_Znwj>
 8001a58:	4603      	mov	r3, r0
 8001a5a:	461c      	mov	r4, r3
 8001a5c:	6879      	ldr	r1, [r7, #4]
 8001a5e:	4620      	mov	r0, r4
 8001a60:	f7ff feb8 	bl	80017d4 <_ZN20Adafruit_ICM20X_TempC1EP15Adafruit_ICM20X>
 8001a64:	687b      	ldr	r3, [r7, #4]
 8001a66:	63dc      	str	r4, [r3, #60]	; 0x3c
  accel_sensor = new Adafruit_ICM20X_Accelerometer(this);
 8001a68:	200c      	movs	r0, #12
 8001a6a:	f004 fc49 	bl	8006300 <_Znwj>
 8001a6e:	4603      	mov	r3, r0
 8001a70:	461c      	mov	r4, r3
 8001a72:	6879      	ldr	r1, [r7, #4]
 8001a74:	4620      	mov	r0, r4
 8001a76:	f7ff fe53 	bl	8001720 <_ZN29Adafruit_ICM20X_AccelerometerC1EP15Adafruit_ICM20X>
 8001a7a:	687b      	ldr	r3, [r7, #4]
 8001a7c:	631c      	str	r4, [r3, #48]	; 0x30
  gyro_sensor = new Adafruit_ICM20X_Gyro(this);
 8001a7e:	200c      	movs	r0, #12
 8001a80:	f004 fc3e 	bl	8006300 <_Znwj>
 8001a84:	4603      	mov	r3, r0
 8001a86:	461c      	mov	r4, r3
 8001a88:	6879      	ldr	r1, [r7, #4]
 8001a8a:	4620      	mov	r0, r4
 8001a8c:	f7ff fe66 	bl	800175c <_ZN20Adafruit_ICM20X_GyroC1EP15Adafruit_ICM20X>
 8001a90:	687b      	ldr	r3, [r7, #4]
 8001a92:	635c      	str	r4, [r3, #52]	; 0x34
  mag_sensor = new Adafruit_ICM20X_Magnetometer(this);
 8001a94:	200c      	movs	r0, #12
 8001a96:	f004 fc33 	bl	8006300 <_Znwj>
 8001a9a:	4603      	mov	r3, r0
 8001a9c:	461c      	mov	r4, r3
 8001a9e:	6879      	ldr	r1, [r7, #4]
 8001aa0:	4620      	mov	r0, r4
 8001aa2:	f7ff fe79 	bl	8001798 <_ZN28Adafruit_ICM20X_MagnetometerC1EP15Adafruit_ICM20X>
 8001aa6:	687b      	ldr	r3, [r7, #4]
 8001aa8:	639c      	str	r4, [r3, #56]	; 0x38
  HAL_Delay(20);
 8001aaa:	2014      	movs	r0, #20
 8001aac:	f001 fd58 	bl	8003560 <HAL_Delay>

  return true;
 8001ab0:	2301      	movs	r3, #1
}
 8001ab2:	4618      	mov	r0, r3
 8001ab4:	3744      	adds	r7, #68	; 0x44
 8001ab6:	46bd      	mov	sp, r7
 8001ab8:	bd90      	pop	{r4, r7, pc}

08001aba <_ZN15Adafruit_ICM20X8getEventEP15sensors_event_tS1_S1_S1_>:

    @return True on successful read
*/
/**************************************************************************/
bool Adafruit_ICM20X::getEvent(sensors_event_t *accel, sensors_event_t *gyro,
                               sensors_event_t *temp, sensors_event_t *mag) {
 8001aba:	b580      	push	{r7, lr}
 8001abc:	b086      	sub	sp, #24
 8001abe:	af00      	add	r7, sp, #0
 8001ac0:	60f8      	str	r0, [r7, #12]
 8001ac2:	60b9      	str	r1, [r7, #8]
 8001ac4:	607a      	str	r2, [r7, #4]
 8001ac6:	603b      	str	r3, [r7, #0]
  //uint32_t t = millis();
  uint32_t t = HAL_GetTick();
 8001ac8:	f001 fd3e 	bl	8003548 <HAL_GetTick>
 8001acc:	6178      	str	r0, [r7, #20]
  _read();
 8001ace:	68f8      	ldr	r0, [r7, #12]
 8001ad0:	f000 f8fc 	bl	8001ccc <_ZN15Adafruit_ICM20X5_readEv>

  // use helpers to fill in the events
  fillAccelEvent(accel, t);
 8001ad4:	697a      	ldr	r2, [r7, #20]
 8001ad6:	68b9      	ldr	r1, [r7, #8]
 8001ad8:	68f8      	ldr	r0, [r7, #12]
 8001ada:	f000 f817 	bl	8001b0c <_ZN15Adafruit_ICM20X14fillAccelEventEP15sensors_event_tm>
  fillGyroEvent(gyro, t);
 8001ade:	697a      	ldr	r2, [r7, #20]
 8001ae0:	6879      	ldr	r1, [r7, #4]
 8001ae2:	68f8      	ldr	r0, [r7, #12]
 8001ae4:	f000 f84e 	bl	8001b84 <_ZN15Adafruit_ICM20X13fillGyroEventEP15sensors_event_tm>
  fillTempEvent(temp, t);
 8001ae8:	697a      	ldr	r2, [r7, #20]
 8001aea:	6839      	ldr	r1, [r7, #0]
 8001aec:	68f8      	ldr	r0, [r7, #12]
 8001aee:	f000 f8af 	bl	8001c50 <_ZN15Adafruit_ICM20X13fillTempEventEP15sensors_event_tm>
  if (mag) {
 8001af2:	6a3b      	ldr	r3, [r7, #32]
 8001af4:	2b00      	cmp	r3, #0
 8001af6:	d004      	beq.n	8001b02 <_ZN15Adafruit_ICM20X8getEventEP15sensors_event_tS1_S1_S1_+0x48>
    fillMagEvent(mag, t);
 8001af8:	697a      	ldr	r2, [r7, #20]
 8001afa:	6a39      	ldr	r1, [r7, #32]
 8001afc:	68f8      	ldr	r0, [r7, #12]
 8001afe:	f000 f87d 	bl	8001bfc <_ZN15Adafruit_ICM20X12fillMagEventEP15sensors_event_tm>
  }

  return true;
 8001b02:	2301      	movs	r3, #1
}
 8001b04:	4618      	mov	r0, r3
 8001b06:	3718      	adds	r7, #24
 8001b08:	46bd      	mov	sp, r7
 8001b0a:	bd80      	pop	{r7, pc}

08001b0c <_ZN15Adafruit_ICM20X14fillAccelEventEP15sensors_event_tm>:

void Adafruit_ICM20X::fillAccelEvent(sensors_event_t *accel,
                                     uint32_t timestamp) {
 8001b0c:	b480      	push	{r7}
 8001b0e:	b085      	sub	sp, #20
 8001b10:	af00      	add	r7, sp, #0
 8001b12:	60f8      	str	r0, [r7, #12]
 8001b14:	60b9      	str	r1, [r7, #8]
 8001b16:	607a      	str	r2, [r7, #4]
  //memset(accel, 0, sizeof(sensors_event_t));
  accel->version = 1;
 8001b18:	68bb      	ldr	r3, [r7, #8]
 8001b1a:	2201      	movs	r2, #1
 8001b1c:	601a      	str	r2, [r3, #0]
  accel->sensor_id = _sensorid_accel;
 8001b1e:	68fb      	ldr	r3, [r7, #12]
 8001b20:	f8b3 3040 	ldrh.w	r3, [r3, #64]	; 0x40
 8001b24:	461a      	mov	r2, r3
 8001b26:	68bb      	ldr	r3, [r7, #8]
 8001b28:	605a      	str	r2, [r3, #4]
  accel->type = SENSOR_TYPE_ACCELEROMETER;
 8001b2a:	68bb      	ldr	r3, [r7, #8]
 8001b2c:	2201      	movs	r2, #1
 8001b2e:	609a      	str	r2, [r3, #8]
  accel->timestamp = timestamp;
 8001b30:	687a      	ldr	r2, [r7, #4]
 8001b32:	68bb      	ldr	r3, [r7, #8]
 8001b34:	611a      	str	r2, [r3, #16]

  accel->acceleration.x = accX * SENSORS_GRAVITY_EARTH;
 8001b36:	68fb      	ldr	r3, [r7, #12]
 8001b38:	edd3 7a02 	vldr	s15, [r3, #8]
 8001b3c:	ed9f 7a10 	vldr	s14, [pc, #64]	; 8001b80 <_ZN15Adafruit_ICM20X14fillAccelEventEP15sensors_event_tm+0x74>
 8001b40:	ee67 7a87 	vmul.f32	s15, s15, s14
 8001b44:	68bb      	ldr	r3, [r7, #8]
 8001b46:	edc3 7a05 	vstr	s15, [r3, #20]
  accel->acceleration.y = accY * SENSORS_GRAVITY_EARTH;
 8001b4a:	68fb      	ldr	r3, [r7, #12]
 8001b4c:	edd3 7a03 	vldr	s15, [r3, #12]
 8001b50:	ed9f 7a0b 	vldr	s14, [pc, #44]	; 8001b80 <_ZN15Adafruit_ICM20X14fillAccelEventEP15sensors_event_tm+0x74>
 8001b54:	ee67 7a87 	vmul.f32	s15, s15, s14
 8001b58:	68bb      	ldr	r3, [r7, #8]
 8001b5a:	edc3 7a06 	vstr	s15, [r3, #24]
  accel->acceleration.z = accZ * SENSORS_GRAVITY_EARTH;
 8001b5e:	68fb      	ldr	r3, [r7, #12]
 8001b60:	edd3 7a04 	vldr	s15, [r3, #16]
 8001b64:	ed9f 7a06 	vldr	s14, [pc, #24]	; 8001b80 <_ZN15Adafruit_ICM20X14fillAccelEventEP15sensors_event_tm+0x74>
 8001b68:	ee67 7a87 	vmul.f32	s15, s15, s14
 8001b6c:	68bb      	ldr	r3, [r7, #8]
 8001b6e:	edc3 7a07 	vstr	s15, [r3, #28]
}
 8001b72:	bf00      	nop
 8001b74:	3714      	adds	r7, #20
 8001b76:	46bd      	mov	sp, r7
 8001b78:	f85d 7b04 	ldr.w	r7, [sp], #4
 8001b7c:	4770      	bx	lr
 8001b7e:	bf00      	nop
 8001b80:	411ce80a 	.word	0x411ce80a

08001b84 <_ZN15Adafruit_ICM20X13fillGyroEventEP15sensors_event_tm>:

void Adafruit_ICM20X::fillGyroEvent(sensors_event_t *gyro, uint32_t timestamp) {
 8001b84:	b480      	push	{r7}
 8001b86:	b085      	sub	sp, #20
 8001b88:	af00      	add	r7, sp, #0
 8001b8a:	60f8      	str	r0, [r7, #12]
 8001b8c:	60b9      	str	r1, [r7, #8]
 8001b8e:	607a      	str	r2, [r7, #4]
  //memset(gyro, 0, sizeof(sensors_event_t));
  gyro->version = 1;
 8001b90:	68bb      	ldr	r3, [r7, #8]
 8001b92:	2201      	movs	r2, #1
 8001b94:	601a      	str	r2, [r3, #0]
  gyro->sensor_id = _sensorid_gyro;
 8001b96:	68fb      	ldr	r3, [r7, #12]
 8001b98:	f8b3 3042 	ldrh.w	r3, [r3, #66]	; 0x42
 8001b9c:	461a      	mov	r2, r3
 8001b9e:	68bb      	ldr	r3, [r7, #8]
 8001ba0:	605a      	str	r2, [r3, #4]
  gyro->type = SENSOR_TYPE_GYROSCOPE;
 8001ba2:	68bb      	ldr	r3, [r7, #8]
 8001ba4:	2204      	movs	r2, #4
 8001ba6:	609a      	str	r2, [r3, #8]
  gyro->timestamp = timestamp;
 8001ba8:	687a      	ldr	r2, [r7, #4]
 8001baa:	68bb      	ldr	r3, [r7, #8]
 8001bac:	611a      	str	r2, [r3, #16]
  gyro->gyro.x = gyroX * SENSORS_DPS_TO_RADS;
 8001bae:	68fb      	ldr	r3, [r7, #12]
 8001bb0:	edd3 7a05 	vldr	s15, [r3, #20]
 8001bb4:	ed9f 7a10 	vldr	s14, [pc, #64]	; 8001bf8 <_ZN15Adafruit_ICM20X13fillGyroEventEP15sensors_event_tm+0x74>
 8001bb8:	ee67 7a87 	vmul.f32	s15, s15, s14
 8001bbc:	68bb      	ldr	r3, [r7, #8]
 8001bbe:	edc3 7a05 	vstr	s15, [r3, #20]
  gyro->gyro.y = gyroY * SENSORS_DPS_TO_RADS;
 8001bc2:	68fb      	ldr	r3, [r7, #12]
 8001bc4:	edd3 7a06 	vldr	s15, [r3, #24]
 8001bc8:	ed9f 7a0b 	vldr	s14, [pc, #44]	; 8001bf8 <_ZN15Adafruit_ICM20X13fillGyroEventEP15sensors_event_tm+0x74>
 8001bcc:	ee67 7a87 	vmul.f32	s15, s15, s14
 8001bd0:	68bb      	ldr	r3, [r7, #8]
 8001bd2:	edc3 7a06 	vstr	s15, [r3, #24]
  gyro->gyro.z = gyroZ * SENSORS_DPS_TO_RADS;
 8001bd6:	68fb      	ldr	r3, [r7, #12]
 8001bd8:	edd3 7a07 	vldr	s15, [r3, #28]
 8001bdc:	ed9f 7a06 	vldr	s14, [pc, #24]	; 8001bf8 <_ZN15Adafruit_ICM20X13fillGyroEventEP15sensors_event_tm+0x74>
 8001be0:	ee67 7a87 	vmul.f32	s15, s15, s14
 8001be4:	68bb      	ldr	r3, [r7, #8]
 8001be6:	edc3 7a07 	vstr	s15, [r3, #28]
}
 8001bea:	bf00      	nop
 8001bec:	3714      	adds	r7, #20
 8001bee:	46bd      	mov	sp, r7
 8001bf0:	f85d 7b04 	ldr.w	r7, [sp], #4
 8001bf4:	4770      	bx	lr
 8001bf6:	bf00      	nop
 8001bf8:	3c8efa35 	.word	0x3c8efa35

08001bfc <_ZN15Adafruit_ICM20X12fillMagEventEP15sensors_event_tm>:

void Adafruit_ICM20X::fillMagEvent(sensors_event_t *mag, uint32_t timestamp) {
 8001bfc:	b480      	push	{r7}
 8001bfe:	b085      	sub	sp, #20
 8001c00:	af00      	add	r7, sp, #0
 8001c02:	60f8      	str	r0, [r7, #12]
 8001c04:	60b9      	str	r1, [r7, #8]
 8001c06:	607a      	str	r2, [r7, #4]
  //memset(mag, 0, sizeof(sensors_event_t));
  mag->version = 1;
 8001c08:	68bb      	ldr	r3, [r7, #8]
 8001c0a:	2201      	movs	r2, #1
 8001c0c:	601a      	str	r2, [r3, #0]
  mag->sensor_id = _sensorid_mag;
 8001c0e:	68fb      	ldr	r3, [r7, #12]
 8001c10:	f8b3 3044 	ldrh.w	r3, [r3, #68]	; 0x44
 8001c14:	461a      	mov	r2, r3
 8001c16:	68bb      	ldr	r3, [r7, #8]
 8001c18:	605a      	str	r2, [r3, #4]
  mag->type = SENSOR_TYPE_MAGNETIC_FIELD;
 8001c1a:	68bb      	ldr	r3, [r7, #8]
 8001c1c:	2202      	movs	r2, #2
 8001c1e:	609a      	str	r2, [r3, #8]
  mag->timestamp = timestamp;
 8001c20:	687a      	ldr	r2, [r7, #4]
 8001c22:	68bb      	ldr	r3, [r7, #8]
 8001c24:	611a      	str	r2, [r3, #16]
  mag->magnetic.x = magX; // magic number!
 8001c26:	68fb      	ldr	r3, [r7, #12]
 8001c28:	6a1a      	ldr	r2, [r3, #32]
 8001c2a:	68bb      	ldr	r3, [r7, #8]
 8001c2c:	615a      	str	r2, [r3, #20]
  mag->magnetic.y = magY;
 8001c2e:	68fb      	ldr	r3, [r7, #12]
 8001c30:	6a5a      	ldr	r2, [r3, #36]	; 0x24
 8001c32:	68bb      	ldr	r3, [r7, #8]
 8001c34:	619a      	str	r2, [r3, #24]
  mag->magnetic.z = magZ;
 8001c36:	68fb      	ldr	r3, [r7, #12]
 8001c38:	6a9a      	ldr	r2, [r3, #40]	; 0x28
 8001c3a:	68bb      	ldr	r3, [r7, #8]
 8001c3c:	61da      	str	r2, [r3, #28]
}
 8001c3e:	bf00      	nop
 8001c40:	3714      	adds	r7, #20
 8001c42:	46bd      	mov	sp, r7
 8001c44:	f85d 7b04 	ldr.w	r7, [sp], #4
 8001c48:	4770      	bx	lr
 8001c4a:	0000      	movs	r0, r0
 8001c4c:	0000      	movs	r0, r0
	...

08001c50 <_ZN15Adafruit_ICM20X13fillTempEventEP15sensors_event_tm>:

void Adafruit_ICM20X::fillTempEvent(sensors_event_t *temp, uint32_t timestamp) {
 8001c50:	b580      	push	{r7, lr}
 8001c52:	b084      	sub	sp, #16
 8001c54:	af00      	add	r7, sp, #0
 8001c56:	60f8      	str	r0, [r7, #12]
 8001c58:	60b9      	str	r1, [r7, #8]
 8001c5a:	607a      	str	r2, [r7, #4]

  //memset(temp, 0, sizeof(sensors_event_t));
  temp->version = sizeof(sensors_event_t);
 8001c5c:	68bb      	ldr	r3, [r7, #8]
 8001c5e:	2224      	movs	r2, #36	; 0x24
 8001c60:	601a      	str	r2, [r3, #0]
  temp->sensor_id = _sensorid_temp;
 8001c62:	68fb      	ldr	r3, [r7, #12]
 8001c64:	f8b3 3046 	ldrh.w	r3, [r3, #70]	; 0x46
 8001c68:	461a      	mov	r2, r3
 8001c6a:	68bb      	ldr	r3, [r7, #8]
 8001c6c:	605a      	str	r2, [r3, #4]
  temp->type = SENSOR_TYPE_AMBIENT_TEMPERATURE;
 8001c6e:	68bb      	ldr	r3, [r7, #8]
 8001c70:	220d      	movs	r2, #13
 8001c72:	609a      	str	r2, [r3, #8]
  temp->timestamp = timestamp;
 8001c74:	687a      	ldr	r2, [r7, #4]
 8001c76:	68bb      	ldr	r3, [r7, #8]
 8001c78:	611a      	str	r2, [r3, #16]
  temp->temperature = (temperature / 333.87) + 21.0;
 8001c7a:	68fb      	ldr	r3, [r7, #12]
 8001c7c:	685b      	ldr	r3, [r3, #4]
 8001c7e:	4618      	mov	r0, r3
 8001c80:	f7fe fc0e 	bl	80004a0 <__aeabi_f2d>
 8001c84:	a30f      	add	r3, pc, #60	; (adr r3, 8001cc4 <_ZN15Adafruit_ICM20X13fillTempEventEP15sensors_event_tm+0x74>)
 8001c86:	e9d3 2300 	ldrd	r2, r3, [r3]
 8001c8a:	f7fe fd8b 	bl	80007a4 <__aeabi_ddiv>
 8001c8e:	4602      	mov	r2, r0
 8001c90:	460b      	mov	r3, r1
 8001c92:	4610      	mov	r0, r2
 8001c94:	4619      	mov	r1, r3
 8001c96:	f04f 0200 	mov.w	r2, #0
 8001c9a:	4b09      	ldr	r3, [pc, #36]	; (8001cc0 <_ZN15Adafruit_ICM20X13fillTempEventEP15sensors_event_tm+0x70>)
 8001c9c:	f7fe faa2 	bl	80001e4 <__adddf3>
 8001ca0:	4602      	mov	r2, r0
 8001ca2:	460b      	mov	r3, r1
 8001ca4:	4610      	mov	r0, r2
 8001ca6:	4619      	mov	r1, r3
 8001ca8:	f7fe fe64 	bl	8000974 <__aeabi_d2f>
 8001cac:	4602      	mov	r2, r0
 8001cae:	68bb      	ldr	r3, [r7, #8]
 8001cb0:	615a      	str	r2, [r3, #20]
}
 8001cb2:	bf00      	nop
 8001cb4:	3710      	adds	r7, #16
 8001cb6:	46bd      	mov	sp, r7
 8001cb8:	bd80      	pop	{r7, pc}
 8001cba:	bf00      	nop
 8001cbc:	f3af 8000 	nop.w
 8001cc0:	40350000 	.word	0x40350000
 8001cc4:	851eb852 	.word	0x851eb852
 8001cc8:	4074ddeb 	.word	0x4074ddeb

08001ccc <_ZN15Adafruit_ICM20X5_readEv>:
/******************* Adafruit_Sensor functions *****************/
/*!
 *     @brief  Updates the measurement data for all sensors simultaneously
 */
/**************************************************************************/
void Adafruit_ICM20X::_read(void) {
 8001ccc:	b580      	push	{r7, lr}
 8001cce:	b092      	sub	sp, #72	; 0x48
 8001cd0:	af04      	add	r7, sp, #16
 8001cd2:	6078      	str	r0, [r7, #4]

  _setBank(0);
 8001cd4:	2100      	movs	r1, #0
 8001cd6:	6878      	ldr	r0, [r7, #4]
 8001cd8:	f000 f895 	bl	8001e06 <_ZN15Adafruit_ICM20X8_setBankEh>

  // reading 9 bytes of mag data to fetch the register that tells the mag we've
  // read all the data
  const uint8_t numbytes = 14 + 9; // Read Accel, gyro, temp, and 9 bytes of mag
 8001cdc:	2317      	movs	r3, #23
 8001cde:	f887 3037 	strb.w	r3, [r7, #55]	; 0x37

  //Adafruit_BusIO_Register data_reg = Adafruit_BusIO_Register(
  //    i2c_dev, spi_dev, ADDRBIT8_HIGH_TOREAD, ICM20X_B0_ACCEL_XOUT_H, numbytes);

  Adafruit_BusIO_Register data_reg = Adafruit_BusIO_Register(
      i2c_dev, ADDRBIT8_HIGH_TOREAD, ICM20X_B0_ACCEL_XOUT_H, numbytes);
 8001ce2:	687b      	ldr	r3, [r7, #4]
 8001ce4:	6ad9      	ldr	r1, [r3, #44]	; 0x2c
 8001ce6:	f107 0020 	add.w	r0, r7, #32
 8001cea:	2301      	movs	r3, #1
 8001cec:	9302      	str	r3, [sp, #8]
 8001cee:	2300      	movs	r3, #0
 8001cf0:	9301      	str	r3, [sp, #4]
 8001cf2:	2317      	movs	r3, #23
 8001cf4:	9300      	str	r3, [sp, #0]
 8001cf6:	232d      	movs	r3, #45	; 0x2d
 8001cf8:	2200      	movs	r2, #0
 8001cfa:	f7ff f80d 	bl	8000d18 <_ZN23Adafruit_BusIO_RegisterC1EP18Adafruit_I2CDevice26_Adafruit_BusIO_SPIRegTypethhh>

  uint8_t buffer[numbytes];
  data_reg.read(buffer, numbytes);
 8001cfe:	f107 0108 	add.w	r1, r7, #8
 8001d02:	f107 0320 	add.w	r3, r7, #32
 8001d06:	2217      	movs	r2, #23
 8001d08:	4618      	mov	r0, r3
 8001d0a:	f7ff f8e0 	bl	8000ece <_ZN23Adafruit_BusIO_Register4readEPhh>

  rawAccX = buffer[0] << 8 | buffer[1];
 8001d0e:	7a3b      	ldrb	r3, [r7, #8]
 8001d10:	021b      	lsls	r3, r3, #8
 8001d12:	b21a      	sxth	r2, r3
 8001d14:	7a7b      	ldrb	r3, [r7, #9]
 8001d16:	b21b      	sxth	r3, r3
 8001d18:	4313      	orrs	r3, r2
 8001d1a:	b21a      	sxth	r2, r3
 8001d1c:	687b      	ldr	r3, [r7, #4]
 8001d1e:	f8a3 2048 	strh.w	r2, [r3, #72]	; 0x48
  rawAccY = buffer[2] << 8 | buffer[3];
 8001d22:	7abb      	ldrb	r3, [r7, #10]
 8001d24:	021b      	lsls	r3, r3, #8
 8001d26:	b21a      	sxth	r2, r3
 8001d28:	7afb      	ldrb	r3, [r7, #11]
 8001d2a:	b21b      	sxth	r3, r3
 8001d2c:	4313      	orrs	r3, r2
 8001d2e:	b21a      	sxth	r2, r3
 8001d30:	687b      	ldr	r3, [r7, #4]
 8001d32:	f8a3 204a 	strh.w	r2, [r3, #74]	; 0x4a
  rawAccZ = buffer[4] << 8 | buffer[5];
 8001d36:	7b3b      	ldrb	r3, [r7, #12]
 8001d38:	021b      	lsls	r3, r3, #8
 8001d3a:	b21a      	sxth	r2, r3
 8001d3c:	7b7b      	ldrb	r3, [r7, #13]
 8001d3e:	b21b      	sxth	r3, r3
 8001d40:	4313      	orrs	r3, r2
 8001d42:	b21a      	sxth	r2, r3
 8001d44:	687b      	ldr	r3, [r7, #4]
 8001d46:	f8a3 204c 	strh.w	r2, [r3, #76]	; 0x4c

  rawGyroX = buffer[6] << 8 | buffer[7];
 8001d4a:	7bbb      	ldrb	r3, [r7, #14]
 8001d4c:	021b      	lsls	r3, r3, #8
 8001d4e:	b21a      	sxth	r2, r3
 8001d50:	7bfb      	ldrb	r3, [r7, #15]
 8001d52:	b21b      	sxth	r3, r3
 8001d54:	4313      	orrs	r3, r2
 8001d56:	b21a      	sxth	r2, r3
 8001d58:	687b      	ldr	r3, [r7, #4]
 8001d5a:	f8a3 2050 	strh.w	r2, [r3, #80]	; 0x50
  rawGyroY = buffer[8] << 8 | buffer[9];
 8001d5e:	7c3b      	ldrb	r3, [r7, #16]
 8001d60:	021b      	lsls	r3, r3, #8
 8001d62:	b21a      	sxth	r2, r3
 8001d64:	7c7b      	ldrb	r3, [r7, #17]
 8001d66:	b21b      	sxth	r3, r3
 8001d68:	4313      	orrs	r3, r2
 8001d6a:	b21a      	sxth	r2, r3
 8001d6c:	687b      	ldr	r3, [r7, #4]
 8001d6e:	f8a3 2052 	strh.w	r2, [r3, #82]	; 0x52
  rawGyroZ = buffer[10] << 8 | buffer[11];
 8001d72:	7cbb      	ldrb	r3, [r7, #18]
 8001d74:	021b      	lsls	r3, r3, #8
 8001d76:	b21a      	sxth	r2, r3
 8001d78:	7cfb      	ldrb	r3, [r7, #19]
 8001d7a:	b21b      	sxth	r3, r3
 8001d7c:	4313      	orrs	r3, r2
 8001d7e:	b21a      	sxth	r2, r3
 8001d80:	687b      	ldr	r3, [r7, #4]
 8001d82:	f8a3 2054 	strh.w	r2, [r3, #84]	; 0x54

  temperature = buffer[12] << 8 | buffer[13];
 8001d86:	7d3b      	ldrb	r3, [r7, #20]
 8001d88:	021b      	lsls	r3, r3, #8
 8001d8a:	7d7a      	ldrb	r2, [r7, #21]
 8001d8c:	4313      	orrs	r3, r2
 8001d8e:	ee07 3a90 	vmov	s15, r3
 8001d92:	eef8 7ae7 	vcvt.f32.s32	s15, s15
 8001d96:	687b      	ldr	r3, [r7, #4]
 8001d98:	edc3 7a01 	vstr	s15, [r3, #4]

  rawMagX = ((buffer[16] << 8) |
 8001d9c:	7e3b      	ldrb	r3, [r7, #24]
 8001d9e:	021b      	lsls	r3, r3, #8
 8001da0:	b21a      	sxth	r2, r3
             (buffer[15] & 0xFF)); // Mag data is read little endian
 8001da2:	7dfb      	ldrb	r3, [r7, #23]
 8001da4:	b21b      	sxth	r3, r3
  rawMagX = ((buffer[16] << 8) |
 8001da6:	4313      	orrs	r3, r2
 8001da8:	b21a      	sxth	r2, r3
 8001daa:	687b      	ldr	r3, [r7, #4]
 8001dac:	f8a3 2056 	strh.w	r2, [r3, #86]	; 0x56
  rawMagY = ((buffer[18] << 8) | (buffer[17] & 0xFF));
 8001db0:	7ebb      	ldrb	r3, [r7, #26]
 8001db2:	021b      	lsls	r3, r3, #8
 8001db4:	b21a      	sxth	r2, r3
 8001db6:	7e7b      	ldrb	r3, [r7, #25]
 8001db8:	b21b      	sxth	r3, r3
 8001dba:	4313      	orrs	r3, r2
 8001dbc:	b21a      	sxth	r2, r3
 8001dbe:	687b      	ldr	r3, [r7, #4]
 8001dc0:	f8a3 2058 	strh.w	r2, [r3, #88]	; 0x58
  rawMagZ = ((buffer[20] << 8) | (buffer[19] & 0xFF));
 8001dc4:	7f3b      	ldrb	r3, [r7, #28]
 8001dc6:	021b      	lsls	r3, r3, #8
 8001dc8:	b21a      	sxth	r2, r3
 8001dca:	7efb      	ldrb	r3, [r7, #27]
 8001dcc:	b21b      	sxth	r3, r3
 8001dce:	4313      	orrs	r3, r2
 8001dd0:	b21a      	sxth	r2, r3
 8001dd2:	687b      	ldr	r3, [r7, #4]
 8001dd4:	f8a3 205a 	strh.w	r2, [r3, #90]	; 0x5a

  scaleValues();
 8001dd8:	687b      	ldr	r3, [r7, #4]
 8001dda:	681b      	ldr	r3, [r3, #0]
 8001ddc:	681b      	ldr	r3, [r3, #0]
 8001dde:	6878      	ldr	r0, [r7, #4]
 8001de0:	4798      	blx	r3
  _setBank(0);
 8001de2:	2100      	movs	r1, #0
 8001de4:	6878      	ldr	r0, [r7, #4]
 8001de6:	f000 f80e 	bl	8001e06 <_ZN15Adafruit_ICM20X8_setBankEh>
}
 8001dea:	bf00      	nop
 8001dec:	3738      	adds	r7, #56	; 0x38
 8001dee:	46bd      	mov	sp, r7
 8001df0:	bd80      	pop	{r7, pc}

08001df2 <_ZN15Adafruit_ICM20X11scaleValuesEv>:
/*!
 * @brief Scales the raw variables based on the current measurement range
 *
 */
void Adafruit_ICM20X::scaleValues(void) {}
 8001df2:	b480      	push	{r7}
 8001df4:	b083      	sub	sp, #12
 8001df6:	af00      	add	r7, sp, #0
 8001df8:	6078      	str	r0, [r7, #4]
 8001dfa:	bf00      	nop
 8001dfc:	370c      	adds	r7, #12
 8001dfe:	46bd      	mov	sp, r7
 8001e00:	f85d 7b04 	ldr.w	r7, [sp], #4
 8001e04:	4770      	bx	lr

08001e06 <_ZN15Adafruit_ICM20X8_setBankEh>:
/*!
    @brief Sets register bank.
    @param  bank_number
          The bank to set to active
*/
void Adafruit_ICM20X::_setBank(uint8_t bank_number) {
 8001e06:	b580      	push	{r7, lr}
 8001e08:	b08c      	sub	sp, #48	; 0x30
 8001e0a:	af04      	add	r7, sp, #16
 8001e0c:	6078      	str	r0, [r7, #4]
 8001e0e:	460b      	mov	r3, r1
 8001e10:	70fb      	strb	r3, [r7, #3]

	  //Adafruit_BusIO_Register reg_bank_sel = Adafruit_BusIO_Register(
	  //    i2c_dev, spi_dev, ADDRBIT8_HIGH_TOREAD, ICM20X_B0_REG_BANK_SEL);

  Adafruit_BusIO_Register reg_bank_sel = Adafruit_BusIO_Register(
      i2c_dev, ADDRBIT8_HIGH_TOREAD, ICM20X_B0_REG_BANK_SEL);
 8001e12:	687b      	ldr	r3, [r7, #4]
 8001e14:	6ad9      	ldr	r1, [r3, #44]	; 0x2c
 8001e16:	f107 000c 	add.w	r0, r7, #12
 8001e1a:	2301      	movs	r3, #1
 8001e1c:	9302      	str	r3, [sp, #8]
 8001e1e:	2300      	movs	r3, #0
 8001e20:	9301      	str	r3, [sp, #4]
 8001e22:	2301      	movs	r3, #1
 8001e24:	9300      	str	r3, [sp, #0]
 8001e26:	237f      	movs	r3, #127	; 0x7f
 8001e28:	2200      	movs	r2, #0
 8001e2a:	f7fe ff75 	bl	8000d18 <_ZN23Adafruit_BusIO_RegisterC1EP18Adafruit_I2CDevice26_Adafruit_BusIO_SPIRegTypethhh>

  reg_bank_sel.write((bank_number & 0b11) << 4);
 8001e2e:	78fb      	ldrb	r3, [r7, #3]
 8001e30:	011b      	lsls	r3, r3, #4
 8001e32:	f003 0130 	and.w	r1, r3, #48	; 0x30
 8001e36:	f107 030c 	add.w	r3, r7, #12
 8001e3a:	2200      	movs	r2, #0
 8001e3c:	4618      	mov	r0, r3
 8001e3e:	f7fe ffb9 	bl	8000db4 <_ZN23Adafruit_BusIO_Register5writeEmh>
}
 8001e42:	bf00      	nop
 8001e44:	3720      	adds	r7, #32
 8001e46:	46bd      	mov	sp, r7
 8001e48:	bd80      	pop	{r7, pc}

08001e4a <_ZN15Adafruit_ICM20X14readAccelRangeEv>:
/**************************************************************************/
/*!
    @brief Get the accelerometer's measurement range.
    @returns The accelerometer's measurement range (`icm20x_accel_range_t`).
*/
uint8_t Adafruit_ICM20X::readAccelRange(void) {
 8001e4a:	b580      	push	{r7, lr}
 8001e4c:	b08e      	sub	sp, #56	; 0x38
 8001e4e:	af04      	add	r7, sp, #16
 8001e50:	6078      	str	r0, [r7, #4]
  _setBank(2);
 8001e52:	2102      	movs	r1, #2
 8001e54:	6878      	ldr	r0, [r7, #4]
 8001e56:	f7ff ffd6 	bl	8001e06 <_ZN15Adafruit_ICM20X8_setBankEh>

  //Adafruit_BusIO_Register accel_config_1 = Adafruit_BusIO_Register(
  //    i2c_dev, spi_dev, ADDRBIT8_HIGH_TOREAD, ICM20X_B2_ACCEL_CONFIG_1);

  Adafruit_BusIO_Register accel_config_1 = Adafruit_BusIO_Register(
      i2c_dev, ADDRBIT8_HIGH_TOREAD, ICM20X_B2_ACCEL_CONFIG_1);
 8001e5a:	687b      	ldr	r3, [r7, #4]
 8001e5c:	6ad9      	ldr	r1, [r3, #44]	; 0x2c
 8001e5e:	f107 0010 	add.w	r0, r7, #16
 8001e62:	2301      	movs	r3, #1
 8001e64:	9302      	str	r3, [sp, #8]
 8001e66:	2300      	movs	r3, #0
 8001e68:	9301      	str	r3, [sp, #4]
 8001e6a:	2301      	movs	r3, #1
 8001e6c:	9300      	str	r3, [sp, #0]
 8001e6e:	2314      	movs	r3, #20
 8001e70:	2200      	movs	r2, #0
 8001e72:	f7fe ff51 	bl	8000d18 <_ZN23Adafruit_BusIO_RegisterC1EP18Adafruit_I2CDevice26_Adafruit_BusIO_SPIRegTypethhh>

  Adafruit_BusIO_RegisterBits accel_range =
      Adafruit_BusIO_RegisterBits(&accel_config_1, 2, 1);
 8001e76:	f107 0110 	add.w	r1, r7, #16
 8001e7a:	f107 0008 	add.w	r0, r7, #8
 8001e7e:	2301      	movs	r3, #1
 8001e80:	2202      	movs	r2, #2
 8001e82:	f7ff f84f 	bl	8000f24 <_ZN27Adafruit_BusIO_RegisterBitsC1EP23Adafruit_BusIO_Registerhh>

  uint8_t range = accel_range.read();
 8001e86:	f107 0308 	add.w	r3, r7, #8
 8001e8a:	4618      	mov	r0, r3
 8001e8c:	f7ff f865 	bl	8000f5a <_ZN27Adafruit_BusIO_RegisterBits4readEv>
 8001e90:	4603      	mov	r3, r0
 8001e92:	f887 3027 	strb.w	r3, [r7, #39]	; 0x27
  _setBank(0);
 8001e96:	2100      	movs	r1, #0
 8001e98:	6878      	ldr	r0, [r7, #4]
 8001e9a:	f7ff ffb4 	bl	8001e06 <_ZN15Adafruit_ICM20X8_setBankEh>
  return range;
 8001e9e:	f897 3027 	ldrb.w	r3, [r7, #39]	; 0x27
}
 8001ea2:	4618      	mov	r0, r3
 8001ea4:	3728      	adds	r7, #40	; 0x28
 8001ea6:	46bd      	mov	sp, r7
 8001ea8:	bd80      	pop	{r7, pc}

08001eaa <_ZN15Adafruit_ICM20X15writeAccelRangeEh>:
    @brief Sets the accelerometer's measurement range.
    @param  new_accel_range
            Measurement range to be set. Must be an
            `icm20x_accel_range_t`.
*/
void Adafruit_ICM20X::writeAccelRange(uint8_t new_accel_range) {
 8001eaa:	b580      	push	{r7, lr}
 8001eac:	b08e      	sub	sp, #56	; 0x38
 8001eae:	af04      	add	r7, sp, #16
 8001eb0:	6078      	str	r0, [r7, #4]
 8001eb2:	460b      	mov	r3, r1
 8001eb4:	70fb      	strb	r3, [r7, #3]
  _setBank(2);
 8001eb6:	2102      	movs	r1, #2
 8001eb8:	6878      	ldr	r0, [r7, #4]
 8001eba:	f7ff ffa4 	bl	8001e06 <_ZN15Adafruit_ICM20X8_setBankEh>

  //Adafruit_BusIO_Register accel_config_1 = Adafruit_BusIO_Register(
  //    i2c_dev, spi_dev, ADDRBIT8_HIGH_TOREAD, ICM20X_B2_ACCEL_CONFIG_1);

  Adafruit_BusIO_Register accel_config_1 = Adafruit_BusIO_Register(
      i2c_dev, ADDRBIT8_HIGH_TOREAD, ICM20X_B2_ACCEL_CONFIG_1);
 8001ebe:	687b      	ldr	r3, [r7, #4]
 8001ec0:	6ad9      	ldr	r1, [r3, #44]	; 0x2c
 8001ec2:	f107 0014 	add.w	r0, r7, #20
 8001ec6:	2301      	movs	r3, #1
 8001ec8:	9302      	str	r3, [sp, #8]
 8001eca:	2300      	movs	r3, #0
 8001ecc:	9301      	str	r3, [sp, #4]
 8001ece:	2301      	movs	r3, #1
 8001ed0:	9300      	str	r3, [sp, #0]
 8001ed2:	2314      	movs	r3, #20
 8001ed4:	2200      	movs	r2, #0
 8001ed6:	f7fe ff1f 	bl	8000d18 <_ZN23Adafruit_BusIO_RegisterC1EP18Adafruit_I2CDevice26_Adafruit_BusIO_SPIRegTypethhh>

  Adafruit_BusIO_RegisterBits accel_range =
      Adafruit_BusIO_RegisterBits(&accel_config_1, 2, 1);
 8001eda:	f107 0114 	add.w	r1, r7, #20
 8001ede:	f107 000c 	add.w	r0, r7, #12
 8001ee2:	2301      	movs	r3, #1
 8001ee4:	2202      	movs	r2, #2
 8001ee6:	f7ff f81d 	bl	8000f24 <_ZN27Adafruit_BusIO_RegisterBitsC1EP23Adafruit_BusIO_Registerhh>

  accel_range.write(new_accel_range);
 8001eea:	78fa      	ldrb	r2, [r7, #3]
 8001eec:	f107 030c 	add.w	r3, r7, #12
 8001ef0:	4611      	mov	r1, r2
 8001ef2:	4618      	mov	r0, r3
 8001ef4:	f7ff f84e 	bl	8000f94 <_ZN27Adafruit_BusIO_RegisterBits5writeEm>
  current_accel_range = new_accel_range;
 8001ef8:	687b      	ldr	r3, [r7, #4]
 8001efa:	78fa      	ldrb	r2, [r7, #3]
 8001efc:	f883 205c 	strb.w	r2, [r3, #92]	; 0x5c

  _setBank(0);
 8001f00:	2100      	movs	r1, #0
 8001f02:	6878      	ldr	r0, [r7, #4]
 8001f04:	f7ff ff7f 	bl	8001e06 <_ZN15Adafruit_ICM20X8_setBankEh>
}
 8001f08:	bf00      	nop
 8001f0a:	3728      	adds	r7, #40	; 0x28
 8001f0c:	46bd      	mov	sp, r7
 8001f0e:	bd80      	pop	{r7, pc}

08001f10 <_ZN15Adafruit_ICM20X13readGyroRangeEv>:
/**************************************************************************/
/*!
    @brief Get the gyro's measurement range.
    @returns The gyro's measurement range (`icm20x_gyro_range_t`).
*/
uint8_t Adafruit_ICM20X::readGyroRange(void) {
 8001f10:	b580      	push	{r7, lr}
 8001f12:	b08e      	sub	sp, #56	; 0x38
 8001f14:	af04      	add	r7, sp, #16
 8001f16:	6078      	str	r0, [r7, #4]
  _setBank(2);
 8001f18:	2102      	movs	r1, #2
 8001f1a:	6878      	ldr	r0, [r7, #4]
 8001f1c:	f7ff ff73 	bl	8001e06 <_ZN15Adafruit_ICM20X8_setBankEh>

  //Adafruit_BusIO_Register gyro_config_1 = Adafruit_BusIO_Register(
  //    i2c_dev, spi_dev, ADDRBIT8_HIGH_TOREAD, ICM20X_B2_GYRO_CONFIG_1);

  Adafruit_BusIO_Register gyro_config_1 = Adafruit_BusIO_Register(
      i2c_dev, ADDRBIT8_HIGH_TOREAD, ICM20X_B2_GYRO_CONFIG_1);
 8001f20:	687b      	ldr	r3, [r7, #4]
 8001f22:	6ad9      	ldr	r1, [r3, #44]	; 0x2c
 8001f24:	f107 0010 	add.w	r0, r7, #16
 8001f28:	2301      	movs	r3, #1
 8001f2a:	9302      	str	r3, [sp, #8]
 8001f2c:	2300      	movs	r3, #0
 8001f2e:	9301      	str	r3, [sp, #4]
 8001f30:	2301      	movs	r3, #1
 8001f32:	9300      	str	r3, [sp, #0]
 8001f34:	2301      	movs	r3, #1
 8001f36:	2200      	movs	r2, #0
 8001f38:	f7fe feee 	bl	8000d18 <_ZN23Adafruit_BusIO_RegisterC1EP18Adafruit_I2CDevice26_Adafruit_BusIO_SPIRegTypethhh>

  Adafruit_BusIO_RegisterBits gyro_range =
      Adafruit_BusIO_RegisterBits(&gyro_config_1, 2, 1);
 8001f3c:	f107 0110 	add.w	r1, r7, #16
 8001f40:	f107 0008 	add.w	r0, r7, #8
 8001f44:	2301      	movs	r3, #1
 8001f46:	2202      	movs	r2, #2
 8001f48:	f7fe ffec 	bl	8000f24 <_ZN27Adafruit_BusIO_RegisterBitsC1EP23Adafruit_BusIO_Registerhh>

  uint8_t range = gyro_range.read();
 8001f4c:	f107 0308 	add.w	r3, r7, #8
 8001f50:	4618      	mov	r0, r3
 8001f52:	f7ff f802 	bl	8000f5a <_ZN27Adafruit_BusIO_RegisterBits4readEv>
 8001f56:	4603      	mov	r3, r0
 8001f58:	f887 3027 	strb.w	r3, [r7, #39]	; 0x27
  _setBank(0);
 8001f5c:	2100      	movs	r1, #0
 8001f5e:	6878      	ldr	r0, [r7, #4]
 8001f60:	f7ff ff51 	bl	8001e06 <_ZN15Adafruit_ICM20X8_setBankEh>
  return range;
 8001f64:	f897 3027 	ldrb.w	r3, [r7, #39]	; 0x27
}
 8001f68:	4618      	mov	r0, r3
 8001f6a:	3728      	adds	r7, #40	; 0x28
 8001f6c:	46bd      	mov	sp, r7
 8001f6e:	bd80      	pop	{r7, pc}

08001f70 <_ZN15Adafruit_ICM20X14writeGyroRangeEh>:
    @brief Sets the gyro's measurement range.
    @param  new_gyro_range
            Measurement range to be set. Must be an
            `icm20x_gyro_range_t`.
*/
void Adafruit_ICM20X::writeGyroRange(uint8_t new_gyro_range) {
 8001f70:	b580      	push	{r7, lr}
 8001f72:	b08e      	sub	sp, #56	; 0x38
 8001f74:	af04      	add	r7, sp, #16
 8001f76:	6078      	str	r0, [r7, #4]
 8001f78:	460b      	mov	r3, r1
 8001f7a:	70fb      	strb	r3, [r7, #3]
  _setBank(2);
 8001f7c:	2102      	movs	r1, #2
 8001f7e:	6878      	ldr	r0, [r7, #4]
 8001f80:	f7ff ff41 	bl	8001e06 <_ZN15Adafruit_ICM20X8_setBankEh>

  //Adafruit_BusIO_Register gyro_config_1 = Adafruit_BusIO_Register(
  //    i2c_dev, spi_dev, ADDRBIT8_HIGH_TOREAD, ICM20X_B2_GYRO_CONFIG_1);

  Adafruit_BusIO_Register gyro_config_1 = Adafruit_BusIO_Register(
      i2c_dev, ADDRBIT8_HIGH_TOREAD, ICM20X_B2_GYRO_CONFIG_1);
 8001f84:	687b      	ldr	r3, [r7, #4]
 8001f86:	6ad9      	ldr	r1, [r3, #44]	; 0x2c
 8001f88:	f107 0014 	add.w	r0, r7, #20
 8001f8c:	2301      	movs	r3, #1
 8001f8e:	9302      	str	r3, [sp, #8]
 8001f90:	2300      	movs	r3, #0
 8001f92:	9301      	str	r3, [sp, #4]
 8001f94:	2301      	movs	r3, #1
 8001f96:	9300      	str	r3, [sp, #0]
 8001f98:	2301      	movs	r3, #1
 8001f9a:	2200      	movs	r2, #0
 8001f9c:	f7fe febc 	bl	8000d18 <_ZN23Adafruit_BusIO_RegisterC1EP18Adafruit_I2CDevice26_Adafruit_BusIO_SPIRegTypethhh>

  Adafruit_BusIO_RegisterBits gyro_range =
      Adafruit_BusIO_RegisterBits(&gyro_config_1, 2, 1);
 8001fa0:	f107 0114 	add.w	r1, r7, #20
 8001fa4:	f107 000c 	add.w	r0, r7, #12
 8001fa8:	2301      	movs	r3, #1
 8001faa:	2202      	movs	r2, #2
 8001fac:	f7fe ffba 	bl	8000f24 <_ZN27Adafruit_BusIO_RegisterBitsC1EP23Adafruit_BusIO_Registerhh>

  gyro_range.write(new_gyro_range);
 8001fb0:	78fa      	ldrb	r2, [r7, #3]
 8001fb2:	f107 030c 	add.w	r3, r7, #12
 8001fb6:	4611      	mov	r1, r2
 8001fb8:	4618      	mov	r0, r3
 8001fba:	f7fe ffeb 	bl	8000f94 <_ZN27Adafruit_BusIO_RegisterBits5writeEm>
  current_gyro_range = new_gyro_range;
 8001fbe:	687b      	ldr	r3, [r7, #4]
 8001fc0:	78fa      	ldrb	r2, [r7, #3]
 8001fc2:	f883 205d 	strb.w	r2, [r3, #93]	; 0x5d
  _setBank(0);
 8001fc6:	2100      	movs	r1, #0
 8001fc8:	6878      	ldr	r0, [r7, #4]
 8001fca:	f7ff ff1c 	bl	8001e06 <_ZN15Adafruit_ICM20X8_setBankEh>
}
 8001fce:	bf00      	nop
 8001fd0:	3728      	adds	r7, #40	; 0x28
 8001fd2:	46bd      	mov	sp, r7
 8001fd4:	bd80      	pop	{r7, pc}

08001fd6 <_ZN15Adafruit_ICM20X19getAccelRateDivisorEv>:
/**************************************************************************/
/*!
    @brief Get the accelerometer's data rate divisor.
    @returns The accelerometer's data rate divisor (`uint8_t`).
*/
uint16_t Adafruit_ICM20X::getAccelRateDivisor(void) {
 8001fd6:	b580      	push	{r7, lr}
 8001fd8:	b08c      	sub	sp, #48	; 0x30
 8001fda:	af04      	add	r7, sp, #16
 8001fdc:	6078      	str	r0, [r7, #4]
  _setBank(2);
 8001fde:	2102      	movs	r1, #2
 8001fe0:	6878      	ldr	r0, [r7, #4]
 8001fe2:	f7ff ff10 	bl	8001e06 <_ZN15Adafruit_ICM20X8_setBankEh>
  //    Adafruit_BusIO_Register(i2c_dev, spi_dev, ADDRBIT8_HIGH_TOREAD,
  //                            ICM20X_B2_ACCEL_SMPLRT_DIV_1, 2, MSBFIRST);

  Adafruit_BusIO_Register accel_rate_divisor =
      Adafruit_BusIO_Register(i2c_dev, ADDRBIT8_HIGH_TOREAD,
                              ICM20X_B2_ACCEL_SMPLRT_DIV_1, 2, MSBFIRST);
 8001fe6:	687b      	ldr	r3, [r7, #4]
 8001fe8:	6ad9      	ldr	r1, [r3, #44]	; 0x2c
 8001fea:	f107 0008 	add.w	r0, r7, #8
 8001fee:	2301      	movs	r3, #1
 8001ff0:	9302      	str	r3, [sp, #8]
 8001ff2:	2301      	movs	r3, #1
 8001ff4:	9301      	str	r3, [sp, #4]
 8001ff6:	2302      	movs	r3, #2
 8001ff8:	9300      	str	r3, [sp, #0]
 8001ffa:	2310      	movs	r3, #16
 8001ffc:	2200      	movs	r2, #0
 8001ffe:	f7fe fe8b 	bl	8000d18 <_ZN23Adafruit_BusIO_RegisterC1EP18Adafruit_I2CDevice26_Adafruit_BusIO_SPIRegTypethhh>

  uint16_t divisor_val = accel_rate_divisor.read();
 8002002:	f107 0308 	add.w	r3, r7, #8
 8002006:	4618      	mov	r0, r3
 8002008:	f7fe ff1a 	bl	8000e40 <_ZN23Adafruit_BusIO_Register4readEv>
 800200c:	4603      	mov	r3, r0
 800200e:	83fb      	strh	r3, [r7, #30]

  _setBank(0);
 8002010:	2100      	movs	r1, #0
 8002012:	6878      	ldr	r0, [r7, #4]
 8002014:	f7ff fef7 	bl	8001e06 <_ZN15Adafruit_ICM20X8_setBankEh>
  return divisor_val;
 8002018:	8bfb      	ldrh	r3, [r7, #30]
}
 800201a:	4618      	mov	r0, r3
 800201c:	3720      	adds	r7, #32
 800201e:	46bd      	mov	sp, r7
 8002020:	bd80      	pop	{r7, pc}

08002022 <_ZN15Adafruit_ICM20X19setAccelRateDivisorEt>:
    @brief Sets the accelerometer's data rate divisor.
    @param  new_accel_divisor
            The accelerometer's data rate divisor (`uint16_t`). This 12-bit
   value must be <= 4095
*/
void Adafruit_ICM20X::setAccelRateDivisor(uint16_t new_accel_divisor) {
 8002022:	b580      	push	{r7, lr}
 8002024:	b08c      	sub	sp, #48	; 0x30
 8002026:	af04      	add	r7, sp, #16
 8002028:	6078      	str	r0, [r7, #4]
 800202a:	460b      	mov	r3, r1
 800202c:	807b      	strh	r3, [r7, #2]
  _setBank(2);
 800202e:	2102      	movs	r1, #2
 8002030:	6878      	ldr	r0, [r7, #4]
 8002032:	f7ff fee8 	bl	8001e06 <_ZN15Adafruit_ICM20X8_setBankEh>
  //    Adafruit_BusIO_Register(i2c_dev, spi_dev, ADDRBIT8_HIGH_TOREAD,
  //                            ICM20X_B2_ACCEL_SMPLRT_DIV_1, 2, MSBFIRST);

  Adafruit_BusIO_Register accel_rate_divisor =
      Adafruit_BusIO_Register(i2c_dev, ADDRBIT8_HIGH_TOREAD,
                              ICM20X_B2_ACCEL_SMPLRT_DIV_1, 2, MSBFIRST);
 8002036:	687b      	ldr	r3, [r7, #4]
 8002038:	6ad9      	ldr	r1, [r3, #44]	; 0x2c
 800203a:	f107 000c 	add.w	r0, r7, #12
 800203e:	2301      	movs	r3, #1
 8002040:	9302      	str	r3, [sp, #8]
 8002042:	2301      	movs	r3, #1
 8002044:	9301      	str	r3, [sp, #4]
 8002046:	2302      	movs	r3, #2
 8002048:	9300      	str	r3, [sp, #0]
 800204a:	2310      	movs	r3, #16
 800204c:	2200      	movs	r2, #0
 800204e:	f7fe fe63 	bl	8000d18 <_ZN23Adafruit_BusIO_RegisterC1EP18Adafruit_I2CDevice26_Adafruit_BusIO_SPIRegTypethhh>

  accel_rate_divisor.write(new_accel_divisor);
 8002052:	8879      	ldrh	r1, [r7, #2]
 8002054:	f107 030c 	add.w	r3, r7, #12
 8002058:	2200      	movs	r2, #0
 800205a:	4618      	mov	r0, r3
 800205c:	f7fe feaa 	bl	8000db4 <_ZN23Adafruit_BusIO_Register5writeEmh>
  _setBank(0);
 8002060:	2100      	movs	r1, #0
 8002062:	6878      	ldr	r0, [r7, #4]
 8002064:	f7ff fecf 	bl	8001e06 <_ZN15Adafruit_ICM20X8_setBankEh>
}
 8002068:	bf00      	nop
 800206a:	3720      	adds	r7, #32
 800206c:	46bd      	mov	sp, r7
 800206e:	bd80      	pop	{r7, pc}

08002070 <_ZN15Adafruit_ICM20X18getGyroRateDivisorEv>:
/**************************************************************************/
/*!
    @brief Get the gyro's data rate divisor.
    @returns The gyro's data rate divisor (`uint8_t`).
*/
uint8_t Adafruit_ICM20X::getGyroRateDivisor(void) {
 8002070:	b580      	push	{r7, lr}
 8002072:	b08c      	sub	sp, #48	; 0x30
 8002074:	af04      	add	r7, sp, #16
 8002076:	6078      	str	r0, [r7, #4]
  _setBank(2);
 8002078:	2102      	movs	r1, #2
 800207a:	6878      	ldr	r0, [r7, #4]
 800207c:	f7ff fec3 	bl	8001e06 <_ZN15Adafruit_ICM20X8_setBankEh>

  //Adafruit_BusIO_Register gyro_rate_divisor = Adafruit_BusIO_Register(
  //    i2c_dev, spi_dev, ADDRBIT8_HIGH_TOREAD, ICM20X_B2_GYRO_SMPLRT_DIV, 1);

  Adafruit_BusIO_Register gyro_rate_divisor = Adafruit_BusIO_Register(
      i2c_dev, ADDRBIT8_HIGH_TOREAD, ICM20X_B2_GYRO_SMPLRT_DIV, 1);
 8002080:	687b      	ldr	r3, [r7, #4]
 8002082:	6ad9      	ldr	r1, [r3, #44]	; 0x2c
 8002084:	f107 0008 	add.w	r0, r7, #8
 8002088:	2301      	movs	r3, #1
 800208a:	9302      	str	r3, [sp, #8]
 800208c:	2300      	movs	r3, #0
 800208e:	9301      	str	r3, [sp, #4]
 8002090:	2301      	movs	r3, #1
 8002092:	9300      	str	r3, [sp, #0]
 8002094:	2300      	movs	r3, #0
 8002096:	2200      	movs	r2, #0
 8002098:	f7fe fe3e 	bl	8000d18 <_ZN23Adafruit_BusIO_RegisterC1EP18Adafruit_I2CDevice26_Adafruit_BusIO_SPIRegTypethhh>

  uint8_t divisor_val = gyro_rate_divisor.read();
 800209c:	f107 0308 	add.w	r3, r7, #8
 80020a0:	4618      	mov	r0, r3
 80020a2:	f7fe fecd 	bl	8000e40 <_ZN23Adafruit_BusIO_Register4readEv>
 80020a6:	4603      	mov	r3, r0
 80020a8:	77fb      	strb	r3, [r7, #31]

  _setBank(0);
 80020aa:	2100      	movs	r1, #0
 80020ac:	6878      	ldr	r0, [r7, #4]
 80020ae:	f7ff feaa 	bl	8001e06 <_ZN15Adafruit_ICM20X8_setBankEh>
  return divisor_val;
 80020b2:	7ffb      	ldrb	r3, [r7, #31]
}
 80020b4:	4618      	mov	r0, r3
 80020b6:	3720      	adds	r7, #32
 80020b8:	46bd      	mov	sp, r7
 80020ba:	bd80      	pop	{r7, pc}

080020bc <_ZN15Adafruit_ICM20X18setGyroRateDivisorEh>:

    @brief Sets the gyro's data rate divisor.
    @param  new_gyro_divisor
            The gyro's data rate divisor (`uint8_t`).
*/
void Adafruit_ICM20X::setGyroRateDivisor(uint8_t new_gyro_divisor) {
 80020bc:	b580      	push	{r7, lr}
 80020be:	b08c      	sub	sp, #48	; 0x30
 80020c0:	af04      	add	r7, sp, #16
 80020c2:	6078      	str	r0, [r7, #4]
 80020c4:	460b      	mov	r3, r1
 80020c6:	70fb      	strb	r3, [r7, #3]
  _setBank(2);
 80020c8:	2102      	movs	r1, #2
 80020ca:	6878      	ldr	r0, [r7, #4]
 80020cc:	f7ff fe9b 	bl	8001e06 <_ZN15Adafruit_ICM20X8_setBankEh>

  //Adafruit_BusIO_Register gyro_rate_divisor = Adafruit_BusIO_Register(
  //    i2c_dev, spi_dev, ADDRBIT8_HIGH_TOREAD, ICM20X_B2_GYRO_SMPLRT_DIV, 1);

  Adafruit_BusIO_Register gyro_rate_divisor = Adafruit_BusIO_Register(
      i2c_dev, ADDRBIT8_HIGH_TOREAD, ICM20X_B2_GYRO_SMPLRT_DIV, 1);
 80020d0:	687b      	ldr	r3, [r7, #4]
 80020d2:	6ad9      	ldr	r1, [r3, #44]	; 0x2c
 80020d4:	f107 000c 	add.w	r0, r7, #12
 80020d8:	2301      	movs	r3, #1
 80020da:	9302      	str	r3, [sp, #8]
 80020dc:	2300      	movs	r3, #0
 80020de:	9301      	str	r3, [sp, #4]
 80020e0:	2301      	movs	r3, #1
 80020e2:	9300      	str	r3, [sp, #0]
 80020e4:	2300      	movs	r3, #0
 80020e6:	2200      	movs	r2, #0
 80020e8:	f7fe fe16 	bl	8000d18 <_ZN23Adafruit_BusIO_RegisterC1EP18Adafruit_I2CDevice26_Adafruit_BusIO_SPIRegTypethhh>

  gyro_rate_divisor.write(new_gyro_divisor);
 80020ec:	78f9      	ldrb	r1, [r7, #3]
 80020ee:	f107 030c 	add.w	r3, r7, #12
 80020f2:	2200      	movs	r2, #0
 80020f4:	4618      	mov	r0, r3
 80020f6:	f7fe fe5d 	bl	8000db4 <_ZN23Adafruit_BusIO_Register5writeEmh>
  _setBank(0);
 80020fa:	2100      	movs	r1, #0
 80020fc:	6878      	ldr	r0, [r7, #4]
 80020fe:	f7ff fe82 	bl	8001e06 <_ZN15Adafruit_ICM20X8_setBankEh>
}
 8002102:	bf00      	nop
 8002104:	3720      	adds	r7, #32
 8002106:	46bd      	mov	sp, r7
 8002108:	bd80      	pop	{r7, pc}

0800210a <_ZN15Adafruit_ICM20X12setI2CBypassEb>:
 *
 * @param bypass_i2c Set to true to bypass the internal I2C master circuitry,
 * connecting the external I2C bus to the main I2C bus. Set to false to
 * re-connect
 */
void Adafruit_ICM20X::setI2CBypass(bool bypass_i2c) {
 800210a:	b580      	push	{r7, lr}
 800210c:	b08e      	sub	sp, #56	; 0x38
 800210e:	af04      	add	r7, sp, #16
 8002110:	6078      	str	r0, [r7, #4]
 8002112:	460b      	mov	r3, r1
 8002114:	70fb      	strb	r3, [r7, #3]
  _setBank(0);
 8002116:	2100      	movs	r1, #0
 8002118:	6878      	ldr	r0, [r7, #4]
 800211a:	f7ff fe74 	bl	8001e06 <_ZN15Adafruit_ICM20X8_setBankEh>

  //Adafruit_BusIO_Register int_enable_1 = Adafruit_BusIO_Register(
  //    i2c_dev, spi_dev, ADDRBIT8_HIGH_TOREAD, ICM20X_B0_REG_INT_PIN_CFG);

  Adafruit_BusIO_Register int_enable_1 = Adafruit_BusIO_Register(
      i2c_dev, ADDRBIT8_HIGH_TOREAD, ICM20X_B0_REG_INT_PIN_CFG);
 800211e:	687b      	ldr	r3, [r7, #4]
 8002120:	6ad9      	ldr	r1, [r3, #44]	; 0x2c
 8002122:	f107 0014 	add.w	r0, r7, #20
 8002126:	2301      	movs	r3, #1
 8002128:	9302      	str	r3, [sp, #8]
 800212a:	2300      	movs	r3, #0
 800212c:	9301      	str	r3, [sp, #4]
 800212e:	2301      	movs	r3, #1
 8002130:	9300      	str	r3, [sp, #0]
 8002132:	230f      	movs	r3, #15
 8002134:	2200      	movs	r2, #0
 8002136:	f7fe fdef 	bl	8000d18 <_ZN23Adafruit_BusIO_RegisterC1EP18Adafruit_I2CDevice26_Adafruit_BusIO_SPIRegTypethhh>

  Adafruit_BusIO_RegisterBits i2c_bypass_enable =
      Adafruit_BusIO_RegisterBits(&int_enable_1, 1, 1);
 800213a:	f107 0114 	add.w	r1, r7, #20
 800213e:	f107 000c 	add.w	r0, r7, #12
 8002142:	2301      	movs	r3, #1
 8002144:	2201      	movs	r2, #1
 8002146:	f7fe feed 	bl	8000f24 <_ZN27Adafruit_BusIO_RegisterBitsC1EP23Adafruit_BusIO_Registerhh>

  i2c_bypass_enable.write(bypass_i2c);
 800214a:	78fa      	ldrb	r2, [r7, #3]
 800214c:	f107 030c 	add.w	r3, r7, #12
 8002150:	4611      	mov	r1, r2
 8002152:	4618      	mov	r0, r3
 8002154:	f7fe ff1e 	bl	8000f94 <_ZN27Adafruit_BusIO_RegisterBits5writeEm>
}
 8002158:	bf00      	nop
 800215a:	3728      	adds	r7, #40	; 0x28
 800215c:	46bd      	mov	sp, r7
 800215e:	bd80      	pop	{r7, pc}

08002160 <_ZN15Adafruit_ICM20X15enableI2CMasterEb>:
 *
 * @param enable_i2c_master true: enable false: disable
 *
 * @return true: success false: error
 */
bool Adafruit_ICM20X::enableI2CMaster(bool enable_i2c_master) {
 8002160:	b580      	push	{r7, lr}
 8002162:	b08e      	sub	sp, #56	; 0x38
 8002164:	af04      	add	r7, sp, #16
 8002166:	6078      	str	r0, [r7, #4]
 8002168:	460b      	mov	r3, r1
 800216a:	70fb      	strb	r3, [r7, #3]
  _setBank(0);
 800216c:	2100      	movs	r1, #0
 800216e:	6878      	ldr	r0, [r7, #4]
 8002170:	f7ff fe49 	bl	8001e06 <_ZN15Adafruit_ICM20X8_setBankEh>

  //Adafruit_BusIO_Register user_ctrl_reg = Adafruit_BusIO_Register(
  //    i2c_dev, spi_dev, ADDRBIT8_HIGH_TOREAD, ICM20X_B0_USER_CTRL);

  Adafruit_BusIO_Register user_ctrl_reg = Adafruit_BusIO_Register(
      i2c_dev, ADDRBIT8_HIGH_TOREAD, ICM20X_B0_USER_CTRL);
 8002174:	687b      	ldr	r3, [r7, #4]
 8002176:	6ad9      	ldr	r1, [r3, #44]	; 0x2c
 8002178:	f107 0014 	add.w	r0, r7, #20
 800217c:	2301      	movs	r3, #1
 800217e:	9302      	str	r3, [sp, #8]
 8002180:	2300      	movs	r3, #0
 8002182:	9301      	str	r3, [sp, #4]
 8002184:	2301      	movs	r3, #1
 8002186:	9300      	str	r3, [sp, #0]
 8002188:	2303      	movs	r3, #3
 800218a:	2200      	movs	r2, #0
 800218c:	f7fe fdc4 	bl	8000d18 <_ZN23Adafruit_BusIO_RegisterC1EP18Adafruit_I2CDevice26_Adafruit_BusIO_SPIRegTypethhh>

  Adafruit_BusIO_RegisterBits i2c_master_enable_bit =
      Adafruit_BusIO_RegisterBits(&user_ctrl_reg, 1, 5);
 8002190:	f107 0114 	add.w	r1, r7, #20
 8002194:	f107 000c 	add.w	r0, r7, #12
 8002198:	2305      	movs	r3, #5
 800219a:	2201      	movs	r2, #1
 800219c:	f7fe fec2 	bl	8000f24 <_ZN27Adafruit_BusIO_RegisterBitsC1EP23Adafruit_BusIO_Registerhh>
  return i2c_master_enable_bit.write(enable_i2c_master);
 80021a0:	78fa      	ldrb	r2, [r7, #3]
 80021a2:	f107 030c 	add.w	r3, r7, #12
 80021a6:	4611      	mov	r1, r2
 80021a8:	4618      	mov	r0, r3
 80021aa:	f7fe fef3 	bl	8000f94 <_ZN27Adafruit_BusIO_RegisterBits5writeEm>
 80021ae:	4603      	mov	r3, r0
}
 80021b0:	4618      	mov	r0, r3
 80021b2:	3728      	adds	r7, #40	; 0x28
 80021b4:	46bd      	mov	sp, r7
 80021b6:	bd80      	pop	{r7, pc}

080021b8 <_ZN15Adafruit_ICM20X18configureI2CMasterEv>:
 * @brief Set the I2C clock rate for the auxillary I2C bus to 345.60kHz and
 * disable repeated start
 *
 * @return true: success false: failure
 */
bool Adafruit_ICM20X::configureI2CMaster(void) {
 80021b8:	b580      	push	{r7, lr}
 80021ba:	b08c      	sub	sp, #48	; 0x30
 80021bc:	af04      	add	r7, sp, #16
 80021be:	6078      	str	r0, [r7, #4]

  _setBank(3);
 80021c0:	2103      	movs	r1, #3
 80021c2:	6878      	ldr	r0, [r7, #4]
 80021c4:	f7ff fe1f 	bl	8001e06 <_ZN15Adafruit_ICM20X8_setBankEh>

  //Adafruit_BusIO_Register i2c_master_ctrl_reg = Adafruit_BusIO_Register(
  //    i2c_dev, spi_dev, ADDRBIT8_HIGH_TOREAD, ICM20X_B3_I2C_MST_CTRL);

  Adafruit_BusIO_Register i2c_master_ctrl_reg = Adafruit_BusIO_Register(
      i2c_dev, ADDRBIT8_HIGH_TOREAD, ICM20X_B3_I2C_MST_CTRL);
 80021c8:	687b      	ldr	r3, [r7, #4]
 80021ca:	6ad9      	ldr	r1, [r3, #44]	; 0x2c
 80021cc:	f107 000c 	add.w	r0, r7, #12
 80021d0:	2301      	movs	r3, #1
 80021d2:	9302      	str	r3, [sp, #8]
 80021d4:	2300      	movs	r3, #0
 80021d6:	9301      	str	r3, [sp, #4]
 80021d8:	2301      	movs	r3, #1
 80021da:	9300      	str	r3, [sp, #0]
 80021dc:	2301      	movs	r3, #1
 80021de:	2200      	movs	r2, #0
 80021e0:	f7fe fd9a 	bl	8000d18 <_ZN23Adafruit_BusIO_RegisterC1EP18Adafruit_I2CDevice26_Adafruit_BusIO_SPIRegTypethhh>

  return i2c_master_ctrl_reg.write(0x17);
 80021e4:	f107 030c 	add.w	r3, r7, #12
 80021e8:	2200      	movs	r2, #0
 80021ea:	2117      	movs	r1, #23
 80021ec:	4618      	mov	r0, r3
 80021ee:	f7fe fde1 	bl	8000db4 <_ZN23Adafruit_BusIO_Register5writeEmh>
 80021f2:	4603      	mov	r3, r0
}
 80021f4:	4618      	mov	r0, r3
 80021f6:	3720      	adds	r7, #32
 80021f8:	46bd      	mov	sp, r7
 80021fa:	bd80      	pop	{r7, pc}

080021fc <_ZN15Adafruit_ICM20X20readExternalRegisterEhh>:
 * @param slv_addr the 7-bit I2C address of the slave device
 * @param reg_addr the register address to read from
 * @return the requested register value
 */
uint8_t Adafruit_ICM20X::readExternalRegister(uint8_t slv_addr,
                                              uint8_t reg_addr) {
 80021fc:	b580      	push	{r7, lr}
 80021fe:	b084      	sub	sp, #16
 8002200:	af02      	add	r7, sp, #8
 8002202:	6078      	str	r0, [r7, #4]
 8002204:	460b      	mov	r3, r1
 8002206:	70fb      	strb	r3, [r7, #3]
 8002208:	4613      	mov	r3, r2
 800220a:	70bb      	strb	r3, [r7, #2]

  return auxillaryRegisterTransaction(true, slv_addr, reg_addr);
 800220c:	78bb      	ldrb	r3, [r7, #2]
 800220e:	78fa      	ldrb	r2, [r7, #3]
 8002210:	21ff      	movs	r1, #255	; 0xff
 8002212:	9100      	str	r1, [sp, #0]
 8002214:	2101      	movs	r1, #1
 8002216:	6878      	ldr	r0, [r7, #4]
 8002218:	f000 f825 	bl	8002266 <_ZN15Adafruit_ICM20X28auxillaryRegisterTransactionEbhhh>
 800221c:	4603      	mov	r3, r0
}
 800221e:	4618      	mov	r0, r3
 8002220:	3708      	adds	r7, #8
 8002222:	46bd      	mov	sp, r7
 8002224:	bd80      	pop	{r7, pc}

08002226 <_ZN15Adafruit_ICM20X21writeExternalRegisterEhhh>:
 * @param value the value to write
 * @return true
 * @return false
 */
bool Adafruit_ICM20X::writeExternalRegister(uint8_t slv_addr, uint8_t reg_addr,
                                            uint8_t value) {
 8002226:	b580      	push	{r7, lr}
 8002228:	b084      	sub	sp, #16
 800222a:	af02      	add	r7, sp, #8
 800222c:	6078      	str	r0, [r7, #4]
 800222e:	4608      	mov	r0, r1
 8002230:	4611      	mov	r1, r2
 8002232:	461a      	mov	r2, r3
 8002234:	4603      	mov	r3, r0
 8002236:	70fb      	strb	r3, [r7, #3]
 8002238:	460b      	mov	r3, r1
 800223a:	70bb      	strb	r3, [r7, #2]
 800223c:	4613      	mov	r3, r2
 800223e:	707b      	strb	r3, [r7, #1]

  return (bool)auxillaryRegisterTransaction(false, slv_addr, reg_addr, value);
 8002240:	78b9      	ldrb	r1, [r7, #2]
 8002242:	78fa      	ldrb	r2, [r7, #3]
 8002244:	787b      	ldrb	r3, [r7, #1]
 8002246:	9300      	str	r3, [sp, #0]
 8002248:	460b      	mov	r3, r1
 800224a:	2100      	movs	r1, #0
 800224c:	6878      	ldr	r0, [r7, #4]
 800224e:	f000 f80a 	bl	8002266 <_ZN15Adafruit_ICM20X28auxillaryRegisterTransactionEbhhh>
 8002252:	4603      	mov	r3, r0
 8002254:	2b00      	cmp	r3, #0
 8002256:	bf14      	ite	ne
 8002258:	2301      	movne	r3, #1
 800225a:	2300      	moveq	r3, #0
 800225c:	b2db      	uxtb	r3, r3
}
 800225e:	4618      	mov	r0, r3
 8002260:	3708      	adds	r7, #8
 8002262:	46bd      	mov	sp, r7
 8002264:	bd80      	pop	{r7, pc}

08002266 <_ZN15Adafruit_ICM20X28auxillaryRegisterTransactionEbhhh>:
 * @return false
 */
uint8_t Adafruit_ICM20X::auxillaryRegisterTransaction(bool read,
                                                      uint8_t slv_addr,
                                                      uint8_t reg_addr,
                                                      uint8_t value) {
 8002266:	b590      	push	{r4, r7, lr}
 8002268:	b0a1      	sub	sp, #132	; 0x84
 800226a:	af04      	add	r7, sp, #16
 800226c:	6078      	str	r0, [r7, #4]
 800226e:	4608      	mov	r0, r1
 8002270:	4611      	mov	r1, r2
 8002272:	461a      	mov	r2, r3
 8002274:	4603      	mov	r3, r0
 8002276:	70fb      	strb	r3, [r7, #3]
 8002278:	460b      	mov	r3, r1
 800227a:	70bb      	strb	r3, [r7, #2]
 800227c:	4613      	mov	r3, r2
 800227e:	707b      	strb	r3, [r7, #1]

  _setBank(3);
 8002280:	2103      	movs	r1, #3
 8002282:	6878      	ldr	r0, [r7, #4]
 8002284:	f7ff fdbf 	bl	8001e06 <_ZN15Adafruit_ICM20X8_setBankEh>

  Adafruit_BusIO_Register i2c_master_status_reg = Adafruit_BusIO_Register(
      i2c_dev, spi_dev, ADDRBIT8_HIGH_TOREAD, ICM20X_B0_I2C_MST_STATUS);*/

  Adafruit_BusIO_Register slv4_addr_reg = Adafruit_BusIO_Register(
      i2c_dev, ADDRBIT8_HIGH_TOREAD, ICM20X_B3_I2C_SLV4_ADDR);
 8002288:	687b      	ldr	r3, [r7, #4]
 800228a:	6ad9      	ldr	r1, [r3, #44]	; 0x2c
 800228c:	f107 0050 	add.w	r0, r7, #80	; 0x50
 8002290:	2301      	movs	r3, #1
 8002292:	9302      	str	r3, [sp, #8]
 8002294:	2300      	movs	r3, #0
 8002296:	9301      	str	r3, [sp, #4]
 8002298:	2301      	movs	r3, #1
 800229a:	9300      	str	r3, [sp, #0]
 800229c:	2313      	movs	r3, #19
 800229e:	2200      	movs	r2, #0
 80022a0:	f7fe fd3a 	bl	8000d18 <_ZN23Adafruit_BusIO_RegisterC1EP18Adafruit_I2CDevice26_Adafruit_BusIO_SPIRegTypethhh>

  Adafruit_BusIO_Register slv4_reg_reg = Adafruit_BusIO_Register(
      i2c_dev, ADDRBIT8_HIGH_TOREAD, ICM20X_B3_I2C_SLV4_REG);
 80022a4:	687b      	ldr	r3, [r7, #4]
 80022a6:	6ad9      	ldr	r1, [r3, #44]	; 0x2c
 80022a8:	f107 003c 	add.w	r0, r7, #60	; 0x3c
 80022ac:	2301      	movs	r3, #1
 80022ae:	9302      	str	r3, [sp, #8]
 80022b0:	2300      	movs	r3, #0
 80022b2:	9301      	str	r3, [sp, #4]
 80022b4:	2301      	movs	r3, #1
 80022b6:	9300      	str	r3, [sp, #0]
 80022b8:	2314      	movs	r3, #20
 80022ba:	2200      	movs	r2, #0
 80022bc:	f7fe fd2c 	bl	8000d18 <_ZN23Adafruit_BusIO_RegisterC1EP18Adafruit_I2CDevice26_Adafruit_BusIO_SPIRegTypethhh>

  Adafruit_BusIO_Register slv4_ctrl_reg = Adafruit_BusIO_Register(
      i2c_dev, ADDRBIT8_HIGH_TOREAD, ICM20X_B3_I2C_SLV4_CTRL);
 80022c0:	687b      	ldr	r3, [r7, #4]
 80022c2:	6ad9      	ldr	r1, [r3, #44]	; 0x2c
 80022c4:	f107 0028 	add.w	r0, r7, #40	; 0x28
 80022c8:	2301      	movs	r3, #1
 80022ca:	9302      	str	r3, [sp, #8]
 80022cc:	2300      	movs	r3, #0
 80022ce:	9301      	str	r3, [sp, #4]
 80022d0:	2301      	movs	r3, #1
 80022d2:	9300      	str	r3, [sp, #0]
 80022d4:	2315      	movs	r3, #21
 80022d6:	2200      	movs	r2, #0
 80022d8:	f7fe fd1e 	bl	8000d18 <_ZN23Adafruit_BusIO_RegisterC1EP18Adafruit_I2CDevice26_Adafruit_BusIO_SPIRegTypethhh>

  Adafruit_BusIO_Register i2c_master_status_reg = Adafruit_BusIO_Register(
      i2c_dev, ADDRBIT8_HIGH_TOREAD, ICM20X_B0_I2C_MST_STATUS);
 80022dc:	687b      	ldr	r3, [r7, #4]
 80022de:	6ad9      	ldr	r1, [r3, #44]	; 0x2c
 80022e0:	f107 0014 	add.w	r0, r7, #20
 80022e4:	2301      	movs	r3, #1
 80022e6:	9302      	str	r3, [sp, #8]
 80022e8:	2300      	movs	r3, #0
 80022ea:	9301      	str	r3, [sp, #4]
 80022ec:	2301      	movs	r3, #1
 80022ee:	9300      	str	r3, [sp, #0]
 80022f0:	2317      	movs	r3, #23
 80022f2:	2200      	movs	r2, #0
 80022f4:	f7fe fd10 	bl	8000d18 <_ZN23Adafruit_BusIO_RegisterC1EP18Adafruit_I2CDevice26_Adafruit_BusIO_SPIRegTypethhh>

  Adafruit_BusIO_RegisterBits slave_finished_bit =
      Adafruit_BusIO_RegisterBits(&i2c_master_status_reg, 1, 6);
 80022f8:	f107 0114 	add.w	r1, r7, #20
 80022fc:	f107 000c 	add.w	r0, r7, #12
 8002300:	2306      	movs	r3, #6
 8002302:	2201      	movs	r2, #1
 8002304:	f7fe fe0e 	bl	8000f24 <_ZN27Adafruit_BusIO_RegisterBitsC1EP23Adafruit_BusIO_Registerhh>

  if (read) {
 8002308:	78fb      	ldrb	r3, [r7, #3]
 800230a:	2b00      	cmp	r3, #0
 800230c:	d017      	beq.n	800233e <_ZN15Adafruit_ICM20X28auxillaryRegisterTransactionEbhhh+0xd8>
    slv_addr |= 0x80; // set high bit for read, presumably for multi-byte reads
 800230e:	78bb      	ldrb	r3, [r7, #2]
 8002310:	f063 037f 	orn	r3, r3, #127	; 0x7f
 8002314:	70bb      	strb	r3, [r7, #2]

    //slv4_di_reg = new Adafruit_BusIO_Register(
    //    i2c_dev, spi_dev, ADDRBIT8_HIGH_TOREAD, ICM20X_B3_I2C_SLV4_DI);

    slv4_di_reg = new Adafruit_BusIO_Register(
        i2c_dev, ADDRBIT8_HIGH_TOREAD, ICM20X_B3_I2C_SLV4_DI);
 8002316:	2014      	movs	r0, #20
 8002318:	f003 fff2 	bl	8006300 <_Znwj>
 800231c:	4603      	mov	r3, r0
 800231e:	461c      	mov	r4, r3
 8002320:	687b      	ldr	r3, [r7, #4]
 8002322:	6ad9      	ldr	r1, [r3, #44]	; 0x2c
 8002324:	2301      	movs	r3, #1
 8002326:	9302      	str	r3, [sp, #8]
 8002328:	2300      	movs	r3, #0
 800232a:	9301      	str	r3, [sp, #4]
 800232c:	2301      	movs	r3, #1
 800232e:	9300      	str	r3, [sp, #0]
 8002330:	2317      	movs	r3, #23
 8002332:	2200      	movs	r2, #0
 8002334:	4620      	mov	r0, r4
 8002336:	f7fe fcef 	bl	8000d18 <_ZN23Adafruit_BusIO_RegisterC1EP18Adafruit_I2CDevice26_Adafruit_BusIO_SPIRegTypethhh>
    slv4_di_reg = new Adafruit_BusIO_Register(
 800233a:	66fc      	str	r4, [r7, #108]	; 0x6c
 800233c:	e021      	b.n	8002382 <_ZN15Adafruit_ICM20X28auxillaryRegisterTransactionEbhhh+0x11c>

	    //slv4_do_reg = new Adafruit_BusIO_Register(
	    //    i2c_dev, spi_dev, ADDRBIT8_HIGH_TOREAD, ICM20X_B3_I2C_SLV4_DO);

    slv4_do_reg = new Adafruit_BusIO_Register(
        i2c_dev, ADDRBIT8_HIGH_TOREAD, ICM20X_B3_I2C_SLV4_DO);
 800233e:	2014      	movs	r0, #20
 8002340:	f003 ffde 	bl	8006300 <_Znwj>
 8002344:	4603      	mov	r3, r0
 8002346:	461c      	mov	r4, r3
 8002348:	687b      	ldr	r3, [r7, #4]
 800234a:	6ad9      	ldr	r1, [r3, #44]	; 0x2c
 800234c:	2301      	movs	r3, #1
 800234e:	9302      	str	r3, [sp, #8]
 8002350:	2300      	movs	r3, #0
 8002352:	9301      	str	r3, [sp, #4]
 8002354:	2301      	movs	r3, #1
 8002356:	9300      	str	r3, [sp, #0]
 8002358:	2316      	movs	r3, #22
 800235a:	2200      	movs	r2, #0
 800235c:	4620      	mov	r0, r4
 800235e:	f7fe fcdb 	bl	8000d18 <_ZN23Adafruit_BusIO_RegisterC1EP18Adafruit_I2CDevice26_Adafruit_BusIO_SPIRegTypethhh>
    slv4_do_reg = new Adafruit_BusIO_Register(
 8002362:	667c      	str	r4, [r7, #100]	; 0x64

    if (!slv4_do_reg->write(value)) {
 8002364:	f897 3080 	ldrb.w	r3, [r7, #128]	; 0x80
 8002368:	2200      	movs	r2, #0
 800236a:	4619      	mov	r1, r3
 800236c:	6e78      	ldr	r0, [r7, #100]	; 0x64
 800236e:	f7fe fd21 	bl	8000db4 <_ZN23Adafruit_BusIO_Register5writeEmh>
 8002372:	4603      	mov	r3, r0
 8002374:	f083 0301 	eor.w	r3, r3, #1
 8002378:	b2db      	uxtb	r3, r3
 800237a:	2b00      	cmp	r3, #0
 800237c:	d001      	beq.n	8002382 <_ZN15Adafruit_ICM20X28auxillaryRegisterTransactionEbhhh+0x11c>
      return (uint8_t) false;
 800237e:	2300      	movs	r3, #0
 8002380:	e059      	b.n	8002436 <_ZN15Adafruit_ICM20X28auxillaryRegisterTransactionEbhhh+0x1d0>
    }
  }

  if (!slv4_addr_reg.write(slv_addr)) {
 8002382:	78b9      	ldrb	r1, [r7, #2]
 8002384:	f107 0350 	add.w	r3, r7, #80	; 0x50
 8002388:	2200      	movs	r2, #0
 800238a:	4618      	mov	r0, r3
 800238c:	f7fe fd12 	bl	8000db4 <_ZN23Adafruit_BusIO_Register5writeEmh>
 8002390:	4603      	mov	r3, r0
 8002392:	f083 0301 	eor.w	r3, r3, #1
 8002396:	b2db      	uxtb	r3, r3
 8002398:	2b00      	cmp	r3, #0
 800239a:	d001      	beq.n	80023a0 <_ZN15Adafruit_ICM20X28auxillaryRegisterTransactionEbhhh+0x13a>
    return (uint8_t) false;
 800239c:	2300      	movs	r3, #0
 800239e:	e04a      	b.n	8002436 <_ZN15Adafruit_ICM20X28auxillaryRegisterTransactionEbhhh+0x1d0>
  }
  if (!slv4_reg_reg.write(reg_addr)) {
 80023a0:	7879      	ldrb	r1, [r7, #1]
 80023a2:	f107 033c 	add.w	r3, r7, #60	; 0x3c
 80023a6:	2200      	movs	r2, #0
 80023a8:	4618      	mov	r0, r3
 80023aa:	f7fe fd03 	bl	8000db4 <_ZN23Adafruit_BusIO_Register5writeEmh>
 80023ae:	4603      	mov	r3, r0
 80023b0:	f083 0301 	eor.w	r3, r3, #1
 80023b4:	b2db      	uxtb	r3, r3
 80023b6:	2b00      	cmp	r3, #0
 80023b8:	d001      	beq.n	80023be <_ZN15Adafruit_ICM20X28auxillaryRegisterTransactionEbhhh+0x158>
    return (uint8_t) false;
 80023ba:	2300      	movs	r3, #0
 80023bc:	e03b      	b.n	8002436 <_ZN15Adafruit_ICM20X28auxillaryRegisterTransactionEbhhh+0x1d0>
  }

  if (!slv4_ctrl_reg.write(0x80)) {
 80023be:	f107 0328 	add.w	r3, r7, #40	; 0x28
 80023c2:	2200      	movs	r2, #0
 80023c4:	2180      	movs	r1, #128	; 0x80
 80023c6:	4618      	mov	r0, r3
 80023c8:	f7fe fcf4 	bl	8000db4 <_ZN23Adafruit_BusIO_Register5writeEmh>
 80023cc:	4603      	mov	r3, r0
 80023ce:	f083 0301 	eor.w	r3, r3, #1
 80023d2:	b2db      	uxtb	r3, r3
 80023d4:	2b00      	cmp	r3, #0
 80023d6:	d001      	beq.n	80023dc <_ZN15Adafruit_ICM20X28auxillaryRegisterTransactionEbhhh+0x176>
    return (uint8_t) false;
 80023d8:	2300      	movs	r3, #0
 80023da:	e02c      	b.n	8002436 <_ZN15Adafruit_ICM20X28auxillaryRegisterTransactionEbhhh+0x1d0>
  }

  _setBank(0);
 80023dc:	2100      	movs	r1, #0
 80023de:	6878      	ldr	r0, [r7, #4]
 80023e0:	f7ff fd11 	bl	8001e06 <_ZN15Adafruit_ICM20X8_setBankEh>
  uint8_t tries = 0;
 80023e4:	2300      	movs	r3, #0
 80023e6:	f887 306b 	strb.w	r3, [r7, #107]	; 0x6b
  // wait until the operation is finished
  while (slave_finished_bit.read() != true) {
 80023ea:	f107 030c 	add.w	r3, r7, #12
 80023ee:	4618      	mov	r0, r3
 80023f0:	f7fe fdb3 	bl	8000f5a <_ZN27Adafruit_BusIO_RegisterBits4readEv>
 80023f4:	4603      	mov	r3, r0
 80023f6:	2b01      	cmp	r3, #1
 80023f8:	bf14      	ite	ne
 80023fa:	2301      	movne	r3, #1
 80023fc:	2300      	moveq	r3, #0
 80023fe:	b2db      	uxtb	r3, r3
 8002400:	2b00      	cmp	r3, #0
 8002402:	d00a      	beq.n	800241a <_ZN15Adafruit_ICM20X28auxillaryRegisterTransactionEbhhh+0x1b4>
    tries++;
 8002404:	f897 306b 	ldrb.w	r3, [r7, #107]	; 0x6b
 8002408:	3301      	adds	r3, #1
 800240a:	f887 306b 	strb.w	r3, [r7, #107]	; 0x6b
    if (tries >= NUM_FINISHED_CHECKS) {
 800240e:	f897 306b 	ldrb.w	r3, [r7, #107]	; 0x6b
 8002412:	2b63      	cmp	r3, #99	; 0x63
 8002414:	d9e9      	bls.n	80023ea <_ZN15Adafruit_ICM20X28auxillaryRegisterTransactionEbhhh+0x184>
      return (uint8_t) false;
 8002416:	2300      	movs	r3, #0
 8002418:	e00d      	b.n	8002436 <_ZN15Adafruit_ICM20X28auxillaryRegisterTransactionEbhhh+0x1d0>
    }
  }
  if (read) {
 800241a:	78fb      	ldrb	r3, [r7, #3]
 800241c:	2b00      	cmp	r3, #0
 800241e:	d009      	beq.n	8002434 <_ZN15Adafruit_ICM20X28auxillaryRegisterTransactionEbhhh+0x1ce>
    _setBank(3);
 8002420:	2103      	movs	r1, #3
 8002422:	6878      	ldr	r0, [r7, #4]
 8002424:	f7ff fcef 	bl	8001e06 <_ZN15Adafruit_ICM20X8_setBankEh>
    return slv4_di_reg->read();
 8002428:	6ef8      	ldr	r0, [r7, #108]	; 0x6c
 800242a:	f7fe fd09 	bl	8000e40 <_ZN23Adafruit_BusIO_Register4readEv>
 800242e:	4603      	mov	r3, r0
 8002430:	b2db      	uxtb	r3, r3
 8002432:	e000      	b.n	8002436 <_ZN15Adafruit_ICM20X28auxillaryRegisterTransactionEbhhh+0x1d0>
  }
  return (uint8_t) true;
 8002434:	2301      	movs	r3, #1
}
 8002436:	4618      	mov	r0, r3
 8002438:	3774      	adds	r7, #116	; 0x74
 800243a:	46bd      	mov	sp, r7
 800243c:	bd90      	pop	{r4, r7, pc}

0800243e <_ZN15Adafruit_ICM20X14resetI2CMasterEv>:
/**************************************************************************/
/*!
 * @brief Reset the I2C master
 *
 */
void Adafruit_ICM20X::resetI2CMaster(void) {
 800243e:	b580      	push	{r7, lr}
 8002440:	b08e      	sub	sp, #56	; 0x38
 8002442:	af04      	add	r7, sp, #16
 8002444:	6078      	str	r0, [r7, #4]

  _setBank(0);
 8002446:	2100      	movs	r1, #0
 8002448:	6878      	ldr	r0, [r7, #4]
 800244a:	f7ff fcdc 	bl	8001e06 <_ZN15Adafruit_ICM20X8_setBankEh>

  //Adafruit_BusIO_Register user_ctrl = Adafruit_BusIO_Register(
  //    i2c_dev, spi_dev, ADDRBIT8_HIGH_TOREAD, ICM20X_B0_USER_CTRL);

  Adafruit_BusIO_Register user_ctrl = Adafruit_BusIO_Register(
      i2c_dev, ADDRBIT8_HIGH_TOREAD, ICM20X_B0_USER_CTRL);
 800244e:	687b      	ldr	r3, [r7, #4]
 8002450:	6ad9      	ldr	r1, [r3, #44]	; 0x2c
 8002452:	f107 0014 	add.w	r0, r7, #20
 8002456:	2301      	movs	r3, #1
 8002458:	9302      	str	r3, [sp, #8]
 800245a:	2300      	movs	r3, #0
 800245c:	9301      	str	r3, [sp, #4]
 800245e:	2301      	movs	r3, #1
 8002460:	9300      	str	r3, [sp, #0]
 8002462:	2303      	movs	r3, #3
 8002464:	2200      	movs	r2, #0
 8002466:	f7fe fc57 	bl	8000d18 <_ZN23Adafruit_BusIO_RegisterC1EP18Adafruit_I2CDevice26_Adafruit_BusIO_SPIRegTypethhh>

  Adafruit_BusIO_RegisterBits i2c_master_reset_bit =
      Adafruit_BusIO_RegisterBits(&user_ctrl, 1, 1);
 800246a:	f107 0114 	add.w	r1, r7, #20
 800246e:	f107 000c 	add.w	r0, r7, #12
 8002472:	2301      	movs	r3, #1
 8002474:	2201      	movs	r2, #1
 8002476:	f7fe fd55 	bl	8000f24 <_ZN27Adafruit_BusIO_RegisterBitsC1EP23Adafruit_BusIO_Registerhh>

  i2c_master_reset_bit.write(true);
 800247a:	f107 030c 	add.w	r3, r7, #12
 800247e:	2101      	movs	r1, #1
 8002480:	4618      	mov	r0, r3
 8002482:	f7fe fd87 	bl	8000f94 <_ZN27Adafruit_BusIO_RegisterBits5writeEm>
  while (i2c_master_reset_bit.read()) {
 8002486:	f107 030c 	add.w	r3, r7, #12
 800248a:	4618      	mov	r0, r3
 800248c:	f7fe fd65 	bl	8000f5a <_ZN27Adafruit_BusIO_RegisterBits4readEv>
 8002490:	4603      	mov	r3, r0
 8002492:	2b00      	cmp	r3, #0
 8002494:	bf14      	ite	ne
 8002496:	2301      	movne	r3, #1
 8002498:	2300      	moveq	r3, #0
 800249a:	b2db      	uxtb	r3, r3
 800249c:	2b00      	cmp	r3, #0
 800249e:	d003      	beq.n	80024a8 <_ZN15Adafruit_ICM20X14resetI2CMasterEv+0x6a>
    HAL_Delay(10);
 80024a0:	200a      	movs	r0, #10
 80024a2:	f001 f85d 	bl	8003560 <HAL_Delay>
  while (i2c_master_reset_bit.read()) {
 80024a6:	e7ee      	b.n	8002486 <_ZN15Adafruit_ICM20X14resetI2CMasterEv+0x48>
  }
  HAL_Delay(100);
 80024a8:	2064      	movs	r0, #100	; 0x64
 80024aa:	f001 f859 	bl	8003560 <HAL_Delay>
}
 80024ae:	bf00      	nop
 80024b0:	3728      	adds	r7, #40	; 0x28
 80024b2:	46bd      	mov	sp, r7
 80024b4:	bd80      	pop	{r7, pc}
	...

080024b8 <_ZN29Adafruit_ICM20X_Accelerometer9getSensorEP8sensor_t>:
/**************************************************************************/
/*!
    @brief  Gets the sensor_t data for the ICM20X's accelerometer
*/
/**************************************************************************/
void Adafruit_ICM20X_Accelerometer::getSensor(sensor_t *sensor) {
 80024b8:	b480      	push	{r7}
 80024ba:	b083      	sub	sp, #12
 80024bc:	af00      	add	r7, sp, #0
 80024be:	6078      	str	r0, [r7, #4]
 80024c0:	6039      	str	r1, [r7, #0]
  /* Clear the sensor_t object */
  //memset(sensor, 0, sizeof(sensor_t));

  /* Insert the sensor name in the fixed length char array */
  //strncpy(sensor->name, "ICM20X_A", sizeof(sensor->name) - 1);
  sensor->name[sizeof(sensor->name) - 1] = 0;
 80024c2:	683b      	ldr	r3, [r7, #0]
 80024c4:	2200      	movs	r2, #0
 80024c6:	72da      	strb	r2, [r3, #11]
  sensor->version = 1;
 80024c8:	683b      	ldr	r3, [r7, #0]
 80024ca:	2201      	movs	r2, #1
 80024cc:	60da      	str	r2, [r3, #12]
  sensor->sensor_id = _sensorID;
 80024ce:	687b      	ldr	r3, [r7, #4]
 80024d0:	685a      	ldr	r2, [r3, #4]
 80024d2:	683b      	ldr	r3, [r7, #0]
 80024d4:	611a      	str	r2, [r3, #16]
  sensor->type = SENSOR_TYPE_ACCELEROMETER;
 80024d6:	683b      	ldr	r3, [r7, #0]
 80024d8:	2201      	movs	r2, #1
 80024da:	615a      	str	r2, [r3, #20]
  sensor->min_delay = 0;
 80024dc:	683b      	ldr	r3, [r7, #0]
 80024de:	2200      	movs	r2, #0
 80024e0:	625a      	str	r2, [r3, #36]	; 0x24
  sensor->min_value = -294.1995F; /*  -30g = 294.1995 m/s^2  */
 80024e2:	683b      	ldr	r3, [r7, #0]
 80024e4:	4a06      	ldr	r2, [pc, #24]	; (8002500 <_ZN29Adafruit_ICM20X_Accelerometer9getSensorEP8sensor_t+0x48>)
 80024e6:	61da      	str	r2, [r3, #28]
  sensor->max_value = 294.1995F;  /* 30g = 294.1995 m/s^2  */
 80024e8:	683b      	ldr	r3, [r7, #0]
 80024ea:	4a06      	ldr	r2, [pc, #24]	; (8002504 <_ZN29Adafruit_ICM20X_Accelerometer9getSensorEP8sensor_t+0x4c>)
 80024ec:	619a      	str	r2, [r3, #24]
  sensor->resolution =
 80024ee:	683b      	ldr	r3, [r7, #0]
 80024f0:	4a05      	ldr	r2, [pc, #20]	; (8002508 <_ZN29Adafruit_ICM20X_Accelerometer9getSensorEP8sensor_t+0x50>)
 80024f2:	621a      	str	r2, [r3, #32]
      0.122; /* 8192LSB/1000 mG -> 8.192 LSB/ mG => 0.122 mG/LSB at +-4g */
}
 80024f4:	bf00      	nop
 80024f6:	370c      	adds	r7, #12
 80024f8:	46bd      	mov	sp, r7
 80024fa:	f85d 7b04 	ldr.w	r7, [sp], #4
 80024fe:	4770      	bx	lr
 8002500:	c3931989 	.word	0xc3931989
 8002504:	43931989 	.word	0x43931989
 8002508:	3df9db23 	.word	0x3df9db23

0800250c <_ZN29Adafruit_ICM20X_Accelerometer8getEventEP15sensors_event_t>:
    @brief  Gets the accelerometer as a standard sensor event
    @param  event Sensor event object that will be populated
    @returns True
*/
/**************************************************************************/
bool Adafruit_ICM20X_Accelerometer::getEvent(sensors_event_t *event) {
 800250c:	b590      	push	{r4, r7, lr}
 800250e:	b083      	sub	sp, #12
 8002510:	af00      	add	r7, sp, #0
 8002512:	6078      	str	r0, [r7, #4]
 8002514:	6039      	str	r1, [r7, #0]
  _theICM20X->_read();
 8002516:	687b      	ldr	r3, [r7, #4]
 8002518:	689b      	ldr	r3, [r3, #8]
 800251a:	4618      	mov	r0, r3
 800251c:	f7ff fbd6 	bl	8001ccc <_ZN15Adafruit_ICM20X5_readEv>
  _theICM20X->fillAccelEvent(event, HAL_GetTick());
 8002520:	687b      	ldr	r3, [r7, #4]
 8002522:	689c      	ldr	r4, [r3, #8]
 8002524:	f001 f810 	bl	8003548 <HAL_GetTick>
 8002528:	4603      	mov	r3, r0
 800252a:	461a      	mov	r2, r3
 800252c:	6839      	ldr	r1, [r7, #0]
 800252e:	4620      	mov	r0, r4
 8002530:	f7ff faec 	bl	8001b0c <_ZN15Adafruit_ICM20X14fillAccelEventEP15sensors_event_tm>

  return true;
 8002534:	2301      	movs	r3, #1
}
 8002536:	4618      	mov	r0, r3
 8002538:	370c      	adds	r7, #12
 800253a:	46bd      	mov	sp, r7
 800253c:	bd90      	pop	{r4, r7, pc}
	...

08002540 <_ZN20Adafruit_ICM20X_Gyro9getSensorEP8sensor_t>:
/**************************************************************************/
/*!
    @brief  Gets the sensor_t data for the ICM20X's gyroscope sensor
*/
/**************************************************************************/
void Adafruit_ICM20X_Gyro::getSensor(sensor_t *sensor) {
 8002540:	b480      	push	{r7}
 8002542:	b083      	sub	sp, #12
 8002544:	af00      	add	r7, sp, #0
 8002546:	6078      	str	r0, [r7, #4]
 8002548:	6039      	str	r1, [r7, #0]
  /* Clear the sensor_t object */
  //memset(sensor, 0, sizeof(sensor_t));

  /* Insert the sensor name in the fixed length char array */
  //strncpy(sensor->name, "ICM20X_G", sizeof(sensor->name) - 1);
  sensor->name[sizeof(sensor->name) - 1] = 0;
 800254a:	683b      	ldr	r3, [r7, #0]
 800254c:	2200      	movs	r2, #0
 800254e:	72da      	strb	r2, [r3, #11]
  sensor->version = 1;
 8002550:	683b      	ldr	r3, [r7, #0]
 8002552:	2201      	movs	r2, #1
 8002554:	60da      	str	r2, [r3, #12]
  sensor->sensor_id = _sensorID;
 8002556:	687b      	ldr	r3, [r7, #4]
 8002558:	685a      	ldr	r2, [r3, #4]
 800255a:	683b      	ldr	r3, [r7, #0]
 800255c:	611a      	str	r2, [r3, #16]
  sensor->type = SENSOR_TYPE_GYROSCOPE;
 800255e:	683b      	ldr	r3, [r7, #0]
 8002560:	2204      	movs	r2, #4
 8002562:	615a      	str	r2, [r3, #20]
  sensor->min_delay = 0;
 8002564:	683b      	ldr	r3, [r7, #0]
 8002566:	2200      	movs	r2, #0
 8002568:	625a      	str	r2, [r3, #36]	; 0x24
  sensor->min_value = -69.81; /* -4000 dps -> rad/s (radians per second) */
 800256a:	683b      	ldr	r3, [r7, #0]
 800256c:	4a06      	ldr	r2, [pc, #24]	; (8002588 <_ZN20Adafruit_ICM20X_Gyro9getSensorEP8sensor_t+0x48>)
 800256e:	61da      	str	r2, [r3, #28]
  sensor->max_value = +69.81;
 8002570:	683b      	ldr	r3, [r7, #0]
 8002572:	4a06      	ldr	r2, [pc, #24]	; (800258c <_ZN20Adafruit_ICM20X_Gyro9getSensorEP8sensor_t+0x4c>)
 8002574:	619a      	str	r2, [r3, #24]
  sensor->resolution = 2.665e-7; /* 65.5 LSB/DPS */
 8002576:	683b      	ldr	r3, [r7, #0]
 8002578:	4a05      	ldr	r2, [pc, #20]	; (8002590 <_ZN20Adafruit_ICM20X_Gyro9getSensorEP8sensor_t+0x50>)
 800257a:	621a      	str	r2, [r3, #32]
}
 800257c:	bf00      	nop
 800257e:	370c      	adds	r7, #12
 8002580:	46bd      	mov	sp, r7
 8002582:	f85d 7b04 	ldr.w	r7, [sp], #4
 8002586:	4770      	bx	lr
 8002588:	c28b9eb8 	.word	0xc28b9eb8
 800258c:	428b9eb8 	.word	0x428b9eb8
 8002590:	348f137b 	.word	0x348f137b

08002594 <_ZN20Adafruit_ICM20X_Gyro8getEventEP15sensors_event_t>:
    @brief  Gets the gyroscope as a standard sensor event
    @param  event Sensor event object that will be populated
    @returns True
*/
/**************************************************************************/
bool Adafruit_ICM20X_Gyro::getEvent(sensors_event_t *event) {
 8002594:	b590      	push	{r4, r7, lr}
 8002596:	b083      	sub	sp, #12
 8002598:	af00      	add	r7, sp, #0
 800259a:	6078      	str	r0, [r7, #4]
 800259c:	6039      	str	r1, [r7, #0]
  _theICM20X->_read();
 800259e:	687b      	ldr	r3, [r7, #4]
 80025a0:	689b      	ldr	r3, [r3, #8]
 80025a2:	4618      	mov	r0, r3
 80025a4:	f7ff fb92 	bl	8001ccc <_ZN15Adafruit_ICM20X5_readEv>

  //_theICM20X->fillGyroEvent(event, millis());
  _theICM20X->fillGyroEvent(event, HAL_GetTick());
 80025a8:	687b      	ldr	r3, [r7, #4]
 80025aa:	689c      	ldr	r4, [r3, #8]
 80025ac:	f000 ffcc 	bl	8003548 <HAL_GetTick>
 80025b0:	4603      	mov	r3, r0
 80025b2:	461a      	mov	r2, r3
 80025b4:	6839      	ldr	r1, [r7, #0]
 80025b6:	4620      	mov	r0, r4
 80025b8:	f7ff fae4 	bl	8001b84 <_ZN15Adafruit_ICM20X13fillGyroEventEP15sensors_event_tm>

  return true;
 80025bc:	2301      	movs	r3, #1
}
 80025be:	4618      	mov	r0, r3
 80025c0:	370c      	adds	r7, #12
 80025c2:	46bd      	mov	sp, r7
 80025c4:	bd90      	pop	{r4, r7, pc}
	...

080025c8 <_ZN28Adafruit_ICM20X_Magnetometer9getSensorEP8sensor_t>:
/**************************************************************************/
/*!
    @brief  Gets the sensor_t data for the ICM20X's magnetometer sensor
*/
/**************************************************************************/
void Adafruit_ICM20X_Magnetometer::getSensor(sensor_t *sensor) {
 80025c8:	b480      	push	{r7}
 80025ca:	b083      	sub	sp, #12
 80025cc:	af00      	add	r7, sp, #0
 80025ce:	6078      	str	r0, [r7, #4]
 80025d0:	6039      	str	r1, [r7, #0]
  /* Clear the sensor_t object */
  //memset(sensor, 0, sizeof(sensor_t));

  /* Insert the sensor name in the fixed length char array */
  //strncpy(sensor->name, "ICM20X_M", sizeof(sensor->name) - 1);
  sensor->name[sizeof(sensor->name) - 1] = 0;
 80025d2:	683b      	ldr	r3, [r7, #0]
 80025d4:	2200      	movs	r2, #0
 80025d6:	72da      	strb	r2, [r3, #11]
  sensor->version = 1;
 80025d8:	683b      	ldr	r3, [r7, #0]
 80025da:	2201      	movs	r2, #1
 80025dc:	60da      	str	r2, [r3, #12]
  sensor->sensor_id = _sensorID;
 80025de:	687b      	ldr	r3, [r7, #4]
 80025e0:	685a      	ldr	r2, [r3, #4]
 80025e2:	683b      	ldr	r3, [r7, #0]
 80025e4:	611a      	str	r2, [r3, #16]
  sensor->type = SENSOR_TYPE_MAGNETIC_FIELD;
 80025e6:	683b      	ldr	r3, [r7, #0]
 80025e8:	2202      	movs	r2, #2
 80025ea:	615a      	str	r2, [r3, #20]
  sensor->min_delay = 0;
 80025ec:	683b      	ldr	r3, [r7, #0]
 80025ee:	2200      	movs	r2, #0
 80025f0:	625a      	str	r2, [r3, #36]	; 0x24
  sensor->min_value = -4900;
 80025f2:	683b      	ldr	r3, [r7, #0]
 80025f4:	4a06      	ldr	r2, [pc, #24]	; (8002610 <_ZN28Adafruit_ICM20X_Magnetometer9getSensorEP8sensor_t+0x48>)
 80025f6:	61da      	str	r2, [r3, #28]
  sensor->max_value = 4900;
 80025f8:	683b      	ldr	r3, [r7, #0]
 80025fa:	4a06      	ldr	r2, [pc, #24]	; (8002614 <_ZN28Adafruit_ICM20X_Magnetometer9getSensorEP8sensor_t+0x4c>)
 80025fc:	619a      	str	r2, [r3, #24]
  sensor->resolution = 0.6667;
 80025fe:	683b      	ldr	r3, [r7, #0]
 8002600:	4a05      	ldr	r2, [pc, #20]	; (8002618 <_ZN28Adafruit_ICM20X_Magnetometer9getSensorEP8sensor_t+0x50>)
 8002602:	621a      	str	r2, [r3, #32]
}
 8002604:	bf00      	nop
 8002606:	370c      	adds	r7, #12
 8002608:	46bd      	mov	sp, r7
 800260a:	f85d 7b04 	ldr.w	r7, [sp], #4
 800260e:	4770      	bx	lr
 8002610:	c5992000 	.word	0xc5992000
 8002614:	45992000 	.word	0x45992000
 8002618:	3f2aacda 	.word	0x3f2aacda

0800261c <_ZN28Adafruit_ICM20X_Magnetometer8getEventEP15sensors_event_t>:
    @brief  Gets the magnetometer as a standard sensor event
    @param  event Sensor event object that will be populated
    @returns True
*/
/**************************************************************************/
bool Adafruit_ICM20X_Magnetometer::getEvent(sensors_event_t *event) {
 800261c:	b590      	push	{r4, r7, lr}
 800261e:	b083      	sub	sp, #12
 8002620:	af00      	add	r7, sp, #0
 8002622:	6078      	str	r0, [r7, #4]
 8002624:	6039      	str	r1, [r7, #0]
  _theICM20X->_read();
 8002626:	687b      	ldr	r3, [r7, #4]
 8002628:	689b      	ldr	r3, [r3, #8]
 800262a:	4618      	mov	r0, r3
 800262c:	f7ff fb4e 	bl	8001ccc <_ZN15Adafruit_ICM20X5_readEv>
  //_theICM20X->fillMagEvent(event, millis());
  _theICM20X->fillMagEvent(event, HAL_GetTick());
 8002630:	687b      	ldr	r3, [r7, #4]
 8002632:	689c      	ldr	r4, [r3, #8]
 8002634:	f000 ff88 	bl	8003548 <HAL_GetTick>
 8002638:	4603      	mov	r3, r0
 800263a:	461a      	mov	r2, r3
 800263c:	6839      	ldr	r1, [r7, #0]
 800263e:	4620      	mov	r0, r4
 8002640:	f7ff fadc 	bl	8001bfc <_ZN15Adafruit_ICM20X12fillMagEventEP15sensors_event_tm>

  return true;
 8002644:	2301      	movs	r3, #1
}
 8002646:	4618      	mov	r0, r3
 8002648:	370c      	adds	r7, #12
 800264a:	46bd      	mov	sp, r7
 800264c:	bd90      	pop	{r4, r7, pc}
	...

08002650 <_ZN20Adafruit_ICM20X_Temp9getSensorEP8sensor_t>:
/**************************************************************************/
/*!
    @brief  Gets the sensor_t data for the ICM20X's tenperature
*/
/**************************************************************************/
void Adafruit_ICM20X_Temp::getSensor(sensor_t *sensor) {
 8002650:	b480      	push	{r7}
 8002652:	b083      	sub	sp, #12
 8002654:	af00      	add	r7, sp, #0
 8002656:	6078      	str	r0, [r7, #4]
 8002658:	6039      	str	r1, [r7, #0]
  /* Clear the sensor_t object */
  //memset(sensor, 0, sizeof(sensor_t));

  /* Insert the sensor name in the fixed length char array */
  //strncpy(sensor->name, "ICM20X_T", sizeof(sensor->name) - 1);
  sensor->name[sizeof(sensor->name) - 1] = 0;
 800265a:	683b      	ldr	r3, [r7, #0]
 800265c:	2200      	movs	r2, #0
 800265e:	72da      	strb	r2, [r3, #11]
  sensor->version = 1;
 8002660:	683b      	ldr	r3, [r7, #0]
 8002662:	2201      	movs	r2, #1
 8002664:	60da      	str	r2, [r3, #12]
  sensor->sensor_id = _sensorID;
 8002666:	687b      	ldr	r3, [r7, #4]
 8002668:	685a      	ldr	r2, [r3, #4]
 800266a:	683b      	ldr	r3, [r7, #0]
 800266c:	611a      	str	r2, [r3, #16]
  sensor->type = SENSOR_TYPE_AMBIENT_TEMPERATURE;
 800266e:	683b      	ldr	r3, [r7, #0]
 8002670:	220d      	movs	r2, #13
 8002672:	615a      	str	r2, [r3, #20]
  sensor->min_delay = 0;
 8002674:	683b      	ldr	r3, [r7, #0]
 8002676:	2200      	movs	r2, #0
 8002678:	625a      	str	r2, [r3, #36]	; 0x24
  sensor->min_value = -40;
 800267a:	683b      	ldr	r3, [r7, #0]
 800267c:	4a06      	ldr	r2, [pc, #24]	; (8002698 <_ZN20Adafruit_ICM20X_Temp9getSensorEP8sensor_t+0x48>)
 800267e:	61da      	str	r2, [r3, #28]
  sensor->max_value = 85;
 8002680:	683b      	ldr	r3, [r7, #0]
 8002682:	4a06      	ldr	r2, [pc, #24]	; (800269c <_ZN20Adafruit_ICM20X_Temp9getSensorEP8sensor_t+0x4c>)
 8002684:	619a      	str	r2, [r3, #24]
  sensor->resolution = 0.0029952; /* 333.87 LSB/C => 1/333.87 C/LSB */
 8002686:	683b      	ldr	r3, [r7, #0]
 8002688:	4a05      	ldr	r2, [pc, #20]	; (80026a0 <_ZN20Adafruit_ICM20X_Temp9getSensorEP8sensor_t+0x50>)
 800268a:	621a      	str	r2, [r3, #32]
}
 800268c:	bf00      	nop
 800268e:	370c      	adds	r7, #12
 8002690:	46bd      	mov	sp, r7
 8002692:	f85d 7b04 	ldr.w	r7, [sp], #4
 8002696:	4770      	bx	lr
 8002698:	c2200000 	.word	0xc2200000
 800269c:	42aa0000 	.word	0x42aa0000
 80026a0:	3b444b1e 	.word	0x3b444b1e

080026a4 <_ZN20Adafruit_ICM20X_Temp8getEventEP15sensors_event_t>:
    @brief  Gets the temperature as a standard sensor event
    @param  event Sensor event object that will be populated
    @returns True
*/
/**************************************************************************/
bool Adafruit_ICM20X_Temp::getEvent(sensors_event_t *event) {
 80026a4:	b590      	push	{r4, r7, lr}
 80026a6:	b083      	sub	sp, #12
 80026a8:	af00      	add	r7, sp, #0
 80026aa:	6078      	str	r0, [r7, #4]
 80026ac:	6039      	str	r1, [r7, #0]
  _theICM20X->_read();
 80026ae:	687b      	ldr	r3, [r7, #4]
 80026b0:	689b      	ldr	r3, [r3, #8]
 80026b2:	4618      	mov	r0, r3
 80026b4:	f7ff fb0a 	bl	8001ccc <_ZN15Adafruit_ICM20X5_readEv>
  //_theICM20X->fillTempEvent(event, millis());
  _theICM20X->fillTempEvent(event, HAL_GetTick());
 80026b8:	687b      	ldr	r3, [r7, #4]
 80026ba:	689c      	ldr	r4, [r3, #8]
 80026bc:	f000 ff44 	bl	8003548 <HAL_GetTick>
 80026c0:	4603      	mov	r3, r0
 80026c2:	461a      	mov	r2, r3
 80026c4:	6839      	ldr	r1, [r7, #0]
 80026c6:	4620      	mov	r0, r4
 80026c8:	f7ff fac2 	bl	8001c50 <_ZN15Adafruit_ICM20X13fillTempEventEP15sensors_event_tm>

  return true;
 80026cc:	2301      	movs	r3, #1
}
 80026ce:	4618      	mov	r0, r3
 80026d0:	370c      	adds	r7, #12
 80026d2:	46bd      	mov	sp, r7
 80026d4:	bd90      	pop	{r4, r7, pc}
	...

080026d8 <_ZN20Adafruit_ICM20X_TempD1Ev>:
class Adafruit_ICM20X_Temp : public Adafruit_Sensor {
 80026d8:	b580      	push	{r7, lr}
 80026da:	b082      	sub	sp, #8
 80026dc:	af00      	add	r7, sp, #0
 80026de:	6078      	str	r0, [r7, #4]
 80026e0:	4a05      	ldr	r2, [pc, #20]	; (80026f8 <_ZN20Adafruit_ICM20X_TempD1Ev+0x20>)
 80026e2:	687b      	ldr	r3, [r7, #4]
 80026e4:	601a      	str	r2, [r3, #0]
 80026e6:	687b      	ldr	r3, [r7, #4]
 80026e8:	4618      	mov	r0, r3
 80026ea:	f7fe ffed 	bl	80016c8 <_ZN15Adafruit_SensorD1Ev>
 80026ee:	687b      	ldr	r3, [r7, #4]
 80026f0:	4618      	mov	r0, r3
 80026f2:	3708      	adds	r7, #8
 80026f4:	46bd      	mov	sp, r7
 80026f6:	bd80      	pop	{r7, pc}
 80026f8:	080066b8 	.word	0x080066b8

080026fc <_ZN20Adafruit_ICM20X_TempD0Ev>:
 80026fc:	b580      	push	{r7, lr}
 80026fe:	b082      	sub	sp, #8
 8002700:	af00      	add	r7, sp, #0
 8002702:	6078      	str	r0, [r7, #4]
 8002704:	6878      	ldr	r0, [r7, #4]
 8002706:	f7ff ffe7 	bl	80026d8 <_ZN20Adafruit_ICM20X_TempD1Ev>
 800270a:	210c      	movs	r1, #12
 800270c:	6878      	ldr	r0, [r7, #4]
 800270e:	f003 fdf5 	bl	80062fc <_ZdlPvj>
 8002712:	687b      	ldr	r3, [r7, #4]
 8002714:	4618      	mov	r0, r3
 8002716:	3708      	adds	r7, #8
 8002718:	46bd      	mov	sp, r7
 800271a:	bd80      	pop	{r7, pc}

0800271c <_ZN28Adafruit_ICM20X_MagnetometerD1Ev>:
class Adafruit_ICM20X_Magnetometer : public Adafruit_Sensor {
 800271c:	b580      	push	{r7, lr}
 800271e:	b082      	sub	sp, #8
 8002720:	af00      	add	r7, sp, #0
 8002722:	6078      	str	r0, [r7, #4]
 8002724:	4a05      	ldr	r2, [pc, #20]	; (800273c <_ZN28Adafruit_ICM20X_MagnetometerD1Ev+0x20>)
 8002726:	687b      	ldr	r3, [r7, #4]
 8002728:	601a      	str	r2, [r3, #0]
 800272a:	687b      	ldr	r3, [r7, #4]
 800272c:	4618      	mov	r0, r3
 800272e:	f7fe ffcb 	bl	80016c8 <_ZN15Adafruit_SensorD1Ev>
 8002732:	687b      	ldr	r3, [r7, #4]
 8002734:	4618      	mov	r0, r3
 8002736:	3708      	adds	r7, #8
 8002738:	46bd      	mov	sp, r7
 800273a:	bd80      	pop	{r7, pc}
 800273c:	080066d4 	.word	0x080066d4

08002740 <_ZN28Adafruit_ICM20X_MagnetometerD0Ev>:
 8002740:	b580      	push	{r7, lr}
 8002742:	b082      	sub	sp, #8
 8002744:	af00      	add	r7, sp, #0
 8002746:	6078      	str	r0, [r7, #4]
 8002748:	6878      	ldr	r0, [r7, #4]
 800274a:	f7ff ffe7 	bl	800271c <_ZN28Adafruit_ICM20X_MagnetometerD1Ev>
 800274e:	210c      	movs	r1, #12
 8002750:	6878      	ldr	r0, [r7, #4]
 8002752:	f003 fdd3 	bl	80062fc <_ZdlPvj>
 8002756:	687b      	ldr	r3, [r7, #4]
 8002758:	4618      	mov	r0, r3
 800275a:	3708      	adds	r7, #8
 800275c:	46bd      	mov	sp, r7
 800275e:	bd80      	pop	{r7, pc}

08002760 <_ZN20Adafruit_ICM20X_GyroD1Ev>:
class Adafruit_ICM20X_Gyro : public Adafruit_Sensor {
 8002760:	b580      	push	{r7, lr}
 8002762:	b082      	sub	sp, #8
 8002764:	af00      	add	r7, sp, #0
 8002766:	6078      	str	r0, [r7, #4]
 8002768:	4a05      	ldr	r2, [pc, #20]	; (8002780 <_ZN20Adafruit_ICM20X_GyroD1Ev+0x20>)
 800276a:	687b      	ldr	r3, [r7, #4]
 800276c:	601a      	str	r2, [r3, #0]
 800276e:	687b      	ldr	r3, [r7, #4]
 8002770:	4618      	mov	r0, r3
 8002772:	f7fe ffa9 	bl	80016c8 <_ZN15Adafruit_SensorD1Ev>
 8002776:	687b      	ldr	r3, [r7, #4]
 8002778:	4618      	mov	r0, r3
 800277a:	3708      	adds	r7, #8
 800277c:	46bd      	mov	sp, r7
 800277e:	bd80      	pop	{r7, pc}
 8002780:	080066f0 	.word	0x080066f0

08002784 <_ZN20Adafruit_ICM20X_GyroD0Ev>:
 8002784:	b580      	push	{r7, lr}
 8002786:	b082      	sub	sp, #8
 8002788:	af00      	add	r7, sp, #0
 800278a:	6078      	str	r0, [r7, #4]
 800278c:	6878      	ldr	r0, [r7, #4]
 800278e:	f7ff ffe7 	bl	8002760 <_ZN20Adafruit_ICM20X_GyroD1Ev>
 8002792:	210c      	movs	r1, #12
 8002794:	6878      	ldr	r0, [r7, #4]
 8002796:	f003 fdb1 	bl	80062fc <_ZdlPvj>
 800279a:	687b      	ldr	r3, [r7, #4]
 800279c:	4618      	mov	r0, r3
 800279e:	3708      	adds	r7, #8
 80027a0:	46bd      	mov	sp, r7
 80027a2:	bd80      	pop	{r7, pc}

080027a4 <_ZN29Adafruit_ICM20X_AccelerometerD1Ev>:
class Adafruit_ICM20X_Accelerometer : public Adafruit_Sensor {
 80027a4:	b580      	push	{r7, lr}
 80027a6:	b082      	sub	sp, #8
 80027a8:	af00      	add	r7, sp, #0
 80027aa:	6078      	str	r0, [r7, #4]
 80027ac:	4a05      	ldr	r2, [pc, #20]	; (80027c4 <_ZN29Adafruit_ICM20X_AccelerometerD1Ev+0x20>)
 80027ae:	687b      	ldr	r3, [r7, #4]
 80027b0:	601a      	str	r2, [r3, #0]
 80027b2:	687b      	ldr	r3, [r7, #4]
 80027b4:	4618      	mov	r0, r3
 80027b6:	f7fe ff87 	bl	80016c8 <_ZN15Adafruit_SensorD1Ev>
 80027ba:	687b      	ldr	r3, [r7, #4]
 80027bc:	4618      	mov	r0, r3
 80027be:	3708      	adds	r7, #8
 80027c0:	46bd      	mov	sp, r7
 80027c2:	bd80      	pop	{r7, pc}
 80027c4:	0800670c 	.word	0x0800670c

080027c8 <_ZN29Adafruit_ICM20X_AccelerometerD0Ev>:
 80027c8:	b580      	push	{r7, lr}
 80027ca:	b082      	sub	sp, #8
 80027cc:	af00      	add	r7, sp, #0
 80027ce:	6078      	str	r0, [r7, #4]
 80027d0:	6878      	ldr	r0, [r7, #4]
 80027d2:	f7ff ffe7 	bl	80027a4 <_ZN29Adafruit_ICM20X_AccelerometerD1Ev>
 80027d6:	210c      	movs	r1, #12
 80027d8:	6878      	ldr	r0, [r7, #4]
 80027da:	f003 fd8f 	bl	80062fc <_ZdlPvj>
 80027de:	687b      	ldr	r3, [r7, #4]
 80027e0:	4618      	mov	r0, r3
 80027e2:	3708      	adds	r7, #8
 80027e4:	46bd      	mov	sp, r7
 80027e6:	bd80      	pop	{r7, pc}

080027e8 <_ZN17Adafruit_ICM20948D1Ev>:
 *            the ST ICM2948 9-DoF Accelerometer, gyro, and magnetometer
 */
class Adafruit_ICM20948 : public Adafruit_ICM20X {
public:
  Adafruit_ICM20948();
  ~Adafruit_ICM20948(){};
 80027e8:	b580      	push	{r7, lr}
 80027ea:	b082      	sub	sp, #8
 80027ec:	af00      	add	r7, sp, #0
 80027ee:	6078      	str	r0, [r7, #4]
 80027f0:	4a05      	ldr	r2, [pc, #20]	; (8002808 <_ZN17Adafruit_ICM20948D1Ev+0x20>)
 80027f2:	687b      	ldr	r3, [r7, #4]
 80027f4:	601a      	str	r2, [r3, #0]
 80027f6:	687b      	ldr	r3, [r7, #4]
 80027f8:	4618      	mov	r0, r3
 80027fa:	f7ff f829 	bl	8001850 <_ZN15Adafruit_ICM20XD1Ev>
 80027fe:	687b      	ldr	r3, [r7, #4]
 8002800:	4618      	mov	r0, r3
 8002802:	3708      	adds	r7, #8
 8002804:	46bd      	mov	sp, r7
 8002806:	bd80      	pop	{r7, pc}
 8002808:	08006698 	.word	0x08006698
 800280c:	00000000 	.word	0x00000000

08002810 <main>:
/**
  * @brief  The application entry point.
  * @retval int
  */
int main(void)
{
 8002810:	b580      	push	{r7, lr}
 8002812:	b0b0      	sub	sp, #192	; 0xc0
 8002814:	af02      	add	r7, sp, #8
  /* USER CODE END 1 */

  /* MCU Configuration--------------------------------------------------------*/

  /* Reset of all peripherals, Initializes the Flash interface and the Systick. */
  HAL_Init();
 8002816:	f000 fe31 	bl	800347c <HAL_Init>


  /* USER CODE END Init */

  /* Configure the system clock */
  SystemClock_Config();
 800281a:	f000 f899 	bl	8002950 <_Z18SystemClock_Configv>

/* Configure the peripherals common clocks */
  PeriphCommonClock_Config();
 800281e:	f000 f909 	bl	8002a34 <_Z24PeriphCommonClock_Configv>
  /* USER CODE BEGIN SysInit */

  /* USER CODE END SysInit */

  /* Initialize all configured peripherals */
  MX_GPIO_Init();
 8002822:	f000 fa2f 	bl	8002c84 <_ZL12MX_GPIO_Initv>
  MX_I2C1_Init();
 8002826:	f000 f92b 	bl	8002a80 <_ZL12MX_I2C1_Initv>
  MX_I2S2_Init();
 800282a:	f000 f95d 	bl	8002ae8 <_ZL12MX_I2S2_Initv>
  MX_I2S3_Init();
 800282e:	f000 f98f 	bl	8002b50 <_ZL12MX_I2S3_Initv>
  MX_SPI1_Init();
 8002832:	f000 f9c1 	bl	8002bb8 <_ZL12MX_SPI1_Initv>
  //MX_USB_HOST_Init();
  MX_USART2_UART_Init();
 8002836:	f000 f9f7 	bl	8002c28 <_ZL19MX_USART2_UART_Initv>
  SensorAPI_I2Cx_Read(0x1F, pressure_data, 3, &bmp388_address);

  uint8_t config_settings[] = {0x10, 0x20, 0x30}; // Example settings
  SensorAPI_I2Cx_Write(0x1E, config_settings, sizeof(config_settings), &bmp388_address);*/

  icm.begin_I2C();
 800283a:	2200      	movs	r2, #0
 800283c:	2169      	movs	r1, #105	; 0x69
 800283e:	4842      	ldr	r0, [pc, #264]	; (8002948 <main+0x138>)
 8002840:	f7fe fcee 	bl	8001220 <_ZN17Adafruit_ICM209489begin_I2CEhl>
    /* USER CODE END WHILE */
    //MX_USB_HOST_Process();

    /* USER CODE BEGIN 3 */

    int accelRange = icm.getAccelRange();
 8002844:	4840      	ldr	r0, [pc, #256]	; (8002948 <main+0x138>)
 8002846:	f7fe fee3 	bl	8001610 <_ZN17Adafruit_ICM2094813getAccelRangeEv>
 800284a:	4603      	mov	r3, r0
 800284c:	f8c7 30b4 	str.w	r3, [r7, #180]	; 0xb4
    int gyroRange = icm.getGyroRange();
 8002850:	483d      	ldr	r0, [pc, #244]	; (8002948 <main+0x138>)
 8002852:	f7fe feea 	bl	800162a <_ZN17Adafruit_ICM2094812getGyroRangeEv>
 8002856:	4603      	mov	r3, r0
 8002858:	f8c7 30b0 	str.w	r3, [r7, #176]	; 0xb0
    uint16_t accel_divisor = icm.getAccelRateDivisor();
 800285c:	483a      	ldr	r0, [pc, #232]	; (8002948 <main+0x138>)
 800285e:	f7ff fbba 	bl	8001fd6 <_ZN15Adafruit_ICM20X19getAccelRateDivisorEv>
 8002862:	4603      	mov	r3, r0
 8002864:	f8a7 30ae 	strh.w	r3, [r7, #174]	; 0xae
    float accel_rate = 1125 / (1.0 + accel_divisor);
 8002868:	f8b7 30ae 	ldrh.w	r3, [r7, #174]	; 0xae
 800286c:	4618      	mov	r0, r3
 800286e:	f7fd fe05 	bl	800047c <__aeabi_i2d>
 8002872:	f04f 0200 	mov.w	r2, #0
 8002876:	4b35      	ldr	r3, [pc, #212]	; (800294c <main+0x13c>)
 8002878:	f7fd fcb4 	bl	80001e4 <__adddf3>
 800287c:	4602      	mov	r2, r0
 800287e:	460b      	mov	r3, r1
 8002880:	a12d      	add	r1, pc, #180	; (adr r1, 8002938 <main+0x128>)
 8002882:	e9d1 0100 	ldrd	r0, r1, [r1]
 8002886:	f7fd ff8d 	bl	80007a4 <__aeabi_ddiv>
 800288a:	4602      	mov	r2, r0
 800288c:	460b      	mov	r3, r1
 800288e:	4610      	mov	r0, r2
 8002890:	4619      	mov	r1, r3
 8002892:	f7fe f86f 	bl	8000974 <__aeabi_d2f>
 8002896:	4603      	mov	r3, r0
 8002898:	f8c7 30a8 	str.w	r3, [r7, #168]	; 0xa8
    uint8_t gyro_divisor = icm.getGyroRateDivisor();
 800289c:	482a      	ldr	r0, [pc, #168]	; (8002948 <main+0x138>)
 800289e:	f7ff fbe7 	bl	8002070 <_ZN15Adafruit_ICM20X18getGyroRateDivisorEv>
 80028a2:	4603      	mov	r3, r0
 80028a4:	f887 30a7 	strb.w	r3, [r7, #167]	; 0xa7
    float gyro_rate = 1100 / (1.0 + gyro_divisor);
 80028a8:	f897 30a7 	ldrb.w	r3, [r7, #167]	; 0xa7
 80028ac:	4618      	mov	r0, r3
 80028ae:	f7fd fde5 	bl	800047c <__aeabi_i2d>
 80028b2:	f04f 0200 	mov.w	r2, #0
 80028b6:	4b25      	ldr	r3, [pc, #148]	; (800294c <main+0x13c>)
 80028b8:	f7fd fc94 	bl	80001e4 <__adddf3>
 80028bc:	4602      	mov	r2, r0
 80028be:	460b      	mov	r3, r1
 80028c0:	a11f      	add	r1, pc, #124	; (adr r1, 8002940 <main+0x130>)
 80028c2:	e9d1 0100 	ldrd	r0, r1, [r1]
 80028c6:	f7fd ff6d 	bl	80007a4 <__aeabi_ddiv>
 80028ca:	4602      	mov	r2, r0
 80028cc:	460b      	mov	r3, r1
 80028ce:	4610      	mov	r0, r2
 80028d0:	4619      	mov	r1, r3
 80028d2:	f7fe f84f 	bl	8000974 <__aeabi_d2f>
 80028d6:	4603      	mov	r3, r0
 80028d8:	f8c7 30a0 	str.w	r3, [r7, #160]	; 0xa0
    int magDataRate = icm.getMagDataRate();
 80028dc:	481a      	ldr	r0, [pc, #104]	; (8002948 <main+0x138>)
 80028de:	f7fe feb1 	bl	8001644 <_ZN17Adafruit_ICM2094814getMagDataRateEv>
 80028e2:	4603      	mov	r3, r0
 80028e4:	f8c7 309c 	str.w	r3, [r7, #156]	; 0x9c

    sensors_event_t accel;
    sensors_event_t gyro;
    sensors_event_t mag;
    sensors_event_t temp;
    icm.getEvent(&accel, &gyro, &temp, &mag);
 80028e8:	f107 006c 	add.w	r0, r7, #108	; 0x6c
 80028ec:	f107 0224 	add.w	r2, r7, #36	; 0x24
 80028f0:	4639      	mov	r1, r7
 80028f2:	f107 0348 	add.w	r3, r7, #72	; 0x48
 80028f6:	9300      	str	r3, [sp, #0]
 80028f8:	4603      	mov	r3, r0
 80028fa:	4813      	ldr	r0, [pc, #76]	; (8002948 <main+0x138>)
 80028fc:	f7ff f8dd 	bl	8001aba <_ZN15Adafruit_ICM20X8getEventEP15sensors_event_tS1_S1_S1_>
    int x = accel.acceleration.x;
 8002900:	edd7 7a05 	vldr	s15, [r7, #20]
 8002904:	eefd 7ae7 	vcvt.s32.f32	s15, s15
 8002908:	ee17 3a90 	vmov	r3, s15
 800290c:	f8c7 3098 	str.w	r3, [r7, #152]	; 0x98
    int y = accel.acceleration.y;
 8002910:	edd7 7a06 	vldr	s15, [r7, #24]
 8002914:	eefd 7ae7 	vcvt.s32.f32	s15, s15
 8002918:	ee17 3a90 	vmov	r3, s15
 800291c:	f8c7 3094 	str.w	r3, [r7, #148]	; 0x94
    int z = accel.acceleration.z;
 8002920:	edd7 7a07 	vldr	s15, [r7, #28]
 8002924:	eefd 7ae7 	vcvt.s32.f32	s15, s15
 8002928:	ee17 3a90 	vmov	r3, s15
 800292c:	f8c7 3090 	str.w	r3, [r7, #144]	; 0x90
    HAL_Delay(100);
 8002930:	2064      	movs	r0, #100	; 0x64
 8002932:	f000 fe15 	bl	8003560 <HAL_Delay>

    // HAL_SPI_Receive(&hspi1, RX_Data, sizeof(RX_Data), 5000);
    // HAL_UART_Receive(&huart2, RX_Data, sizeof(RX_Data), 1000);
    // HAL_Delay(2000);
  }
 8002936:	e785      	b.n	8002844 <main+0x34>
 8002938:	00000000 	.word	0x00000000
 800293c:	40919400 	.word	0x40919400
 8002940:	00000000 	.word	0x00000000
 8002944:	40913000 	.word	0x40913000
 8002948:	20000210 	.word	0x20000210
 800294c:	3ff00000 	.word	0x3ff00000

08002950 <_Z18SystemClock_Configv>:
/**
  * @brief System Clock Configuration
  * @retval None
  */
void SystemClock_Config(void)
{
 8002950:	b580      	push	{r7, lr}
 8002952:	b094      	sub	sp, #80	; 0x50
 8002954:	af00      	add	r7, sp, #0
  RCC_OscInitTypeDef RCC_OscInitStruct = {0};
 8002956:	f107 0320 	add.w	r3, r7, #32
 800295a:	2230      	movs	r2, #48	; 0x30
 800295c:	2100      	movs	r1, #0
 800295e:	4618      	mov	r0, r3
 8002960:	f003 fd40 	bl	80063e4 <memset>
  RCC_ClkInitTypeDef RCC_ClkInitStruct = {0};
 8002964:	f107 030c 	add.w	r3, r7, #12
 8002968:	2200      	movs	r2, #0
 800296a:	601a      	str	r2, [r3, #0]
 800296c:	605a      	str	r2, [r3, #4]
 800296e:	609a      	str	r2, [r3, #8]
 8002970:	60da      	str	r2, [r3, #12]
 8002972:	611a      	str	r2, [r3, #16]

  /** Configure the main internal regulator output voltage
  */
  __HAL_RCC_PWR_CLK_ENABLE();
 8002974:	2300      	movs	r3, #0
 8002976:	60bb      	str	r3, [r7, #8]
 8002978:	4b2c      	ldr	r3, [pc, #176]	; (8002a2c <_Z18SystemClock_Configv+0xdc>)
 800297a:	6c1b      	ldr	r3, [r3, #64]	; 0x40
 800297c:	4a2b      	ldr	r2, [pc, #172]	; (8002a2c <_Z18SystemClock_Configv+0xdc>)
 800297e:	f043 5380 	orr.w	r3, r3, #268435456	; 0x10000000
 8002982:	6413      	str	r3, [r2, #64]	; 0x40
 8002984:	4b29      	ldr	r3, [pc, #164]	; (8002a2c <_Z18SystemClock_Configv+0xdc>)
 8002986:	6c1b      	ldr	r3, [r3, #64]	; 0x40
 8002988:	f003 5380 	and.w	r3, r3, #268435456	; 0x10000000
 800298c:	60bb      	str	r3, [r7, #8]
 800298e:	68bb      	ldr	r3, [r7, #8]
  __HAL_PWR_VOLTAGESCALING_CONFIG(PWR_REGULATOR_VOLTAGE_SCALE1);
 8002990:	2300      	movs	r3, #0
 8002992:	607b      	str	r3, [r7, #4]
 8002994:	4b26      	ldr	r3, [pc, #152]	; (8002a30 <_Z18SystemClock_Configv+0xe0>)
 8002996:	681b      	ldr	r3, [r3, #0]
 8002998:	4a25      	ldr	r2, [pc, #148]	; (8002a30 <_Z18SystemClock_Configv+0xe0>)
 800299a:	f443 4340 	orr.w	r3, r3, #49152	; 0xc000
 800299e:	6013      	str	r3, [r2, #0]
 80029a0:	4b23      	ldr	r3, [pc, #140]	; (8002a30 <_Z18SystemClock_Configv+0xe0>)
 80029a2:	681b      	ldr	r3, [r3, #0]
 80029a4:	f403 4340 	and.w	r3, r3, #49152	; 0xc000
 80029a8:	607b      	str	r3, [r7, #4]
 80029aa:	687b      	ldr	r3, [r7, #4]

  /** Initializes the RCC Oscillators according to the specified parameters
  * in the RCC_OscInitTypeDef structure.
  */
  RCC_OscInitStruct.OscillatorType = RCC_OSCILLATORTYPE_HSE;
 80029ac:	2301      	movs	r3, #1
 80029ae:	623b      	str	r3, [r7, #32]
  RCC_OscInitStruct.HSEState = RCC_HSE_ON;
 80029b0:	f44f 3380 	mov.w	r3, #65536	; 0x10000
 80029b4:	627b      	str	r3, [r7, #36]	; 0x24
  RCC_OscInitStruct.PLL.PLLState = RCC_PLL_ON;
 80029b6:	2302      	movs	r3, #2
 80029b8:	63bb      	str	r3, [r7, #56]	; 0x38
  RCC_OscInitStruct.PLL.PLLSource = RCC_PLLSOURCE_HSE;
 80029ba:	f44f 0380 	mov.w	r3, #4194304	; 0x400000
 80029be:	63fb      	str	r3, [r7, #60]	; 0x3c
  RCC_OscInitStruct.PLL.PLLM = 4;
 80029c0:	2304      	movs	r3, #4
 80029c2:	643b      	str	r3, [r7, #64]	; 0x40
  RCC_OscInitStruct.PLL.PLLN = 192;
 80029c4:	23c0      	movs	r3, #192	; 0xc0
 80029c6:	647b      	str	r3, [r7, #68]	; 0x44
  RCC_OscInitStruct.PLL.PLLP = RCC_PLLP_DIV4;
 80029c8:	2304      	movs	r3, #4
 80029ca:	64bb      	str	r3, [r7, #72]	; 0x48
  RCC_OscInitStruct.PLL.PLLQ = 8;
 80029cc:	2308      	movs	r3, #8
 80029ce:	64fb      	str	r3, [r7, #76]	; 0x4c
  if (HAL_RCC_OscConfig(&RCC_OscInitStruct) != HAL_OK)
 80029d0:	f107 0320 	add.w	r3, r7, #32
 80029d4:	4618      	mov	r0, r3
 80029d6:	f001 ff0d 	bl	80047f4 <HAL_RCC_OscConfig>
 80029da:	4603      	mov	r3, r0
 80029dc:	2b00      	cmp	r3, #0
 80029de:	bf14      	ite	ne
 80029e0:	2301      	movne	r3, #1
 80029e2:	2300      	moveq	r3, #0
 80029e4:	b2db      	uxtb	r3, r3
 80029e6:	2b00      	cmp	r3, #0
 80029e8:	d001      	beq.n	80029ee <_Z18SystemClock_Configv+0x9e>
  {
    Error_Handler();
 80029ea:	f000 fa19 	bl	8002e20 <Error_Handler>
  }

  /** Initializes the CPU, AHB and APB buses clocks
  */
  RCC_ClkInitStruct.ClockType = RCC_CLOCKTYPE_HCLK|RCC_CLOCKTYPE_SYSCLK
 80029ee:	230f      	movs	r3, #15
 80029f0:	60fb      	str	r3, [r7, #12]
                              |RCC_CLOCKTYPE_PCLK1|RCC_CLOCKTYPE_PCLK2;
  RCC_ClkInitStruct.SYSCLKSource = RCC_SYSCLKSOURCE_PLLCLK;
 80029f2:	2302      	movs	r3, #2
 80029f4:	613b      	str	r3, [r7, #16]
  RCC_ClkInitStruct.AHBCLKDivider = RCC_SYSCLK_DIV1;
 80029f6:	2300      	movs	r3, #0
 80029f8:	617b      	str	r3, [r7, #20]
  RCC_ClkInitStruct.APB1CLKDivider = RCC_HCLK_DIV4;
 80029fa:	f44f 53a0 	mov.w	r3, #5120	; 0x1400
 80029fe:	61bb      	str	r3, [r7, #24]
  RCC_ClkInitStruct.APB2CLKDivider = RCC_HCLK_DIV1;
 8002a00:	2300      	movs	r3, #0
 8002a02:	61fb      	str	r3, [r7, #28]

  if (HAL_RCC_ClockConfig(&RCC_ClkInitStruct, FLASH_LATENCY_3) != HAL_OK)
 8002a04:	f107 030c 	add.w	r3, r7, #12
 8002a08:	2103      	movs	r1, #3
 8002a0a:	4618      	mov	r0, r3
 8002a0c:	f002 f96a 	bl	8004ce4 <HAL_RCC_ClockConfig>
 8002a10:	4603      	mov	r3, r0
 8002a12:	2b00      	cmp	r3, #0
 8002a14:	bf14      	ite	ne
 8002a16:	2301      	movne	r3, #1
 8002a18:	2300      	moveq	r3, #0
 8002a1a:	b2db      	uxtb	r3, r3
 8002a1c:	2b00      	cmp	r3, #0
 8002a1e:	d001      	beq.n	8002a24 <_Z18SystemClock_Configv+0xd4>
  {
    Error_Handler();
 8002a20:	f000 f9fe 	bl	8002e20 <Error_Handler>
  }
}
 8002a24:	bf00      	nop
 8002a26:	3750      	adds	r7, #80	; 0x50
 8002a28:	46bd      	mov	sp, r7
 8002a2a:	bd80      	pop	{r7, pc}
 8002a2c:	40023800 	.word	0x40023800
 8002a30:	40007000 	.word	0x40007000

08002a34 <_Z24PeriphCommonClock_Configv>:
/**
  * @brief Peripherals Common Clock Configuration
  * @retval None
  */
void PeriphCommonClock_Config(void)
{
 8002a34:	b580      	push	{r7, lr}
 8002a36:	b086      	sub	sp, #24
 8002a38:	af00      	add	r7, sp, #0
  RCC_PeriphCLKInitTypeDef PeriphClkInitStruct = {0};
 8002a3a:	463b      	mov	r3, r7
 8002a3c:	2200      	movs	r2, #0
 8002a3e:	601a      	str	r2, [r3, #0]
 8002a40:	605a      	str	r2, [r3, #4]
 8002a42:	609a      	str	r2, [r3, #8]
 8002a44:	60da      	str	r2, [r3, #12]
 8002a46:	611a      	str	r2, [r3, #16]
 8002a48:	615a      	str	r2, [r3, #20]

  /** Initializes the peripherals clock
  */
  PeriphClkInitStruct.PeriphClockSelection = RCC_PERIPHCLK_I2S;
 8002a4a:	2301      	movs	r3, #1
 8002a4c:	603b      	str	r3, [r7, #0]
  PeriphClkInitStruct.PLLI2S.PLLI2SN = 200;
 8002a4e:	23c8      	movs	r3, #200	; 0xc8
 8002a50:	60bb      	str	r3, [r7, #8]
  PeriphClkInitStruct.PLLI2S.PLLI2SM = 5;
 8002a52:	2305      	movs	r3, #5
 8002a54:	607b      	str	r3, [r7, #4]
  PeriphClkInitStruct.PLLI2S.PLLI2SR = 2;
 8002a56:	2302      	movs	r3, #2
 8002a58:	60fb      	str	r3, [r7, #12]
  if (HAL_RCCEx_PeriphCLKConfig(&PeriphClkInitStruct) != HAL_OK)
 8002a5a:	463b      	mov	r3, r7
 8002a5c:	4618      	mov	r0, r3
 8002a5e:	f002 fb61 	bl	8005124 <HAL_RCCEx_PeriphCLKConfig>
 8002a62:	4603      	mov	r3, r0
 8002a64:	2b00      	cmp	r3, #0
 8002a66:	bf14      	ite	ne
 8002a68:	2301      	movne	r3, #1
 8002a6a:	2300      	moveq	r3, #0
 8002a6c:	b2db      	uxtb	r3, r3
 8002a6e:	2b00      	cmp	r3, #0
 8002a70:	d001      	beq.n	8002a76 <_Z24PeriphCommonClock_Configv+0x42>
  {
    Error_Handler();
 8002a72:	f000 f9d5 	bl	8002e20 <Error_Handler>
  }
}
 8002a76:	bf00      	nop
 8002a78:	3718      	adds	r7, #24
 8002a7a:	46bd      	mov	sp, r7
 8002a7c:	bd80      	pop	{r7, pc}
	...

08002a80 <_ZL12MX_I2C1_Initv>:
  * @brief I2C1 Initialization Function
  * @param None
  * @retval None
  */
static void MX_I2C1_Init(void)
{
 8002a80:	b580      	push	{r7, lr}
 8002a82:	af00      	add	r7, sp, #0
  /* USER CODE END I2C1_Init 0 */

  /* USER CODE BEGIN I2C1_Init 1 */

  /* USER CODE END I2C1_Init 1 */
  hi2c1.Instance = I2C1;
 8002a84:	4b15      	ldr	r3, [pc, #84]	; (8002adc <_ZL12MX_I2C1_Initv+0x5c>)
 8002a86:	4a16      	ldr	r2, [pc, #88]	; (8002ae0 <_ZL12MX_I2C1_Initv+0x60>)
 8002a88:	601a      	str	r2, [r3, #0]
  hi2c1.Init.ClockSpeed = 100000;
 8002a8a:	4b14      	ldr	r3, [pc, #80]	; (8002adc <_ZL12MX_I2C1_Initv+0x5c>)
 8002a8c:	4a15      	ldr	r2, [pc, #84]	; (8002ae4 <_ZL12MX_I2C1_Initv+0x64>)
 8002a8e:	605a      	str	r2, [r3, #4]
  hi2c1.Init.DutyCycle = I2C_DUTYCYCLE_2;
 8002a90:	4b12      	ldr	r3, [pc, #72]	; (8002adc <_ZL12MX_I2C1_Initv+0x5c>)
 8002a92:	2200      	movs	r2, #0
 8002a94:	609a      	str	r2, [r3, #8]
  hi2c1.Init.OwnAddress1 = 0;
 8002a96:	4b11      	ldr	r3, [pc, #68]	; (8002adc <_ZL12MX_I2C1_Initv+0x5c>)
 8002a98:	2200      	movs	r2, #0
 8002a9a:	60da      	str	r2, [r3, #12]
  hi2c1.Init.AddressingMode = I2C_ADDRESSINGMODE_7BIT;
 8002a9c:	4b0f      	ldr	r3, [pc, #60]	; (8002adc <_ZL12MX_I2C1_Initv+0x5c>)
 8002a9e:	f44f 4280 	mov.w	r2, #16384	; 0x4000
 8002aa2:	611a      	str	r2, [r3, #16]
  hi2c1.Init.DualAddressMode = I2C_DUALADDRESS_DISABLE;
 8002aa4:	4b0d      	ldr	r3, [pc, #52]	; (8002adc <_ZL12MX_I2C1_Initv+0x5c>)
 8002aa6:	2200      	movs	r2, #0
 8002aa8:	615a      	str	r2, [r3, #20]
  hi2c1.Init.OwnAddress2 = 0;
 8002aaa:	4b0c      	ldr	r3, [pc, #48]	; (8002adc <_ZL12MX_I2C1_Initv+0x5c>)
 8002aac:	2200      	movs	r2, #0
 8002aae:	619a      	str	r2, [r3, #24]
  hi2c1.Init.GeneralCallMode = I2C_GENERALCALL_DISABLE;
 8002ab0:	4b0a      	ldr	r3, [pc, #40]	; (8002adc <_ZL12MX_I2C1_Initv+0x5c>)
 8002ab2:	2200      	movs	r2, #0
 8002ab4:	61da      	str	r2, [r3, #28]
  hi2c1.Init.NoStretchMode = I2C_NOSTRETCH_DISABLE;
 8002ab6:	4b09      	ldr	r3, [pc, #36]	; (8002adc <_ZL12MX_I2C1_Initv+0x5c>)
 8002ab8:	2200      	movs	r2, #0
 8002aba:	621a      	str	r2, [r3, #32]
  if (HAL_I2C_Init(&hi2c1) != HAL_OK)
 8002abc:	4807      	ldr	r0, [pc, #28]	; (8002adc <_ZL12MX_I2C1_Initv+0x5c>)
 8002abe:	f001 f8b5 	bl	8003c2c <HAL_I2C_Init>
 8002ac2:	4603      	mov	r3, r0
 8002ac4:	2b00      	cmp	r3, #0
 8002ac6:	bf14      	ite	ne
 8002ac8:	2301      	movne	r3, #1
 8002aca:	2300      	moveq	r3, #0
 8002acc:	b2db      	uxtb	r3, r3
 8002ace:	2b00      	cmp	r3, #0
 8002ad0:	d001      	beq.n	8002ad6 <_ZL12MX_I2C1_Initv+0x56>
  {
    Error_Handler();
 8002ad2:	f000 f9a5 	bl	8002e20 <Error_Handler>
  }
  /* USER CODE BEGIN I2C1_Init 2 */

  /* USER CODE END I2C1_Init 2 */

}
 8002ad6:	bf00      	nop
 8002ad8:	bd80      	pop	{r7, pc}
 8002ada:	bf00      	nop
 8002adc:	20000090 	.word	0x20000090
 8002ae0:	40005400 	.word	0x40005400
 8002ae4:	000186a0 	.word	0x000186a0

08002ae8 <_ZL12MX_I2S2_Initv>:
  * @brief I2S2 Initialization Function
  * @param None
  * @retval None
  */
static void MX_I2S2_Init(void)
{
 8002ae8:	b580      	push	{r7, lr}
 8002aea:	af00      	add	r7, sp, #0
  /* USER CODE END I2S2_Init 0 */

  /* USER CODE BEGIN I2S2_Init 1 */

  /* USER CODE END I2S2_Init 1 */
  hi2s2.Instance = SPI2;
 8002aec:	4b15      	ldr	r3, [pc, #84]	; (8002b44 <_ZL12MX_I2S2_Initv+0x5c>)
 8002aee:	4a16      	ldr	r2, [pc, #88]	; (8002b48 <_ZL12MX_I2S2_Initv+0x60>)
 8002af0:	601a      	str	r2, [r3, #0]
  hi2s2.Init.Mode = I2S_MODE_MASTER_TX;
 8002af2:	4b14      	ldr	r3, [pc, #80]	; (8002b44 <_ZL12MX_I2S2_Initv+0x5c>)
 8002af4:	f44f 7200 	mov.w	r2, #512	; 0x200
 8002af8:	605a      	str	r2, [r3, #4]
  hi2s2.Init.Standard = I2S_STANDARD_PHILIPS;
 8002afa:	4b12      	ldr	r3, [pc, #72]	; (8002b44 <_ZL12MX_I2S2_Initv+0x5c>)
 8002afc:	2200      	movs	r2, #0
 8002afe:	609a      	str	r2, [r3, #8]
  hi2s2.Init.DataFormat = I2S_DATAFORMAT_16B;
 8002b00:	4b10      	ldr	r3, [pc, #64]	; (8002b44 <_ZL12MX_I2S2_Initv+0x5c>)
 8002b02:	2200      	movs	r2, #0
 8002b04:	60da      	str	r2, [r3, #12]
  hi2s2.Init.MCLKOutput = I2S_MCLKOUTPUT_DISABLE;
 8002b06:	4b0f      	ldr	r3, [pc, #60]	; (8002b44 <_ZL12MX_I2S2_Initv+0x5c>)
 8002b08:	2200      	movs	r2, #0
 8002b0a:	611a      	str	r2, [r3, #16]
  hi2s2.Init.AudioFreq = I2S_AUDIOFREQ_96K;
 8002b0c:	4b0d      	ldr	r3, [pc, #52]	; (8002b44 <_ZL12MX_I2S2_Initv+0x5c>)
 8002b0e:	4a0f      	ldr	r2, [pc, #60]	; (8002b4c <_ZL12MX_I2S2_Initv+0x64>)
 8002b10:	615a      	str	r2, [r3, #20]
  hi2s2.Init.CPOL = I2S_CPOL_LOW;
 8002b12:	4b0c      	ldr	r3, [pc, #48]	; (8002b44 <_ZL12MX_I2S2_Initv+0x5c>)
 8002b14:	2200      	movs	r2, #0
 8002b16:	619a      	str	r2, [r3, #24]
  hi2s2.Init.ClockSource = I2S_CLOCK_PLL;
 8002b18:	4b0a      	ldr	r3, [pc, #40]	; (8002b44 <_ZL12MX_I2S2_Initv+0x5c>)
 8002b1a:	2200      	movs	r2, #0
 8002b1c:	61da      	str	r2, [r3, #28]
  hi2s2.Init.FullDuplexMode = I2S_FULLDUPLEXMODE_ENABLE;
 8002b1e:	4b09      	ldr	r3, [pc, #36]	; (8002b44 <_ZL12MX_I2S2_Initv+0x5c>)
 8002b20:	2201      	movs	r2, #1
 8002b22:	621a      	str	r2, [r3, #32]
  if (HAL_I2S_Init(&hi2s2) != HAL_OK)
 8002b24:	4807      	ldr	r0, [pc, #28]	; (8002b44 <_ZL12MX_I2S2_Initv+0x5c>)
 8002b26:	f001 f9c5 	bl	8003eb4 <HAL_I2S_Init>
 8002b2a:	4603      	mov	r3, r0
 8002b2c:	2b00      	cmp	r3, #0
 8002b2e:	bf14      	ite	ne
 8002b30:	2301      	movne	r3, #1
 8002b32:	2300      	moveq	r3, #0
 8002b34:	b2db      	uxtb	r3, r3
 8002b36:	2b00      	cmp	r3, #0
 8002b38:	d001      	beq.n	8002b3e <_ZL12MX_I2S2_Initv+0x56>
  {
    Error_Handler();
 8002b3a:	f000 f971 	bl	8002e20 <Error_Handler>
  }
  /* USER CODE BEGIN I2S2_Init 2 */

  /* USER CODE END I2S2_Init 2 */

}
 8002b3e:	bf00      	nop
 8002b40:	bd80      	pop	{r7, pc}
 8002b42:	bf00      	nop
 8002b44:	200000e4 	.word	0x200000e4
 8002b48:	40003800 	.word	0x40003800
 8002b4c:	00017700 	.word	0x00017700

08002b50 <_ZL12MX_I2S3_Initv>:
  * @brief I2S3 Initialization Function
  * @param None
  * @retval None
  */
static void MX_I2S3_Init(void)
{
 8002b50:	b580      	push	{r7, lr}
 8002b52:	af00      	add	r7, sp, #0
  /* USER CODE END I2S3_Init 0 */

  /* USER CODE BEGIN I2S3_Init 1 */

  /* USER CODE END I2S3_Init 1 */
  hi2s3.Instance = SPI3;
 8002b54:	4b15      	ldr	r3, [pc, #84]	; (8002bac <_ZL12MX_I2S3_Initv+0x5c>)
 8002b56:	4a16      	ldr	r2, [pc, #88]	; (8002bb0 <_ZL12MX_I2S3_Initv+0x60>)
 8002b58:	601a      	str	r2, [r3, #0]
  hi2s3.Init.Mode = I2S_MODE_MASTER_TX;
 8002b5a:	4b14      	ldr	r3, [pc, #80]	; (8002bac <_ZL12MX_I2S3_Initv+0x5c>)
 8002b5c:	f44f 7200 	mov.w	r2, #512	; 0x200
 8002b60:	605a      	str	r2, [r3, #4]
  hi2s3.Init.Standard = I2S_STANDARD_PHILIPS;
 8002b62:	4b12      	ldr	r3, [pc, #72]	; (8002bac <_ZL12MX_I2S3_Initv+0x5c>)
 8002b64:	2200      	movs	r2, #0
 8002b66:	609a      	str	r2, [r3, #8]
  hi2s3.Init.DataFormat = I2S_DATAFORMAT_16B;
 8002b68:	4b10      	ldr	r3, [pc, #64]	; (8002bac <_ZL12MX_I2S3_Initv+0x5c>)
 8002b6a:	2200      	movs	r2, #0
 8002b6c:	60da      	str	r2, [r3, #12]
  hi2s3.Init.MCLKOutput = I2S_MCLKOUTPUT_ENABLE;
 8002b6e:	4b0f      	ldr	r3, [pc, #60]	; (8002bac <_ZL12MX_I2S3_Initv+0x5c>)
 8002b70:	f44f 7200 	mov.w	r2, #512	; 0x200
 8002b74:	611a      	str	r2, [r3, #16]
  hi2s3.Init.AudioFreq = I2S_AUDIOFREQ_96K;
 8002b76:	4b0d      	ldr	r3, [pc, #52]	; (8002bac <_ZL12MX_I2S3_Initv+0x5c>)
 8002b78:	4a0e      	ldr	r2, [pc, #56]	; (8002bb4 <_ZL12MX_I2S3_Initv+0x64>)
 8002b7a:	615a      	str	r2, [r3, #20]
  hi2s3.Init.CPOL = I2S_CPOL_LOW;
 8002b7c:	4b0b      	ldr	r3, [pc, #44]	; (8002bac <_ZL12MX_I2S3_Initv+0x5c>)
 8002b7e:	2200      	movs	r2, #0
 8002b80:	619a      	str	r2, [r3, #24]
  hi2s3.Init.ClockSource = I2S_CLOCK_PLL;
 8002b82:	4b0a      	ldr	r3, [pc, #40]	; (8002bac <_ZL12MX_I2S3_Initv+0x5c>)
 8002b84:	2200      	movs	r2, #0
 8002b86:	61da      	str	r2, [r3, #28]
  hi2s3.Init.FullDuplexMode = I2S_FULLDUPLEXMODE_DISABLE;
 8002b88:	4b08      	ldr	r3, [pc, #32]	; (8002bac <_ZL12MX_I2S3_Initv+0x5c>)
 8002b8a:	2200      	movs	r2, #0
 8002b8c:	621a      	str	r2, [r3, #32]
  if (HAL_I2S_Init(&hi2s3) != HAL_OK)
 8002b8e:	4807      	ldr	r0, [pc, #28]	; (8002bac <_ZL12MX_I2S3_Initv+0x5c>)
 8002b90:	f001 f990 	bl	8003eb4 <HAL_I2S_Init>
 8002b94:	4603      	mov	r3, r0
 8002b96:	2b00      	cmp	r3, #0
 8002b98:	bf14      	ite	ne
 8002b9a:	2301      	movne	r3, #1
 8002b9c:	2300      	moveq	r3, #0
 8002b9e:	b2db      	uxtb	r3, r3
 8002ba0:	2b00      	cmp	r3, #0
 8002ba2:	d001      	beq.n	8002ba8 <_ZL12MX_I2S3_Initv+0x58>
  {
    Error_Handler();
 8002ba4:	f000 f93c 	bl	8002e20 <Error_Handler>
  }
  /* USER CODE BEGIN I2S3_Init 2 */

  /* USER CODE END I2S3_Init 2 */

}
 8002ba8:	bf00      	nop
 8002baa:	bd80      	pop	{r7, pc}
 8002bac:	2000012c 	.word	0x2000012c
 8002bb0:	40003c00 	.word	0x40003c00
 8002bb4:	00017700 	.word	0x00017700

08002bb8 <_ZL12MX_SPI1_Initv>:
  * @brief SPI1 Initialization Function
  * @param None
  * @retval None
  */
static void MX_SPI1_Init(void)
{
 8002bb8:	b580      	push	{r7, lr}
 8002bba:	af00      	add	r7, sp, #0

  /* USER CODE BEGIN SPI1_Init 1 */

  /* USER CODE END SPI1_Init 1 */
  /* SPI1 parameter configuration*/
  hspi1.Instance = SPI1;
 8002bbc:	4b18      	ldr	r3, [pc, #96]	; (8002c20 <_ZL12MX_SPI1_Initv+0x68>)
 8002bbe:	4a19      	ldr	r2, [pc, #100]	; (8002c24 <_ZL12MX_SPI1_Initv+0x6c>)
 8002bc0:	601a      	str	r2, [r3, #0]
  hspi1.Init.Mode = SPI_MODE_SLAVE;
 8002bc2:	4b17      	ldr	r3, [pc, #92]	; (8002c20 <_ZL12MX_SPI1_Initv+0x68>)
 8002bc4:	2200      	movs	r2, #0
 8002bc6:	605a      	str	r2, [r3, #4]
  hspi1.Init.Direction = SPI_DIRECTION_2LINES;
 8002bc8:	4b15      	ldr	r3, [pc, #84]	; (8002c20 <_ZL12MX_SPI1_Initv+0x68>)
 8002bca:	2200      	movs	r2, #0
 8002bcc:	609a      	str	r2, [r3, #8]
  hspi1.Init.DataSize = SPI_DATASIZE_8BIT;
 8002bce:	4b14      	ldr	r3, [pc, #80]	; (8002c20 <_ZL12MX_SPI1_Initv+0x68>)
 8002bd0:	2200      	movs	r2, #0
 8002bd2:	60da      	str	r2, [r3, #12]
  hspi1.Init.CLKPolarity = SPI_POLARITY_LOW;
 8002bd4:	4b12      	ldr	r3, [pc, #72]	; (8002c20 <_ZL12MX_SPI1_Initv+0x68>)
 8002bd6:	2200      	movs	r2, #0
 8002bd8:	611a      	str	r2, [r3, #16]
  hspi1.Init.CLKPhase = SPI_PHASE_1EDGE;
 8002bda:	4b11      	ldr	r3, [pc, #68]	; (8002c20 <_ZL12MX_SPI1_Initv+0x68>)
 8002bdc:	2200      	movs	r2, #0
 8002bde:	615a      	str	r2, [r3, #20]
  hspi1.Init.NSS = SPI_NSS_SOFT;
 8002be0:	4b0f      	ldr	r3, [pc, #60]	; (8002c20 <_ZL12MX_SPI1_Initv+0x68>)
 8002be2:	f44f 7200 	mov.w	r2, #512	; 0x200
 8002be6:	619a      	str	r2, [r3, #24]
  hspi1.Init.FirstBit = SPI_FIRSTBIT_MSB;
 8002be8:	4b0d      	ldr	r3, [pc, #52]	; (8002c20 <_ZL12MX_SPI1_Initv+0x68>)
 8002bea:	2200      	movs	r2, #0
 8002bec:	621a      	str	r2, [r3, #32]
  hspi1.Init.TIMode = SPI_TIMODE_DISABLE;
 8002bee:	4b0c      	ldr	r3, [pc, #48]	; (8002c20 <_ZL12MX_SPI1_Initv+0x68>)
 8002bf0:	2200      	movs	r2, #0
 8002bf2:	625a      	str	r2, [r3, #36]	; 0x24
  hspi1.Init.CRCCalculation = SPI_CRCCALCULATION_DISABLE;
 8002bf4:	4b0a      	ldr	r3, [pc, #40]	; (8002c20 <_ZL12MX_SPI1_Initv+0x68>)
 8002bf6:	2200      	movs	r2, #0
 8002bf8:	629a      	str	r2, [r3, #40]	; 0x28
  hspi1.Init.CRCPolynomial = 10;
 8002bfa:	4b09      	ldr	r3, [pc, #36]	; (8002c20 <_ZL12MX_SPI1_Initv+0x68>)
 8002bfc:	220a      	movs	r2, #10
 8002bfe:	62da      	str	r2, [r3, #44]	; 0x2c
  if (HAL_SPI_Init(&hspi1) != HAL_OK)
 8002c00:	4807      	ldr	r0, [pc, #28]	; (8002c20 <_ZL12MX_SPI1_Initv+0x68>)
 8002c02:	f002 fbdf 	bl	80053c4 <HAL_SPI_Init>
 8002c06:	4603      	mov	r3, r0
 8002c08:	2b00      	cmp	r3, #0
 8002c0a:	bf14      	ite	ne
 8002c0c:	2301      	movne	r3, #1
 8002c0e:	2300      	moveq	r3, #0
 8002c10:	b2db      	uxtb	r3, r3
 8002c12:	2b00      	cmp	r3, #0
 8002c14:	d001      	beq.n	8002c1a <_ZL12MX_SPI1_Initv+0x62>
  {
    Error_Handler();
 8002c16:	f000 f903 	bl	8002e20 <Error_Handler>
  }
  /* USER CODE BEGIN SPI1_Init 2 */

  /* USER CODE END SPI1_Init 2 */

}
 8002c1a:	bf00      	nop
 8002c1c:	bd80      	pop	{r7, pc}
 8002c1e:	bf00      	nop
 8002c20:	20000174 	.word	0x20000174
 8002c24:	40013000 	.word	0x40013000

08002c28 <_ZL19MX_USART2_UART_Initv>:
  * @brief USART2 Initialization Function
  * @param None
  * @retval None
  */
static void MX_USART2_UART_Init(void)
{
 8002c28:	b580      	push	{r7, lr}
 8002c2a:	af00      	add	r7, sp, #0
  /* USER CODE END USART2_Init 0 */

  /* USER CODE BEGIN USART2_Init 1 */

  /* USER CODE END USART2_Init 1 */
  huart2.Instance = USART2;
 8002c2c:	4b13      	ldr	r3, [pc, #76]	; (8002c7c <_ZL19MX_USART2_UART_Initv+0x54>)
 8002c2e:	4a14      	ldr	r2, [pc, #80]	; (8002c80 <_ZL19MX_USART2_UART_Initv+0x58>)
 8002c30:	601a      	str	r2, [r3, #0]
  huart2.Init.BaudRate = 115200;
 8002c32:	4b12      	ldr	r3, [pc, #72]	; (8002c7c <_ZL19MX_USART2_UART_Initv+0x54>)
 8002c34:	f44f 32e1 	mov.w	r2, #115200	; 0x1c200
 8002c38:	605a      	str	r2, [r3, #4]
  huart2.Init.WordLength = UART_WORDLENGTH_8B;
 8002c3a:	4b10      	ldr	r3, [pc, #64]	; (8002c7c <_ZL19MX_USART2_UART_Initv+0x54>)
 8002c3c:	2200      	movs	r2, #0
 8002c3e:	609a      	str	r2, [r3, #8]
  huart2.Init.StopBits = UART_STOPBITS_1;
 8002c40:	4b0e      	ldr	r3, [pc, #56]	; (8002c7c <_ZL19MX_USART2_UART_Initv+0x54>)
 8002c42:	2200      	movs	r2, #0
 8002c44:	60da      	str	r2, [r3, #12]
  huart2.Init.Parity = UART_PARITY_NONE;
 8002c46:	4b0d      	ldr	r3, [pc, #52]	; (8002c7c <_ZL19MX_USART2_UART_Initv+0x54>)
 8002c48:	2200      	movs	r2, #0
 8002c4a:	611a      	str	r2, [r3, #16]
  huart2.Init.Mode = UART_MODE_TX_RX;
 8002c4c:	4b0b      	ldr	r3, [pc, #44]	; (8002c7c <_ZL19MX_USART2_UART_Initv+0x54>)
 8002c4e:	220c      	movs	r2, #12
 8002c50:	615a      	str	r2, [r3, #20]
  huart2.Init.HwFlowCtl = UART_HWCONTROL_NONE;
 8002c52:	4b0a      	ldr	r3, [pc, #40]	; (8002c7c <_ZL19MX_USART2_UART_Initv+0x54>)
 8002c54:	2200      	movs	r2, #0
 8002c56:	619a      	str	r2, [r3, #24]
  huart2.Init.OverSampling = UART_OVERSAMPLING_16;
 8002c58:	4b08      	ldr	r3, [pc, #32]	; (8002c7c <_ZL19MX_USART2_UART_Initv+0x54>)
 8002c5a:	2200      	movs	r2, #0
 8002c5c:	61da      	str	r2, [r3, #28]
  if (HAL_UART_Init(&huart2) != HAL_OK)
 8002c5e:	4807      	ldr	r0, [pc, #28]	; (8002c7c <_ZL19MX_USART2_UART_Initv+0x54>)
 8002c60:	f002 fc39 	bl	80054d6 <HAL_UART_Init>
 8002c64:	4603      	mov	r3, r0
 8002c66:	2b00      	cmp	r3, #0
 8002c68:	bf14      	ite	ne
 8002c6a:	2301      	movne	r3, #1
 8002c6c:	2300      	moveq	r3, #0
 8002c6e:	b2db      	uxtb	r3, r3
 8002c70:	2b00      	cmp	r3, #0
 8002c72:	d001      	beq.n	8002c78 <_ZL19MX_USART2_UART_Initv+0x50>
  {
    Error_Handler();
 8002c74:	f000 f8d4 	bl	8002e20 <Error_Handler>
  }
  /* USER CODE BEGIN USART2_Init 2 */

  /* USER CODE END USART2_Init 2 */

}
 8002c78:	bf00      	nop
 8002c7a:	bd80      	pop	{r7, pc}
 8002c7c:	200001cc 	.word	0x200001cc
 8002c80:	40004400 	.word	0x40004400

08002c84 <_ZL12MX_GPIO_Initv>:
  * @brief GPIO Initialization Function
  * @param None
  * @retval None
  */
static void MX_GPIO_Init(void)
{
 8002c84:	b580      	push	{r7, lr}
 8002c86:	b08c      	sub	sp, #48	; 0x30
 8002c88:	af00      	add	r7, sp, #0
  GPIO_InitTypeDef GPIO_InitStruct = {0};
 8002c8a:	f107 031c 	add.w	r3, r7, #28
 8002c8e:	2200      	movs	r2, #0
 8002c90:	601a      	str	r2, [r3, #0]
 8002c92:	605a      	str	r2, [r3, #4]
 8002c94:	609a      	str	r2, [r3, #8]
 8002c96:	60da      	str	r2, [r3, #12]
 8002c98:	611a      	str	r2, [r3, #16]
/* USER CODE BEGIN MX_GPIO_Init_1 */
/* USER CODE END MX_GPIO_Init_1 */

  /* GPIO Ports Clock Enable */
  __HAL_RCC_GPIOE_CLK_ENABLE();
 8002c9a:	2300      	movs	r3, #0
 8002c9c:	61bb      	str	r3, [r7, #24]
 8002c9e:	4b5b      	ldr	r3, [pc, #364]	; (8002e0c <_ZL12MX_GPIO_Initv+0x188>)
 8002ca0:	6b1b      	ldr	r3, [r3, #48]	; 0x30
 8002ca2:	4a5a      	ldr	r2, [pc, #360]	; (8002e0c <_ZL12MX_GPIO_Initv+0x188>)
 8002ca4:	f043 0310 	orr.w	r3, r3, #16
 8002ca8:	6313      	str	r3, [r2, #48]	; 0x30
 8002caa:	4b58      	ldr	r3, [pc, #352]	; (8002e0c <_ZL12MX_GPIO_Initv+0x188>)
 8002cac:	6b1b      	ldr	r3, [r3, #48]	; 0x30
 8002cae:	f003 0310 	and.w	r3, r3, #16
 8002cb2:	61bb      	str	r3, [r7, #24]
 8002cb4:	69bb      	ldr	r3, [r7, #24]
  __HAL_RCC_GPIOC_CLK_ENABLE();
 8002cb6:	2300      	movs	r3, #0
 8002cb8:	617b      	str	r3, [r7, #20]
 8002cba:	4b54      	ldr	r3, [pc, #336]	; (8002e0c <_ZL12MX_GPIO_Initv+0x188>)
 8002cbc:	6b1b      	ldr	r3, [r3, #48]	; 0x30
 8002cbe:	4a53      	ldr	r2, [pc, #332]	; (8002e0c <_ZL12MX_GPIO_Initv+0x188>)
 8002cc0:	f043 0304 	orr.w	r3, r3, #4
 8002cc4:	6313      	str	r3, [r2, #48]	; 0x30
 8002cc6:	4b51      	ldr	r3, [pc, #324]	; (8002e0c <_ZL12MX_GPIO_Initv+0x188>)
 8002cc8:	6b1b      	ldr	r3, [r3, #48]	; 0x30
 8002cca:	f003 0304 	and.w	r3, r3, #4
 8002cce:	617b      	str	r3, [r7, #20]
 8002cd0:	697b      	ldr	r3, [r7, #20]
  __HAL_RCC_GPIOH_CLK_ENABLE();
 8002cd2:	2300      	movs	r3, #0
 8002cd4:	613b      	str	r3, [r7, #16]
 8002cd6:	4b4d      	ldr	r3, [pc, #308]	; (8002e0c <_ZL12MX_GPIO_Initv+0x188>)
 8002cd8:	6b1b      	ldr	r3, [r3, #48]	; 0x30
 8002cda:	4a4c      	ldr	r2, [pc, #304]	; (8002e0c <_ZL12MX_GPIO_Initv+0x188>)
 8002cdc:	f043 0380 	orr.w	r3, r3, #128	; 0x80
 8002ce0:	6313      	str	r3, [r2, #48]	; 0x30
 8002ce2:	4b4a      	ldr	r3, [pc, #296]	; (8002e0c <_ZL12MX_GPIO_Initv+0x188>)
 8002ce4:	6b1b      	ldr	r3, [r3, #48]	; 0x30
 8002ce6:	f003 0380 	and.w	r3, r3, #128	; 0x80
 8002cea:	613b      	str	r3, [r7, #16]
 8002cec:	693b      	ldr	r3, [r7, #16]
  __HAL_RCC_GPIOA_CLK_ENABLE();
 8002cee:	2300      	movs	r3, #0
 8002cf0:	60fb      	str	r3, [r7, #12]
 8002cf2:	4b46      	ldr	r3, [pc, #280]	; (8002e0c <_ZL12MX_GPIO_Initv+0x188>)
 8002cf4:	6b1b      	ldr	r3, [r3, #48]	; 0x30
 8002cf6:	4a45      	ldr	r2, [pc, #276]	; (8002e0c <_ZL12MX_GPIO_Initv+0x188>)
 8002cf8:	f043 0301 	orr.w	r3, r3, #1
 8002cfc:	6313      	str	r3, [r2, #48]	; 0x30
 8002cfe:	4b43      	ldr	r3, [pc, #268]	; (8002e0c <_ZL12MX_GPIO_Initv+0x188>)
 8002d00:	6b1b      	ldr	r3, [r3, #48]	; 0x30
 8002d02:	f003 0301 	and.w	r3, r3, #1
 8002d06:	60fb      	str	r3, [r7, #12]
 8002d08:	68fb      	ldr	r3, [r7, #12]
  __HAL_RCC_GPIOB_CLK_ENABLE();
 8002d0a:	2300      	movs	r3, #0
 8002d0c:	60bb      	str	r3, [r7, #8]
 8002d0e:	4b3f      	ldr	r3, [pc, #252]	; (8002e0c <_ZL12MX_GPIO_Initv+0x188>)
 8002d10:	6b1b      	ldr	r3, [r3, #48]	; 0x30
 8002d12:	4a3e      	ldr	r2, [pc, #248]	; (8002e0c <_ZL12MX_GPIO_Initv+0x188>)
 8002d14:	f043 0302 	orr.w	r3, r3, #2
 8002d18:	6313      	str	r3, [r2, #48]	; 0x30
 8002d1a:	4b3c      	ldr	r3, [pc, #240]	; (8002e0c <_ZL12MX_GPIO_Initv+0x188>)
 8002d1c:	6b1b      	ldr	r3, [r3, #48]	; 0x30
 8002d1e:	f003 0302 	and.w	r3, r3, #2
 8002d22:	60bb      	str	r3, [r7, #8]
 8002d24:	68bb      	ldr	r3, [r7, #8]
  __HAL_RCC_GPIOD_CLK_ENABLE();
 8002d26:	2300      	movs	r3, #0
 8002d28:	607b      	str	r3, [r7, #4]
 8002d2a:	4b38      	ldr	r3, [pc, #224]	; (8002e0c <_ZL12MX_GPIO_Initv+0x188>)
 8002d2c:	6b1b      	ldr	r3, [r3, #48]	; 0x30
 8002d2e:	4a37      	ldr	r2, [pc, #220]	; (8002e0c <_ZL12MX_GPIO_Initv+0x188>)
 8002d30:	f043 0308 	orr.w	r3, r3, #8
 8002d34:	6313      	str	r3, [r2, #48]	; 0x30
 8002d36:	4b35      	ldr	r3, [pc, #212]	; (8002e0c <_ZL12MX_GPIO_Initv+0x188>)
 8002d38:	6b1b      	ldr	r3, [r3, #48]	; 0x30
 8002d3a:	f003 0308 	and.w	r3, r3, #8
 8002d3e:	607b      	str	r3, [r7, #4]
 8002d40:	687b      	ldr	r3, [r7, #4]

  /*Configure GPIO pin Output Level */
  HAL_GPIO_WritePin(CS_I2C_SPI_GPIO_Port, CS_I2C_SPI_Pin, GPIO_PIN_RESET);
 8002d42:	2200      	movs	r2, #0
 8002d44:	2108      	movs	r1, #8
 8002d46:	4832      	ldr	r0, [pc, #200]	; (8002e10 <_ZL12MX_GPIO_Initv+0x18c>)
 8002d48:	f000 ff56 	bl	8003bf8 <HAL_GPIO_WritePin>

  /*Configure GPIO pin Output Level */
  HAL_GPIO_WritePin(OTG_FS_PowerSwitchOn_GPIO_Port, OTG_FS_PowerSwitchOn_Pin, GPIO_PIN_SET);
 8002d4c:	2201      	movs	r2, #1
 8002d4e:	2101      	movs	r1, #1
 8002d50:	4830      	ldr	r0, [pc, #192]	; (8002e14 <_ZL12MX_GPIO_Initv+0x190>)
 8002d52:	f000 ff51 	bl	8003bf8 <HAL_GPIO_WritePin>

  /*Configure GPIO pin Output Level */
  HAL_GPIO_WritePin(GPIOD, LD4_Pin|LD3_Pin|LD5_Pin|LD6_Pin
 8002d56:	2200      	movs	r2, #0
 8002d58:	f24f 0110 	movw	r1, #61456	; 0xf010
 8002d5c:	482e      	ldr	r0, [pc, #184]	; (8002e18 <_ZL12MX_GPIO_Initv+0x194>)
 8002d5e:	f000 ff4b 	bl	8003bf8 <HAL_GPIO_WritePin>
                          |Audio_RST_Pin, GPIO_PIN_RESET);

  /*Configure GPIO pin : DATA_Ready_Pin */
  GPIO_InitStruct.Pin = DATA_Ready_Pin;
 8002d62:	2304      	movs	r3, #4
 8002d64:	61fb      	str	r3, [r7, #28]
  GPIO_InitStruct.Mode = GPIO_MODE_INPUT;
 8002d66:	2300      	movs	r3, #0
 8002d68:	623b      	str	r3, [r7, #32]
  GPIO_InitStruct.Pull = GPIO_NOPULL;
 8002d6a:	2300      	movs	r3, #0
 8002d6c:	627b      	str	r3, [r7, #36]	; 0x24
  HAL_GPIO_Init(DATA_Ready_GPIO_Port, &GPIO_InitStruct);
 8002d6e:	f107 031c 	add.w	r3, r7, #28
 8002d72:	4619      	mov	r1, r3
 8002d74:	4826      	ldr	r0, [pc, #152]	; (8002e10 <_ZL12MX_GPIO_Initv+0x18c>)
 8002d76:	f000 fdbb 	bl	80038f0 <HAL_GPIO_Init>

  /*Configure GPIO pin : CS_I2C_SPI_Pin */
  GPIO_InitStruct.Pin = CS_I2C_SPI_Pin;
 8002d7a:	2308      	movs	r3, #8
 8002d7c:	61fb      	str	r3, [r7, #28]
  GPIO_InitStruct.Mode = GPIO_MODE_OUTPUT_PP;
 8002d7e:	2301      	movs	r3, #1
 8002d80:	623b      	str	r3, [r7, #32]
  GPIO_InitStruct.Pull = GPIO_NOPULL;
 8002d82:	2300      	movs	r3, #0
 8002d84:	627b      	str	r3, [r7, #36]	; 0x24
  GPIO_InitStruct.Speed = GPIO_SPEED_FREQ_LOW;
 8002d86:	2300      	movs	r3, #0
 8002d88:	62bb      	str	r3, [r7, #40]	; 0x28
  HAL_GPIO_Init(CS_I2C_SPI_GPIO_Port, &GPIO_InitStruct);
 8002d8a:	f107 031c 	add.w	r3, r7, #28
 8002d8e:	4619      	mov	r1, r3
 8002d90:	481f      	ldr	r0, [pc, #124]	; (8002e10 <_ZL12MX_GPIO_Initv+0x18c>)
 8002d92:	f000 fdad 	bl	80038f0 <HAL_GPIO_Init>

  /*Configure GPIO pins : INT1_Pin INT2_Pin MEMS_INT2_Pin */
  GPIO_InitStruct.Pin = INT1_Pin|INT2_Pin|MEMS_INT2_Pin;
 8002d96:	2332      	movs	r3, #50	; 0x32
 8002d98:	61fb      	str	r3, [r7, #28]
  GPIO_InitStruct.Mode = GPIO_MODE_EVT_RISING;
 8002d9a:	f44f 1390 	mov.w	r3, #1179648	; 0x120000
 8002d9e:	623b      	str	r3, [r7, #32]
  GPIO_InitStruct.Pull = GPIO_NOPULL;
 8002da0:	2300      	movs	r3, #0
 8002da2:	627b      	str	r3, [r7, #36]	; 0x24
  HAL_GPIO_Init(GPIOE, &GPIO_InitStruct);
 8002da4:	f107 031c 	add.w	r3, r7, #28
 8002da8:	4619      	mov	r1, r3
 8002daa:	4819      	ldr	r0, [pc, #100]	; (8002e10 <_ZL12MX_GPIO_Initv+0x18c>)
 8002dac:	f000 fda0 	bl	80038f0 <HAL_GPIO_Init>

  /*Configure GPIO pin : OTG_FS_PowerSwitchOn_Pin */
  GPIO_InitStruct.Pin = OTG_FS_PowerSwitchOn_Pin;
 8002db0:	2301      	movs	r3, #1
 8002db2:	61fb      	str	r3, [r7, #28]
  GPIO_InitStruct.Mode = GPIO_MODE_OUTPUT_PP;
 8002db4:	2301      	movs	r3, #1
 8002db6:	623b      	str	r3, [r7, #32]
  GPIO_InitStruct.Pull = GPIO_NOPULL;
 8002db8:	2300      	movs	r3, #0
 8002dba:	627b      	str	r3, [r7, #36]	; 0x24
  GPIO_InitStruct.Speed = GPIO_SPEED_FREQ_LOW;
 8002dbc:	2300      	movs	r3, #0
 8002dbe:	62bb      	str	r3, [r7, #40]	; 0x28
  HAL_GPIO_Init(OTG_FS_PowerSwitchOn_GPIO_Port, &GPIO_InitStruct);
 8002dc0:	f107 031c 	add.w	r3, r7, #28
 8002dc4:	4619      	mov	r1, r3
 8002dc6:	4813      	ldr	r0, [pc, #76]	; (8002e14 <_ZL12MX_GPIO_Initv+0x190>)
 8002dc8:	f000 fd92 	bl	80038f0 <HAL_GPIO_Init>

  /*Configure GPIO pin : PA0 */
  GPIO_InitStruct.Pin = GPIO_PIN_0;
 8002dcc:	2301      	movs	r3, #1
 8002dce:	61fb      	str	r3, [r7, #28]
  GPIO_InitStruct.Mode = GPIO_MODE_EVT_RISING;
 8002dd0:	f44f 1390 	mov.w	r3, #1179648	; 0x120000
 8002dd4:	623b      	str	r3, [r7, #32]
  GPIO_InitStruct.Pull = GPIO_NOPULL;
 8002dd6:	2300      	movs	r3, #0
 8002dd8:	627b      	str	r3, [r7, #36]	; 0x24
  HAL_GPIO_Init(GPIOA, &GPIO_InitStruct);
 8002dda:	f107 031c 	add.w	r3, r7, #28
 8002dde:	4619      	mov	r1, r3
 8002de0:	480e      	ldr	r0, [pc, #56]	; (8002e1c <_ZL12MX_GPIO_Initv+0x198>)
 8002de2:	f000 fd85 	bl	80038f0 <HAL_GPIO_Init>

  /*Configure GPIO pins : LD4_Pin LD3_Pin LD5_Pin LD6_Pin
                           Audio_RST_Pin */
  GPIO_InitStruct.Pin = LD4_Pin|LD3_Pin|LD5_Pin|LD6_Pin
 8002de6:	f24f 0310 	movw	r3, #61456	; 0xf010
 8002dea:	61fb      	str	r3, [r7, #28]
                          |Audio_RST_Pin;
  GPIO_InitStruct.Mode = GPIO_MODE_OUTPUT_PP;
 8002dec:	2301      	movs	r3, #1
 8002dee:	623b      	str	r3, [r7, #32]
  GPIO_InitStruct.Pull = GPIO_NOPULL;
 8002df0:	2300      	movs	r3, #0
 8002df2:	627b      	str	r3, [r7, #36]	; 0x24
  GPIO_InitStruct.Speed = GPIO_SPEED_FREQ_LOW;
 8002df4:	2300      	movs	r3, #0
 8002df6:	62bb      	str	r3, [r7, #40]	; 0x28
  HAL_GPIO_Init(GPIOD, &GPIO_InitStruct);
 8002df8:	f107 031c 	add.w	r3, r7, #28
 8002dfc:	4619      	mov	r1, r3
 8002dfe:	4806      	ldr	r0, [pc, #24]	; (8002e18 <_ZL12MX_GPIO_Initv+0x194>)
 8002e00:	f000 fd76 	bl	80038f0 <HAL_GPIO_Init>

/* USER CODE BEGIN MX_GPIO_Init_2 */
/* USER CODE END MX_GPIO_Init_2 */
}
 8002e04:	bf00      	nop
 8002e06:	3730      	adds	r7, #48	; 0x30
 8002e08:	46bd      	mov	sp, r7
 8002e0a:	bd80      	pop	{r7, pc}
 8002e0c:	40023800 	.word	0x40023800
 8002e10:	40021000 	.word	0x40021000
 8002e14:	40020800 	.word	0x40020800
 8002e18:	40020c00 	.word	0x40020c00
 8002e1c:	40020000 	.word	0x40020000

08002e20 <Error_Handler>:
/**
  * @brief  This function is executed in case of error occurrence.
  * @retval None
  */
void Error_Handler(void)
{
 8002e20:	b480      	push	{r7}
 8002e22:	af00      	add	r7, sp, #0
  \details Disables IRQ interrupts by setting the I-bit in the CPSR.
           Can only be executed in Privileged modes.
 */
__STATIC_FORCEINLINE void __disable_irq(void)
{
  __ASM volatile ("cpsid i" : : : "memory");
 8002e24:	b672      	cpsid	i
}
 8002e26:	bf00      	nop
  /* USER CODE BEGIN Error_Handler_Debug */
  /* User can add his own implementation to report the HAL error return state */
  __disable_irq();
  while (1)
 8002e28:	e7fe      	b.n	8002e28 <Error_Handler+0x8>
	...

08002e2c <_Z41__static_initialization_and_destruction_0ii>:
  {
  }
  /* USER CODE END Error_Handler_Debug */
}
 8002e2c:	b580      	push	{r7, lr}
 8002e2e:	b082      	sub	sp, #8
 8002e30:	af00      	add	r7, sp, #0
 8002e32:	6078      	str	r0, [r7, #4]
 8002e34:	6039      	str	r1, [r7, #0]
 8002e36:	687b      	ldr	r3, [r7, #4]
 8002e38:	2b01      	cmp	r3, #1
 8002e3a:	d107      	bne.n	8002e4c <_Z41__static_initialization_and_destruction_0ii+0x20>
 8002e3c:	683b      	ldr	r3, [r7, #0]
 8002e3e:	f64f 72ff 	movw	r2, #65535	; 0xffff
 8002e42:	4293      	cmp	r3, r2
 8002e44:	d102      	bne.n	8002e4c <_Z41__static_initialization_and_destruction_0ii+0x20>
Adafruit_ICM20948 icm;
 8002e46:	4809      	ldr	r0, [pc, #36]	; (8002e6c <_Z41__static_initialization_and_destruction_0ii+0x40>)
 8002e48:	f7fe f9d8 	bl	80011fc <_ZN17Adafruit_ICM20948C1Ev>
 8002e4c:	687b      	ldr	r3, [r7, #4]
 8002e4e:	2b00      	cmp	r3, #0
 8002e50:	d107      	bne.n	8002e62 <_Z41__static_initialization_and_destruction_0ii+0x36>
 8002e52:	683b      	ldr	r3, [r7, #0]
 8002e54:	f64f 72ff 	movw	r2, #65535	; 0xffff
 8002e58:	4293      	cmp	r3, r2
 8002e5a:	d102      	bne.n	8002e62 <_Z41__static_initialization_and_destruction_0ii+0x36>
 8002e5c:	4803      	ldr	r0, [pc, #12]	; (8002e6c <_Z41__static_initialization_and_destruction_0ii+0x40>)
 8002e5e:	f7ff fcc3 	bl	80027e8 <_ZN17Adafruit_ICM20948D1Ev>
}
 8002e62:	bf00      	nop
 8002e64:	3708      	adds	r7, #8
 8002e66:	46bd      	mov	sp, r7
 8002e68:	bd80      	pop	{r7, pc}
 8002e6a:	bf00      	nop
 8002e6c:	20000210 	.word	0x20000210

08002e70 <_GLOBAL__sub_I_hi2c1>:
 8002e70:	b580      	push	{r7, lr}
 8002e72:	af00      	add	r7, sp, #0
 8002e74:	f64f 71ff 	movw	r1, #65535	; 0xffff
 8002e78:	2001      	movs	r0, #1
 8002e7a:	f7ff ffd7 	bl	8002e2c <_Z41__static_initialization_and_destruction_0ii>
 8002e7e:	bd80      	pop	{r7, pc}

08002e80 <_GLOBAL__sub_D_hi2c1>:
 8002e80:	b580      	push	{r7, lr}
 8002e82:	af00      	add	r7, sp, #0
 8002e84:	f64f 71ff 	movw	r1, #65535	; 0xffff
 8002e88:	2000      	movs	r0, #0
 8002e8a:	f7ff ffcf 	bl	8002e2c <_Z41__static_initialization_and_destruction_0ii>
 8002e8e:	bd80      	pop	{r7, pc}

08002e90 <HAL_MspInit>:
/* USER CODE END 0 */
/**
  * Initializes the Global MSP.
  */
void HAL_MspInit(void)
{
 8002e90:	b580      	push	{r7, lr}
 8002e92:	b082      	sub	sp, #8
 8002e94:	af00      	add	r7, sp, #0
  /* USER CODE BEGIN MspInit 0 */

  /* USER CODE END MspInit 0 */

  __HAL_RCC_SYSCFG_CLK_ENABLE();
 8002e96:	2300      	movs	r3, #0
 8002e98:	607b      	str	r3, [r7, #4]
 8002e9a:	4b10      	ldr	r3, [pc, #64]	; (8002edc <HAL_MspInit+0x4c>)
 8002e9c:	6c5b      	ldr	r3, [r3, #68]	; 0x44
 8002e9e:	4a0f      	ldr	r2, [pc, #60]	; (8002edc <HAL_MspInit+0x4c>)
 8002ea0:	f443 4380 	orr.w	r3, r3, #16384	; 0x4000
 8002ea4:	6453      	str	r3, [r2, #68]	; 0x44
 8002ea6:	4b0d      	ldr	r3, [pc, #52]	; (8002edc <HAL_MspInit+0x4c>)
 8002ea8:	6c5b      	ldr	r3, [r3, #68]	; 0x44
 8002eaa:	f403 4380 	and.w	r3, r3, #16384	; 0x4000
 8002eae:	607b      	str	r3, [r7, #4]
 8002eb0:	687b      	ldr	r3, [r7, #4]
  __HAL_RCC_PWR_CLK_ENABLE();
 8002eb2:	2300      	movs	r3, #0
 8002eb4:	603b      	str	r3, [r7, #0]
 8002eb6:	4b09      	ldr	r3, [pc, #36]	; (8002edc <HAL_MspInit+0x4c>)
 8002eb8:	6c1b      	ldr	r3, [r3, #64]	; 0x40
 8002eba:	4a08      	ldr	r2, [pc, #32]	; (8002edc <HAL_MspInit+0x4c>)
 8002ebc:	f043 5380 	orr.w	r3, r3, #268435456	; 0x10000000
 8002ec0:	6413      	str	r3, [r2, #64]	; 0x40
 8002ec2:	4b06      	ldr	r3, [pc, #24]	; (8002edc <HAL_MspInit+0x4c>)
 8002ec4:	6c1b      	ldr	r3, [r3, #64]	; 0x40
 8002ec6:	f003 5380 	and.w	r3, r3, #268435456	; 0x10000000
 8002eca:	603b      	str	r3, [r7, #0]
 8002ecc:	683b      	ldr	r3, [r7, #0]

  HAL_NVIC_SetPriorityGrouping(NVIC_PRIORITYGROUP_0);
 8002ece:	2007      	movs	r0, #7
 8002ed0:	f000 fc3a 	bl	8003748 <HAL_NVIC_SetPriorityGrouping>
  /* System interrupt init*/

  /* USER CODE BEGIN MspInit 1 */

  /* USER CODE END MspInit 1 */
}
 8002ed4:	bf00      	nop
 8002ed6:	3708      	adds	r7, #8
 8002ed8:	46bd      	mov	sp, r7
 8002eda:	bd80      	pop	{r7, pc}
 8002edc:	40023800 	.word	0x40023800

08002ee0 <HAL_I2C_MspInit>:
* This function configures the hardware resources used in this example
* @param hi2c: I2C handle pointer
* @retval None
*/
void HAL_I2C_MspInit(I2C_HandleTypeDef* hi2c)
{
 8002ee0:	b580      	push	{r7, lr}
 8002ee2:	b08c      	sub	sp, #48	; 0x30
 8002ee4:	af00      	add	r7, sp, #0
 8002ee6:	6078      	str	r0, [r7, #4]
  GPIO_InitTypeDef GPIO_InitStruct = {0};
 8002ee8:	f107 031c 	add.w	r3, r7, #28
 8002eec:	2200      	movs	r2, #0
 8002eee:	601a      	str	r2, [r3, #0]
 8002ef0:	605a      	str	r2, [r3, #4]
 8002ef2:	609a      	str	r2, [r3, #8]
 8002ef4:	60da      	str	r2, [r3, #12]
 8002ef6:	611a      	str	r2, [r3, #16]
  if(hi2c->Instance==I2C1)
 8002ef8:	687b      	ldr	r3, [r7, #4]
 8002efa:	681b      	ldr	r3, [r3, #0]
 8002efc:	4a42      	ldr	r2, [pc, #264]	; (8003008 <HAL_I2C_MspInit+0x128>)
 8002efe:	4293      	cmp	r3, r2
 8002f00:	d12d      	bne.n	8002f5e <HAL_I2C_MspInit+0x7e>
  {
  /* USER CODE BEGIN I2C1_MspInit 0 */

  /* USER CODE END I2C1_MspInit 0 */

    __HAL_RCC_GPIOB_CLK_ENABLE();
 8002f02:	2300      	movs	r3, #0
 8002f04:	61bb      	str	r3, [r7, #24]
 8002f06:	4b41      	ldr	r3, [pc, #260]	; (800300c <HAL_I2C_MspInit+0x12c>)
 8002f08:	6b1b      	ldr	r3, [r3, #48]	; 0x30
 8002f0a:	4a40      	ldr	r2, [pc, #256]	; (800300c <HAL_I2C_MspInit+0x12c>)
 8002f0c:	f043 0302 	orr.w	r3, r3, #2
 8002f10:	6313      	str	r3, [r2, #48]	; 0x30
 8002f12:	4b3e      	ldr	r3, [pc, #248]	; (800300c <HAL_I2C_MspInit+0x12c>)
 8002f14:	6b1b      	ldr	r3, [r3, #48]	; 0x30
 8002f16:	f003 0302 	and.w	r3, r3, #2
 8002f1a:	61bb      	str	r3, [r7, #24]
 8002f1c:	69bb      	ldr	r3, [r7, #24]
    /**I2C1 GPIO Configuration
    PB6     ------> I2C1_SCL
    PB9     ------> I2C1_SDA
    */
    GPIO_InitStruct.Pin = Audio_SCL_Pin|Audio_SDA_Pin;
 8002f1e:	f44f 7310 	mov.w	r3, #576	; 0x240
 8002f22:	61fb      	str	r3, [r7, #28]
    GPIO_InitStruct.Mode = GPIO_MODE_AF_OD;
 8002f24:	2312      	movs	r3, #18
 8002f26:	623b      	str	r3, [r7, #32]
    GPIO_InitStruct.Pull = GPIO_PULLUP;
 8002f28:	2301      	movs	r3, #1
 8002f2a:	627b      	str	r3, [r7, #36]	; 0x24
    GPIO_InitStruct.Speed = GPIO_SPEED_FREQ_LOW;
 8002f2c:	2300      	movs	r3, #0
 8002f2e:	62bb      	str	r3, [r7, #40]	; 0x28
    GPIO_InitStruct.Alternate = GPIO_AF4_I2C1;
 8002f30:	2304      	movs	r3, #4
 8002f32:	62fb      	str	r3, [r7, #44]	; 0x2c
    HAL_GPIO_Init(GPIOB, &GPIO_InitStruct);
 8002f34:	f107 031c 	add.w	r3, r7, #28
 8002f38:	4619      	mov	r1, r3
 8002f3a:	4835      	ldr	r0, [pc, #212]	; (8003010 <HAL_I2C_MspInit+0x130>)
 8002f3c:	f000 fcd8 	bl	80038f0 <HAL_GPIO_Init>

    /* Peripheral clock enable */
    __HAL_RCC_I2C1_CLK_ENABLE();
 8002f40:	2300      	movs	r3, #0
 8002f42:	617b      	str	r3, [r7, #20]
 8002f44:	4b31      	ldr	r3, [pc, #196]	; (800300c <HAL_I2C_MspInit+0x12c>)
 8002f46:	6c1b      	ldr	r3, [r3, #64]	; 0x40
 8002f48:	4a30      	ldr	r2, [pc, #192]	; (800300c <HAL_I2C_MspInit+0x12c>)
 8002f4a:	f443 1300 	orr.w	r3, r3, #2097152	; 0x200000
 8002f4e:	6413      	str	r3, [r2, #64]	; 0x40
 8002f50:	4b2e      	ldr	r3, [pc, #184]	; (800300c <HAL_I2C_MspInit+0x12c>)
 8002f52:	6c1b      	ldr	r3, [r3, #64]	; 0x40
 8002f54:	f403 1300 	and.w	r3, r3, #2097152	; 0x200000
 8002f58:	617b      	str	r3, [r7, #20]
 8002f5a:	697b      	ldr	r3, [r7, #20]
  /* USER CODE BEGIN I2C3_MspInit 1 */

  /* USER CODE END I2C3_MspInit 1 */
  }

}
 8002f5c:	e050      	b.n	8003000 <HAL_I2C_MspInit+0x120>
  else if(hi2c->Instance==I2C3)
 8002f5e:	687b      	ldr	r3, [r7, #4]
 8002f60:	681b      	ldr	r3, [r3, #0]
 8002f62:	4a2c      	ldr	r2, [pc, #176]	; (8003014 <HAL_I2C_MspInit+0x134>)
 8002f64:	4293      	cmp	r3, r2
 8002f66:	d14b      	bne.n	8003000 <HAL_I2C_MspInit+0x120>
    __HAL_RCC_GPIOC_CLK_ENABLE();
 8002f68:	2300      	movs	r3, #0
 8002f6a:	613b      	str	r3, [r7, #16]
 8002f6c:	4b27      	ldr	r3, [pc, #156]	; (800300c <HAL_I2C_MspInit+0x12c>)
 8002f6e:	6b1b      	ldr	r3, [r3, #48]	; 0x30
 8002f70:	4a26      	ldr	r2, [pc, #152]	; (800300c <HAL_I2C_MspInit+0x12c>)
 8002f72:	f043 0304 	orr.w	r3, r3, #4
 8002f76:	6313      	str	r3, [r2, #48]	; 0x30
 8002f78:	4b24      	ldr	r3, [pc, #144]	; (800300c <HAL_I2C_MspInit+0x12c>)
 8002f7a:	6b1b      	ldr	r3, [r3, #48]	; 0x30
 8002f7c:	f003 0304 	and.w	r3, r3, #4
 8002f80:	613b      	str	r3, [r7, #16]
 8002f82:	693b      	ldr	r3, [r7, #16]
    __HAL_RCC_GPIOA_CLK_ENABLE();
 8002f84:	2300      	movs	r3, #0
 8002f86:	60fb      	str	r3, [r7, #12]
 8002f88:	4b20      	ldr	r3, [pc, #128]	; (800300c <HAL_I2C_MspInit+0x12c>)
 8002f8a:	6b1b      	ldr	r3, [r3, #48]	; 0x30
 8002f8c:	4a1f      	ldr	r2, [pc, #124]	; (800300c <HAL_I2C_MspInit+0x12c>)
 8002f8e:	f043 0301 	orr.w	r3, r3, #1
 8002f92:	6313      	str	r3, [r2, #48]	; 0x30
 8002f94:	4b1d      	ldr	r3, [pc, #116]	; (800300c <HAL_I2C_MspInit+0x12c>)
 8002f96:	6b1b      	ldr	r3, [r3, #48]	; 0x30
 8002f98:	f003 0301 	and.w	r3, r3, #1
 8002f9c:	60fb      	str	r3, [r7, #12]
 8002f9e:	68fb      	ldr	r3, [r7, #12]
    GPIO_InitStruct.Pin = GPIO_PIN_9;
 8002fa0:	f44f 7300 	mov.w	r3, #512	; 0x200
 8002fa4:	61fb      	str	r3, [r7, #28]
    GPIO_InitStruct.Mode = GPIO_MODE_AF_OD;
 8002fa6:	2312      	movs	r3, #18
 8002fa8:	623b      	str	r3, [r7, #32]
    GPIO_InitStruct.Pull = GPIO_NOPULL;
 8002faa:	2300      	movs	r3, #0
 8002fac:	627b      	str	r3, [r7, #36]	; 0x24
    GPIO_InitStruct.Speed = GPIO_SPEED_FREQ_VERY_HIGH;
 8002fae:	2303      	movs	r3, #3
 8002fb0:	62bb      	str	r3, [r7, #40]	; 0x28
    GPIO_InitStruct.Alternate = GPIO_AF4_I2C3;
 8002fb2:	2304      	movs	r3, #4
 8002fb4:	62fb      	str	r3, [r7, #44]	; 0x2c
    HAL_GPIO_Init(GPIOC, &GPIO_InitStruct);
 8002fb6:	f107 031c 	add.w	r3, r7, #28
 8002fba:	4619      	mov	r1, r3
 8002fbc:	4816      	ldr	r0, [pc, #88]	; (8003018 <HAL_I2C_MspInit+0x138>)
 8002fbe:	f000 fc97 	bl	80038f0 <HAL_GPIO_Init>
    GPIO_InitStruct.Pin = GPIO_PIN_8;
 8002fc2:	f44f 7380 	mov.w	r3, #256	; 0x100
 8002fc6:	61fb      	str	r3, [r7, #28]
    GPIO_InitStruct.Mode = GPIO_MODE_AF_OD;
 8002fc8:	2312      	movs	r3, #18
 8002fca:	623b      	str	r3, [r7, #32]
    GPIO_InitStruct.Pull = GPIO_NOPULL;
 8002fcc:	2300      	movs	r3, #0
 8002fce:	627b      	str	r3, [r7, #36]	; 0x24
    GPIO_InitStruct.Speed = GPIO_SPEED_FREQ_VERY_HIGH;
 8002fd0:	2303      	movs	r3, #3
 8002fd2:	62bb      	str	r3, [r7, #40]	; 0x28
    GPIO_InitStruct.Alternate = GPIO_AF4_I2C3;
 8002fd4:	2304      	movs	r3, #4
 8002fd6:	62fb      	str	r3, [r7, #44]	; 0x2c
    HAL_GPIO_Init(GPIOA, &GPIO_InitStruct);
 8002fd8:	f107 031c 	add.w	r3, r7, #28
 8002fdc:	4619      	mov	r1, r3
 8002fde:	480f      	ldr	r0, [pc, #60]	; (800301c <HAL_I2C_MspInit+0x13c>)
 8002fe0:	f000 fc86 	bl	80038f0 <HAL_GPIO_Init>
    __HAL_RCC_I2C3_CLK_ENABLE();
 8002fe4:	2300      	movs	r3, #0
 8002fe6:	60bb      	str	r3, [r7, #8]
 8002fe8:	4b08      	ldr	r3, [pc, #32]	; (800300c <HAL_I2C_MspInit+0x12c>)
 8002fea:	6c1b      	ldr	r3, [r3, #64]	; 0x40
 8002fec:	4a07      	ldr	r2, [pc, #28]	; (800300c <HAL_I2C_MspInit+0x12c>)
 8002fee:	f443 0300 	orr.w	r3, r3, #8388608	; 0x800000
 8002ff2:	6413      	str	r3, [r2, #64]	; 0x40
 8002ff4:	4b05      	ldr	r3, [pc, #20]	; (800300c <HAL_I2C_MspInit+0x12c>)
 8002ff6:	6c1b      	ldr	r3, [r3, #64]	; 0x40
 8002ff8:	f403 0300 	and.w	r3, r3, #8388608	; 0x800000
 8002ffc:	60bb      	str	r3, [r7, #8]
 8002ffe:	68bb      	ldr	r3, [r7, #8]
}
 8003000:	bf00      	nop
 8003002:	3730      	adds	r7, #48	; 0x30
 8003004:	46bd      	mov	sp, r7
 8003006:	bd80      	pop	{r7, pc}
 8003008:	40005400 	.word	0x40005400
 800300c:	40023800 	.word	0x40023800
 8003010:	40020400 	.word	0x40020400
 8003014:	40005c00 	.word	0x40005c00
 8003018:	40020800 	.word	0x40020800
 800301c:	40020000 	.word	0x40020000

08003020 <HAL_I2S_MspInit>:
* This function configures the hardware resources used in this example
* @param hi2s: I2S handle pointer
* @retval None
*/
void HAL_I2S_MspInit(I2S_HandleTypeDef* hi2s)
{
 8003020:	b580      	push	{r7, lr}
 8003022:	b08e      	sub	sp, #56	; 0x38
 8003024:	af00      	add	r7, sp, #0
 8003026:	6078      	str	r0, [r7, #4]
  GPIO_InitTypeDef GPIO_InitStruct = {0};
 8003028:	f107 0324 	add.w	r3, r7, #36	; 0x24
 800302c:	2200      	movs	r2, #0
 800302e:	601a      	str	r2, [r3, #0]
 8003030:	605a      	str	r2, [r3, #4]
 8003032:	609a      	str	r2, [r3, #8]
 8003034:	60da      	str	r2, [r3, #12]
 8003036:	611a      	str	r2, [r3, #16]
  if(hi2s->Instance==SPI2)
 8003038:	687b      	ldr	r3, [r7, #4]
 800303a:	681b      	ldr	r3, [r3, #0]
 800303c:	4a59      	ldr	r2, [pc, #356]	; (80031a4 <HAL_I2S_MspInit+0x184>)
 800303e:	4293      	cmp	r3, r2
 8003040:	d15b      	bne.n	80030fa <HAL_I2S_MspInit+0xda>
  {
  /* USER CODE BEGIN SPI2_MspInit 0 */

  /* USER CODE END SPI2_MspInit 0 */
    /* Peripheral clock enable */
    __HAL_RCC_SPI2_CLK_ENABLE();
 8003042:	2300      	movs	r3, #0
 8003044:	623b      	str	r3, [r7, #32]
 8003046:	4b58      	ldr	r3, [pc, #352]	; (80031a8 <HAL_I2S_MspInit+0x188>)
 8003048:	6c1b      	ldr	r3, [r3, #64]	; 0x40
 800304a:	4a57      	ldr	r2, [pc, #348]	; (80031a8 <HAL_I2S_MspInit+0x188>)
 800304c:	f443 4380 	orr.w	r3, r3, #16384	; 0x4000
 8003050:	6413      	str	r3, [r2, #64]	; 0x40
 8003052:	4b55      	ldr	r3, [pc, #340]	; (80031a8 <HAL_I2S_MspInit+0x188>)
 8003054:	6c1b      	ldr	r3, [r3, #64]	; 0x40
 8003056:	f403 4380 	and.w	r3, r3, #16384	; 0x4000
 800305a:	623b      	str	r3, [r7, #32]
 800305c:	6a3b      	ldr	r3, [r7, #32]

    __HAL_RCC_GPIOC_CLK_ENABLE();
 800305e:	2300      	movs	r3, #0
 8003060:	61fb      	str	r3, [r7, #28]
 8003062:	4b51      	ldr	r3, [pc, #324]	; (80031a8 <HAL_I2S_MspInit+0x188>)
 8003064:	6b1b      	ldr	r3, [r3, #48]	; 0x30
 8003066:	4a50      	ldr	r2, [pc, #320]	; (80031a8 <HAL_I2S_MspInit+0x188>)
 8003068:	f043 0304 	orr.w	r3, r3, #4
 800306c:	6313      	str	r3, [r2, #48]	; 0x30
 800306e:	4b4e      	ldr	r3, [pc, #312]	; (80031a8 <HAL_I2S_MspInit+0x188>)
 8003070:	6b1b      	ldr	r3, [r3, #48]	; 0x30
 8003072:	f003 0304 	and.w	r3, r3, #4
 8003076:	61fb      	str	r3, [r7, #28]
 8003078:	69fb      	ldr	r3, [r7, #28]
    __HAL_RCC_GPIOB_CLK_ENABLE();
 800307a:	2300      	movs	r3, #0
 800307c:	61bb      	str	r3, [r7, #24]
 800307e:	4b4a      	ldr	r3, [pc, #296]	; (80031a8 <HAL_I2S_MspInit+0x188>)
 8003080:	6b1b      	ldr	r3, [r3, #48]	; 0x30
 8003082:	4a49      	ldr	r2, [pc, #292]	; (80031a8 <HAL_I2S_MspInit+0x188>)
 8003084:	f043 0302 	orr.w	r3, r3, #2
 8003088:	6313      	str	r3, [r2, #48]	; 0x30
 800308a:	4b47      	ldr	r3, [pc, #284]	; (80031a8 <HAL_I2S_MspInit+0x188>)
 800308c:	6b1b      	ldr	r3, [r3, #48]	; 0x30
 800308e:	f003 0302 	and.w	r3, r3, #2
 8003092:	61bb      	str	r3, [r7, #24]
 8003094:	69bb      	ldr	r3, [r7, #24]
    PC2     ------> I2S2_ext_SD
    PC3     ------> I2S2_SD
    PB10     ------> I2S2_CK
    PB12     ------> I2S2_WS
    */
    GPIO_InitStruct.Pin = GPIO_PIN_2;
 8003096:	2304      	movs	r3, #4
 8003098:	627b      	str	r3, [r7, #36]	; 0x24
    GPIO_InitStruct.Mode = GPIO_MODE_AF_PP;
 800309a:	2302      	movs	r3, #2
 800309c:	62bb      	str	r3, [r7, #40]	; 0x28
    GPIO_InitStruct.Pull = GPIO_NOPULL;
 800309e:	2300      	movs	r3, #0
 80030a0:	62fb      	str	r3, [r7, #44]	; 0x2c
    GPIO_InitStruct.Speed = GPIO_SPEED_FREQ_LOW;
 80030a2:	2300      	movs	r3, #0
 80030a4:	633b      	str	r3, [r7, #48]	; 0x30
    GPIO_InitStruct.Alternate = GPIO_AF6_I2S2ext;
 80030a6:	2306      	movs	r3, #6
 80030a8:	637b      	str	r3, [r7, #52]	; 0x34
    HAL_GPIO_Init(GPIOC, &GPIO_InitStruct);
 80030aa:	f107 0324 	add.w	r3, r7, #36	; 0x24
 80030ae:	4619      	mov	r1, r3
 80030b0:	483e      	ldr	r0, [pc, #248]	; (80031ac <HAL_I2S_MspInit+0x18c>)
 80030b2:	f000 fc1d 	bl	80038f0 <HAL_GPIO_Init>

    GPIO_InitStruct.Pin = PDM_OUT_Pin;
 80030b6:	2308      	movs	r3, #8
 80030b8:	627b      	str	r3, [r7, #36]	; 0x24
    GPIO_InitStruct.Mode = GPIO_MODE_AF_PP;
 80030ba:	2302      	movs	r3, #2
 80030bc:	62bb      	str	r3, [r7, #40]	; 0x28
    GPIO_InitStruct.Pull = GPIO_NOPULL;
 80030be:	2300      	movs	r3, #0
 80030c0:	62fb      	str	r3, [r7, #44]	; 0x2c
    GPIO_InitStruct.Speed = GPIO_SPEED_FREQ_LOW;
 80030c2:	2300      	movs	r3, #0
 80030c4:	633b      	str	r3, [r7, #48]	; 0x30
    GPIO_InitStruct.Alternate = GPIO_AF5_SPI2;
 80030c6:	2305      	movs	r3, #5
 80030c8:	637b      	str	r3, [r7, #52]	; 0x34
    HAL_GPIO_Init(PDM_OUT_GPIO_Port, &GPIO_InitStruct);
 80030ca:	f107 0324 	add.w	r3, r7, #36	; 0x24
 80030ce:	4619      	mov	r1, r3
 80030d0:	4836      	ldr	r0, [pc, #216]	; (80031ac <HAL_I2S_MspInit+0x18c>)
 80030d2:	f000 fc0d 	bl	80038f0 <HAL_GPIO_Init>

    GPIO_InitStruct.Pin = CLK_IN_Pin|GPIO_PIN_12;
 80030d6:	f44f 53a0 	mov.w	r3, #5120	; 0x1400
 80030da:	627b      	str	r3, [r7, #36]	; 0x24
    GPIO_InitStruct.Mode = GPIO_MODE_AF_PP;
 80030dc:	2302      	movs	r3, #2
 80030de:	62bb      	str	r3, [r7, #40]	; 0x28
    GPIO_InitStruct.Pull = GPIO_NOPULL;
 80030e0:	2300      	movs	r3, #0
 80030e2:	62fb      	str	r3, [r7, #44]	; 0x2c
    GPIO_InitStruct.Speed = GPIO_SPEED_FREQ_LOW;
 80030e4:	2300      	movs	r3, #0
 80030e6:	633b      	str	r3, [r7, #48]	; 0x30
    GPIO_InitStruct.Alternate = GPIO_AF5_SPI2;
 80030e8:	2305      	movs	r3, #5
 80030ea:	637b      	str	r3, [r7, #52]	; 0x34
    HAL_GPIO_Init(GPIOB, &GPIO_InitStruct);
 80030ec:	f107 0324 	add.w	r3, r7, #36	; 0x24
 80030f0:	4619      	mov	r1, r3
 80030f2:	482f      	ldr	r0, [pc, #188]	; (80031b0 <HAL_I2S_MspInit+0x190>)
 80030f4:	f000 fbfc 	bl	80038f0 <HAL_GPIO_Init>
  /* USER CODE BEGIN SPI3_MspInit 1 */

  /* USER CODE END SPI3_MspInit 1 */
  }

}
 80030f8:	e04f      	b.n	800319a <HAL_I2S_MspInit+0x17a>
  else if(hi2s->Instance==SPI3)
 80030fa:	687b      	ldr	r3, [r7, #4]
 80030fc:	681b      	ldr	r3, [r3, #0]
 80030fe:	4a2d      	ldr	r2, [pc, #180]	; (80031b4 <HAL_I2S_MspInit+0x194>)
 8003100:	4293      	cmp	r3, r2
 8003102:	d14a      	bne.n	800319a <HAL_I2S_MspInit+0x17a>
    __HAL_RCC_SPI3_CLK_ENABLE();
 8003104:	2300      	movs	r3, #0
 8003106:	617b      	str	r3, [r7, #20]
 8003108:	4b27      	ldr	r3, [pc, #156]	; (80031a8 <HAL_I2S_MspInit+0x188>)
 800310a:	6c1b      	ldr	r3, [r3, #64]	; 0x40
 800310c:	4a26      	ldr	r2, [pc, #152]	; (80031a8 <HAL_I2S_MspInit+0x188>)
 800310e:	f443 4300 	orr.w	r3, r3, #32768	; 0x8000
 8003112:	6413      	str	r3, [r2, #64]	; 0x40
 8003114:	4b24      	ldr	r3, [pc, #144]	; (80031a8 <HAL_I2S_MspInit+0x188>)
 8003116:	6c1b      	ldr	r3, [r3, #64]	; 0x40
 8003118:	f403 4300 	and.w	r3, r3, #32768	; 0x8000
 800311c:	617b      	str	r3, [r7, #20]
 800311e:	697b      	ldr	r3, [r7, #20]
    __HAL_RCC_GPIOA_CLK_ENABLE();
 8003120:	2300      	movs	r3, #0
 8003122:	613b      	str	r3, [r7, #16]
 8003124:	4b20      	ldr	r3, [pc, #128]	; (80031a8 <HAL_I2S_MspInit+0x188>)
 8003126:	6b1b      	ldr	r3, [r3, #48]	; 0x30
 8003128:	4a1f      	ldr	r2, [pc, #124]	; (80031a8 <HAL_I2S_MspInit+0x188>)
 800312a:	f043 0301 	orr.w	r3, r3, #1
 800312e:	6313      	str	r3, [r2, #48]	; 0x30
 8003130:	4b1d      	ldr	r3, [pc, #116]	; (80031a8 <HAL_I2S_MspInit+0x188>)
 8003132:	6b1b      	ldr	r3, [r3, #48]	; 0x30
 8003134:	f003 0301 	and.w	r3, r3, #1
 8003138:	613b      	str	r3, [r7, #16]
 800313a:	693b      	ldr	r3, [r7, #16]
    __HAL_RCC_GPIOC_CLK_ENABLE();
 800313c:	2300      	movs	r3, #0
 800313e:	60fb      	str	r3, [r7, #12]
 8003140:	4b19      	ldr	r3, [pc, #100]	; (80031a8 <HAL_I2S_MspInit+0x188>)
 8003142:	6b1b      	ldr	r3, [r3, #48]	; 0x30
 8003144:	4a18      	ldr	r2, [pc, #96]	; (80031a8 <HAL_I2S_MspInit+0x188>)
 8003146:	f043 0304 	orr.w	r3, r3, #4
 800314a:	6313      	str	r3, [r2, #48]	; 0x30
 800314c:	4b16      	ldr	r3, [pc, #88]	; (80031a8 <HAL_I2S_MspInit+0x188>)
 800314e:	6b1b      	ldr	r3, [r3, #48]	; 0x30
 8003150:	f003 0304 	and.w	r3, r3, #4
 8003154:	60fb      	str	r3, [r7, #12]
 8003156:	68fb      	ldr	r3, [r7, #12]
    GPIO_InitStruct.Pin = I2S3_WS_Pin;
 8003158:	2310      	movs	r3, #16
 800315a:	627b      	str	r3, [r7, #36]	; 0x24
    GPIO_InitStruct.Mode = GPIO_MODE_AF_PP;
 800315c:	2302      	movs	r3, #2
 800315e:	62bb      	str	r3, [r7, #40]	; 0x28
    GPIO_InitStruct.Pull = GPIO_NOPULL;
 8003160:	2300      	movs	r3, #0
 8003162:	62fb      	str	r3, [r7, #44]	; 0x2c
    GPIO_InitStruct.Speed = GPIO_SPEED_FREQ_LOW;
 8003164:	2300      	movs	r3, #0
 8003166:	633b      	str	r3, [r7, #48]	; 0x30
    GPIO_InitStruct.Alternate = GPIO_AF6_SPI3;
 8003168:	2306      	movs	r3, #6
 800316a:	637b      	str	r3, [r7, #52]	; 0x34
    HAL_GPIO_Init(I2S3_WS_GPIO_Port, &GPIO_InitStruct);
 800316c:	f107 0324 	add.w	r3, r7, #36	; 0x24
 8003170:	4619      	mov	r1, r3
 8003172:	4811      	ldr	r0, [pc, #68]	; (80031b8 <HAL_I2S_MspInit+0x198>)
 8003174:	f000 fbbc 	bl	80038f0 <HAL_GPIO_Init>
    GPIO_InitStruct.Pin = I2S3_MCK_Pin|I2S3_SCK_Pin|I2S3_SD_Pin;
 8003178:	f44f 53a4 	mov.w	r3, #5248	; 0x1480
 800317c:	627b      	str	r3, [r7, #36]	; 0x24
    GPIO_InitStruct.Mode = GPIO_MODE_AF_PP;
 800317e:	2302      	movs	r3, #2
 8003180:	62bb      	str	r3, [r7, #40]	; 0x28
    GPIO_InitStruct.Pull = GPIO_NOPULL;
 8003182:	2300      	movs	r3, #0
 8003184:	62fb      	str	r3, [r7, #44]	; 0x2c
    GPIO_InitStruct.Speed = GPIO_SPEED_FREQ_LOW;
 8003186:	2300      	movs	r3, #0
 8003188:	633b      	str	r3, [r7, #48]	; 0x30
    GPIO_InitStruct.Alternate = GPIO_AF6_SPI3;
 800318a:	2306      	movs	r3, #6
 800318c:	637b      	str	r3, [r7, #52]	; 0x34
    HAL_GPIO_Init(GPIOC, &GPIO_InitStruct);
 800318e:	f107 0324 	add.w	r3, r7, #36	; 0x24
 8003192:	4619      	mov	r1, r3
 8003194:	4805      	ldr	r0, [pc, #20]	; (80031ac <HAL_I2S_MspInit+0x18c>)
 8003196:	f000 fbab 	bl	80038f0 <HAL_GPIO_Init>
}
 800319a:	bf00      	nop
 800319c:	3738      	adds	r7, #56	; 0x38
 800319e:	46bd      	mov	sp, r7
 80031a0:	bd80      	pop	{r7, pc}
 80031a2:	bf00      	nop
 80031a4:	40003800 	.word	0x40003800
 80031a8:	40023800 	.word	0x40023800
 80031ac:	40020800 	.word	0x40020800
 80031b0:	40020400 	.word	0x40020400
 80031b4:	40003c00 	.word	0x40003c00
 80031b8:	40020000 	.word	0x40020000

080031bc <HAL_SPI_MspInit>:
* This function configures the hardware resources used in this example
* @param hspi: SPI handle pointer
* @retval None
*/
void HAL_SPI_MspInit(SPI_HandleTypeDef* hspi)
{
 80031bc:	b580      	push	{r7, lr}
 80031be:	b08a      	sub	sp, #40	; 0x28
 80031c0:	af00      	add	r7, sp, #0
 80031c2:	6078      	str	r0, [r7, #4]
  GPIO_InitTypeDef GPIO_InitStruct = {0};
 80031c4:	f107 0314 	add.w	r3, r7, #20
 80031c8:	2200      	movs	r2, #0
 80031ca:	601a      	str	r2, [r3, #0]
 80031cc:	605a      	str	r2, [r3, #4]
 80031ce:	609a      	str	r2, [r3, #8]
 80031d0:	60da      	str	r2, [r3, #12]
 80031d2:	611a      	str	r2, [r3, #16]
  if(hspi->Instance==SPI1)
 80031d4:	687b      	ldr	r3, [r7, #4]
 80031d6:	681b      	ldr	r3, [r3, #0]
 80031d8:	4a19      	ldr	r2, [pc, #100]	; (8003240 <HAL_SPI_MspInit+0x84>)
 80031da:	4293      	cmp	r3, r2
 80031dc:	d12b      	bne.n	8003236 <HAL_SPI_MspInit+0x7a>
  {
  /* USER CODE BEGIN SPI1_MspInit 0 */

  /* USER CODE END SPI1_MspInit 0 */
    /* Peripheral clock enable */
    __HAL_RCC_SPI1_CLK_ENABLE();
 80031de:	2300      	movs	r3, #0
 80031e0:	613b      	str	r3, [r7, #16]
 80031e2:	4b18      	ldr	r3, [pc, #96]	; (8003244 <HAL_SPI_MspInit+0x88>)
 80031e4:	6c5b      	ldr	r3, [r3, #68]	; 0x44
 80031e6:	4a17      	ldr	r2, [pc, #92]	; (8003244 <HAL_SPI_MspInit+0x88>)
 80031e8:	f443 5380 	orr.w	r3, r3, #4096	; 0x1000
 80031ec:	6453      	str	r3, [r2, #68]	; 0x44
 80031ee:	4b15      	ldr	r3, [pc, #84]	; (8003244 <HAL_SPI_MspInit+0x88>)
 80031f0:	6c5b      	ldr	r3, [r3, #68]	; 0x44
 80031f2:	f403 5380 	and.w	r3, r3, #4096	; 0x1000
 80031f6:	613b      	str	r3, [r7, #16]
 80031f8:	693b      	ldr	r3, [r7, #16]

    __HAL_RCC_GPIOA_CLK_ENABLE();
 80031fa:	2300      	movs	r3, #0
 80031fc:	60fb      	str	r3, [r7, #12]
 80031fe:	4b11      	ldr	r3, [pc, #68]	; (8003244 <HAL_SPI_MspInit+0x88>)
 8003200:	6b1b      	ldr	r3, [r3, #48]	; 0x30
 8003202:	4a10      	ldr	r2, [pc, #64]	; (8003244 <HAL_SPI_MspInit+0x88>)
 8003204:	f043 0301 	orr.w	r3, r3, #1
 8003208:	6313      	str	r3, [r2, #48]	; 0x30
 800320a:	4b0e      	ldr	r3, [pc, #56]	; (8003244 <HAL_SPI_MspInit+0x88>)
 800320c:	6b1b      	ldr	r3, [r3, #48]	; 0x30
 800320e:	f003 0301 	and.w	r3, r3, #1
 8003212:	60fb      	str	r3, [r7, #12]
 8003214:	68fb      	ldr	r3, [r7, #12]
    /**SPI1 GPIO Configuration
    PA5     ------> SPI1_SCK
    PA6     ------> SPI1_MISO
    PA7     ------> SPI1_MOSI
    */
    GPIO_InitStruct.Pin = SPI1_SCK_Pin|SPI1_MISO_Pin|SPI1_MOSI_Pin;
 8003216:	23e0      	movs	r3, #224	; 0xe0
 8003218:	617b      	str	r3, [r7, #20]
    GPIO_InitStruct.Mode = GPIO_MODE_AF_PP;
 800321a:	2302      	movs	r3, #2
 800321c:	61bb      	str	r3, [r7, #24]
    GPIO_InitStruct.Pull = GPIO_NOPULL;
 800321e:	2300      	movs	r3, #0
 8003220:	61fb      	str	r3, [r7, #28]
    GPIO_InitStruct.Speed = GPIO_SPEED_FREQ_VERY_HIGH;
 8003222:	2303      	movs	r3, #3
 8003224:	623b      	str	r3, [r7, #32]
    GPIO_InitStruct.Alternate = GPIO_AF5_SPI1;
 8003226:	2305      	movs	r3, #5
 8003228:	627b      	str	r3, [r7, #36]	; 0x24
    HAL_GPIO_Init(GPIOA, &GPIO_InitStruct);
 800322a:	f107 0314 	add.w	r3, r7, #20
 800322e:	4619      	mov	r1, r3
 8003230:	4805      	ldr	r0, [pc, #20]	; (8003248 <HAL_SPI_MspInit+0x8c>)
 8003232:	f000 fb5d 	bl	80038f0 <HAL_GPIO_Init>
  /* USER CODE BEGIN SPI1_MspInit 1 */

  /* USER CODE END SPI1_MspInit 1 */
  }

}
 8003236:	bf00      	nop
 8003238:	3728      	adds	r7, #40	; 0x28
 800323a:	46bd      	mov	sp, r7
 800323c:	bd80      	pop	{r7, pc}
 800323e:	bf00      	nop
 8003240:	40013000 	.word	0x40013000
 8003244:	40023800 	.word	0x40023800
 8003248:	40020000 	.word	0x40020000

0800324c <HAL_UART_MspInit>:
* This function configures the hardware resources used in this example
* @param huart: UART handle pointer
* @retval None
*/
void HAL_UART_MspInit(UART_HandleTypeDef* huart)
{
 800324c:	b580      	push	{r7, lr}
 800324e:	b08a      	sub	sp, #40	; 0x28
 8003250:	af00      	add	r7, sp, #0
 8003252:	6078      	str	r0, [r7, #4]
  GPIO_InitTypeDef GPIO_InitStruct = {0};
 8003254:	f107 0314 	add.w	r3, r7, #20
 8003258:	2200      	movs	r2, #0
 800325a:	601a      	str	r2, [r3, #0]
 800325c:	605a      	str	r2, [r3, #4]
 800325e:	609a      	str	r2, [r3, #8]
 8003260:	60da      	str	r2, [r3, #12]
 8003262:	611a      	str	r2, [r3, #16]
  if(huart->Instance==USART2)
 8003264:	687b      	ldr	r3, [r7, #4]
 8003266:	681b      	ldr	r3, [r3, #0]
 8003268:	4a1d      	ldr	r2, [pc, #116]	; (80032e0 <HAL_UART_MspInit+0x94>)
 800326a:	4293      	cmp	r3, r2
 800326c:	d133      	bne.n	80032d6 <HAL_UART_MspInit+0x8a>
  {
  /* USER CODE BEGIN USART2_MspInit 0 */

  /* USER CODE END USART2_MspInit 0 */
    /* Peripheral clock enable */
    __HAL_RCC_USART2_CLK_ENABLE();
 800326e:	2300      	movs	r3, #0
 8003270:	613b      	str	r3, [r7, #16]
 8003272:	4b1c      	ldr	r3, [pc, #112]	; (80032e4 <HAL_UART_MspInit+0x98>)
 8003274:	6c1b      	ldr	r3, [r3, #64]	; 0x40
 8003276:	4a1b      	ldr	r2, [pc, #108]	; (80032e4 <HAL_UART_MspInit+0x98>)
 8003278:	f443 3300 	orr.w	r3, r3, #131072	; 0x20000
 800327c:	6413      	str	r3, [r2, #64]	; 0x40
 800327e:	4b19      	ldr	r3, [pc, #100]	; (80032e4 <HAL_UART_MspInit+0x98>)
 8003280:	6c1b      	ldr	r3, [r3, #64]	; 0x40
 8003282:	f403 3300 	and.w	r3, r3, #131072	; 0x20000
 8003286:	613b      	str	r3, [r7, #16]
 8003288:	693b      	ldr	r3, [r7, #16]

    __HAL_RCC_GPIOD_CLK_ENABLE();
 800328a:	2300      	movs	r3, #0
 800328c:	60fb      	str	r3, [r7, #12]
 800328e:	4b15      	ldr	r3, [pc, #84]	; (80032e4 <HAL_UART_MspInit+0x98>)
 8003290:	6b1b      	ldr	r3, [r3, #48]	; 0x30
 8003292:	4a14      	ldr	r2, [pc, #80]	; (80032e4 <HAL_UART_MspInit+0x98>)
 8003294:	f043 0308 	orr.w	r3, r3, #8
 8003298:	6313      	str	r3, [r2, #48]	; 0x30
 800329a:	4b12      	ldr	r3, [pc, #72]	; (80032e4 <HAL_UART_MspInit+0x98>)
 800329c:	6b1b      	ldr	r3, [r3, #48]	; 0x30
 800329e:	f003 0308 	and.w	r3, r3, #8
 80032a2:	60fb      	str	r3, [r7, #12]
 80032a4:	68fb      	ldr	r3, [r7, #12]
    /**USART2 GPIO Configuration
    PD5     ------> USART2_TX
    PD6     ------> USART2_RX
    */
    GPIO_InitStruct.Pin = GPIO_PIN_5|GPIO_PIN_6;
 80032a6:	2360      	movs	r3, #96	; 0x60
 80032a8:	617b      	str	r3, [r7, #20]
    GPIO_InitStruct.Mode = GPIO_MODE_AF_PP;
 80032aa:	2302      	movs	r3, #2
 80032ac:	61bb      	str	r3, [r7, #24]
    GPIO_InitStruct.Pull = GPIO_NOPULL;
 80032ae:	2300      	movs	r3, #0
 80032b0:	61fb      	str	r3, [r7, #28]
    GPIO_InitStruct.Speed = GPIO_SPEED_FREQ_VERY_HIGH;
 80032b2:	2303      	movs	r3, #3
 80032b4:	623b      	str	r3, [r7, #32]
    GPIO_InitStruct.Alternate = GPIO_AF7_USART2;
 80032b6:	2307      	movs	r3, #7
 80032b8:	627b      	str	r3, [r7, #36]	; 0x24
    HAL_GPIO_Init(GPIOD, &GPIO_InitStruct);
 80032ba:	f107 0314 	add.w	r3, r7, #20
 80032be:	4619      	mov	r1, r3
 80032c0:	4809      	ldr	r0, [pc, #36]	; (80032e8 <HAL_UART_MspInit+0x9c>)
 80032c2:	f000 fb15 	bl	80038f0 <HAL_GPIO_Init>

    /* USART2 interrupt Init */
    HAL_NVIC_SetPriority(USART2_IRQn, 0, 0);
 80032c6:	2200      	movs	r2, #0
 80032c8:	2100      	movs	r1, #0
 80032ca:	2026      	movs	r0, #38	; 0x26
 80032cc:	f000 fa47 	bl	800375e <HAL_NVIC_SetPriority>
    HAL_NVIC_EnableIRQ(USART2_IRQn);
 80032d0:	2026      	movs	r0, #38	; 0x26
 80032d2:	f000 fa60 	bl	8003796 <HAL_NVIC_EnableIRQ>
  /* USER CODE BEGIN USART2_MspInit 1 */

  /* USER CODE END USART2_MspInit 1 */
  }

}
 80032d6:	bf00      	nop
 80032d8:	3728      	adds	r7, #40	; 0x28
 80032da:	46bd      	mov	sp, r7
 80032dc:	bd80      	pop	{r7, pc}
 80032de:	bf00      	nop
 80032e0:	40004400 	.word	0x40004400
 80032e4:	40023800 	.word	0x40023800
 80032e8:	40020c00 	.word	0x40020c00

080032ec <NMI_Handler>:
/******************************************************************************/
/**
  * @brief This function handles Non maskable interrupt.
  */
void NMI_Handler(void)
{
 80032ec:	b480      	push	{r7}
 80032ee:	af00      	add	r7, sp, #0
  /* USER CODE BEGIN NonMaskableInt_IRQn 0 */

  /* USER CODE END NonMaskableInt_IRQn 0 */
  /* USER CODE BEGIN NonMaskableInt_IRQn 1 */
  while (1)
 80032f0:	e7fe      	b.n	80032f0 <NMI_Handler+0x4>

080032f2 <HardFault_Handler>:

/**
  * @brief This function handles Hard fault interrupt.
  */
void HardFault_Handler(void)
{
 80032f2:	b480      	push	{r7}
 80032f4:	af00      	add	r7, sp, #0
  /* USER CODE BEGIN HardFault_IRQn 0 */

  /* USER CODE END HardFault_IRQn 0 */
  while (1)
 80032f6:	e7fe      	b.n	80032f6 <HardFault_Handler+0x4>

080032f8 <MemManage_Handler>:

/**
  * @brief This function handles Memory management fault.
  */
void MemManage_Handler(void)
{
 80032f8:	b480      	push	{r7}
 80032fa:	af00      	add	r7, sp, #0
  /* USER CODE BEGIN MemoryManagement_IRQn 0 */

  /* USER CODE END MemoryManagement_IRQn 0 */
  while (1)
 80032fc:	e7fe      	b.n	80032fc <MemManage_Handler+0x4>

080032fe <BusFault_Handler>:

/**
  * @brief This function handles Pre-fetch fault, memory access fault.
  */
void BusFault_Handler(void)
{
 80032fe:	b480      	push	{r7}
 8003300:	af00      	add	r7, sp, #0
  /* USER CODE BEGIN BusFault_IRQn 0 */

  /* USER CODE END BusFault_IRQn 0 */
  while (1)
 8003302:	e7fe      	b.n	8003302 <BusFault_Handler+0x4>

08003304 <UsageFault_Handler>:

/**
  * @brief This function handles Undefined instruction or illegal state.
  */
void UsageFault_Handler(void)
{
 8003304:	b480      	push	{r7}
 8003306:	af00      	add	r7, sp, #0
  /* USER CODE BEGIN UsageFault_IRQn 0 */

  /* USER CODE END UsageFault_IRQn 0 */
  while (1)
 8003308:	e7fe      	b.n	8003308 <UsageFault_Handler+0x4>

0800330a <SVC_Handler>:

/**
  * @brief This function handles System service call via SWI instruction.
  */
void SVC_Handler(void)
{
 800330a:	b480      	push	{r7}
 800330c:	af00      	add	r7, sp, #0

  /* USER CODE END SVCall_IRQn 0 */
  /* USER CODE BEGIN SVCall_IRQn 1 */

  /* USER CODE END SVCall_IRQn 1 */
}
 800330e:	bf00      	nop
 8003310:	46bd      	mov	sp, r7
 8003312:	f85d 7b04 	ldr.w	r7, [sp], #4
 8003316:	4770      	bx	lr

08003318 <DebugMon_Handler>:

/**
  * @brief This function handles Debug monitor.
  */
void DebugMon_Handler(void)
{
 8003318:	b480      	push	{r7}
 800331a:	af00      	add	r7, sp, #0

  /* USER CODE END DebugMonitor_IRQn 0 */
  /* USER CODE BEGIN DebugMonitor_IRQn 1 */

  /* USER CODE END DebugMonitor_IRQn 1 */
}
 800331c:	bf00      	nop
 800331e:	46bd      	mov	sp, r7
 8003320:	f85d 7b04 	ldr.w	r7, [sp], #4
 8003324:	4770      	bx	lr

08003326 <PendSV_Handler>:

/**
  * @brief This function handles Pendable request for system service.
  */
void PendSV_Handler(void)
{
 8003326:	b480      	push	{r7}
 8003328:	af00      	add	r7, sp, #0

  /* USER CODE END PendSV_IRQn 0 */
  /* USER CODE BEGIN PendSV_IRQn 1 */

  /* USER CODE END PendSV_IRQn 1 */
}
 800332a:	bf00      	nop
 800332c:	46bd      	mov	sp, r7
 800332e:	f85d 7b04 	ldr.w	r7, [sp], #4
 8003332:	4770      	bx	lr

08003334 <SysTick_Handler>:

/**
  * @brief This function handles System tick timer.
  */
void SysTick_Handler(void)
{
 8003334:	b580      	push	{r7, lr}
 8003336:	af00      	add	r7, sp, #0
  /* USER CODE BEGIN SysTick_IRQn 0 */

  /* USER CODE END SysTick_IRQn 0 */
  HAL_IncTick();
 8003338:	f000 f8f2 	bl	8003520 <HAL_IncTick>
  /* USER CODE BEGIN SysTick_IRQn 1 */

  /* USER CODE END SysTick_IRQn 1 */
}
 800333c:	bf00      	nop
 800333e:	bd80      	pop	{r7, pc}

08003340 <USART2_IRQHandler>:

/**
  * @brief This function handles USART2 global interrupt.
  */
void USART2_IRQHandler(void)
{
 8003340:	b580      	push	{r7, lr}
 8003342:	af00      	add	r7, sp, #0
  /* USER CODE BEGIN USART2_IRQn 0 */

  /* USER CODE END USART2_IRQn 0 */
  HAL_UART_IRQHandler(&huart2);
 8003344:	4802      	ldr	r0, [pc, #8]	; (8003350 <USART2_IRQHandler+0x10>)
 8003346:	f002 f913 	bl	8005570 <HAL_UART_IRQHandler>
  /* USER CODE BEGIN USART2_IRQn 1 */

  /* USER CODE END USART2_IRQn 1 */
}
 800334a:	bf00      	nop
 800334c:	bd80      	pop	{r7, pc}
 800334e:	bf00      	nop
 8003350:	200001cc 	.word	0x200001cc

08003354 <_getpid>:
void initialise_monitor_handles()
{
}

int _getpid(void)
{
 8003354:	b480      	push	{r7}
 8003356:	af00      	add	r7, sp, #0
  return 1;
 8003358:	2301      	movs	r3, #1
}
 800335a:	4618      	mov	r0, r3
 800335c:	46bd      	mov	sp, r7
 800335e:	f85d 7b04 	ldr.w	r7, [sp], #4
 8003362:	4770      	bx	lr

08003364 <_kill>:

int _kill(int pid, int sig)
{
 8003364:	b580      	push	{r7, lr}
 8003366:	b082      	sub	sp, #8
 8003368:	af00      	add	r7, sp, #0
 800336a:	6078      	str	r0, [r7, #4]
 800336c:	6039      	str	r1, [r7, #0]
  (void)pid;
  (void)sig;
  errno = EINVAL;
 800336e:	f002 ffff 	bl	8006370 <__errno>
 8003372:	4603      	mov	r3, r0
 8003374:	2216      	movs	r2, #22
 8003376:	601a      	str	r2, [r3, #0]
  return -1;
 8003378:	f04f 33ff 	mov.w	r3, #4294967295
}
 800337c:	4618      	mov	r0, r3
 800337e:	3708      	adds	r7, #8
 8003380:	46bd      	mov	sp, r7
 8003382:	bd80      	pop	{r7, pc}

08003384 <_exit>:

void _exit (int status)
{
 8003384:	b580      	push	{r7, lr}
 8003386:	b082      	sub	sp, #8
 8003388:	af00      	add	r7, sp, #0
 800338a:	6078      	str	r0, [r7, #4]
  _kill(status, -1);
 800338c:	f04f 31ff 	mov.w	r1, #4294967295
 8003390:	6878      	ldr	r0, [r7, #4]
 8003392:	f7ff ffe7 	bl	8003364 <_kill>
  while (1) {}    /* Make sure we hang here */
 8003396:	e7fe      	b.n	8003396 <_exit+0x12>

08003398 <_sbrk>:
 *
 * @param incr Memory size
 * @return Pointer to allocated memory
 */
void *_sbrk(ptrdiff_t incr)
{
 8003398:	b580      	push	{r7, lr}
 800339a:	b086      	sub	sp, #24
 800339c:	af00      	add	r7, sp, #0
 800339e:	6078      	str	r0, [r7, #4]
  extern uint8_t _end; /* Symbol defined in the linker script */
  extern uint8_t _estack; /* Symbol defined in the linker script */
  extern uint32_t _Min_Stack_Size; /* Symbol defined in the linker script */
  const uint32_t stack_limit = (uint32_t)&_estack - (uint32_t)&_Min_Stack_Size;
 80033a0:	4a14      	ldr	r2, [pc, #80]	; (80033f4 <_sbrk+0x5c>)
 80033a2:	4b15      	ldr	r3, [pc, #84]	; (80033f8 <_sbrk+0x60>)
 80033a4:	1ad3      	subs	r3, r2, r3
 80033a6:	617b      	str	r3, [r7, #20]
  const uint8_t *max_heap = (uint8_t *)stack_limit;
 80033a8:	697b      	ldr	r3, [r7, #20]
 80033aa:	613b      	str	r3, [r7, #16]
  uint8_t *prev_heap_end;

  /* Initialize heap end at first call */
  if (NULL == __sbrk_heap_end)
 80033ac:	4b13      	ldr	r3, [pc, #76]	; (80033fc <_sbrk+0x64>)
 80033ae:	681b      	ldr	r3, [r3, #0]
 80033b0:	2b00      	cmp	r3, #0
 80033b2:	d102      	bne.n	80033ba <_sbrk+0x22>
  {
    __sbrk_heap_end = &_end;
 80033b4:	4b11      	ldr	r3, [pc, #68]	; (80033fc <_sbrk+0x64>)
 80033b6:	4a12      	ldr	r2, [pc, #72]	; (8003400 <_sbrk+0x68>)
 80033b8:	601a      	str	r2, [r3, #0]
  }

  /* Protect heap from growing into the reserved MSP stack */
  if (__sbrk_heap_end + incr > max_heap)
 80033ba:	4b10      	ldr	r3, [pc, #64]	; (80033fc <_sbrk+0x64>)
 80033bc:	681a      	ldr	r2, [r3, #0]
 80033be:	687b      	ldr	r3, [r7, #4]
 80033c0:	4413      	add	r3, r2
 80033c2:	693a      	ldr	r2, [r7, #16]
 80033c4:	429a      	cmp	r2, r3
 80033c6:	d207      	bcs.n	80033d8 <_sbrk+0x40>
  {
    errno = ENOMEM;
 80033c8:	f002 ffd2 	bl	8006370 <__errno>
 80033cc:	4603      	mov	r3, r0
 80033ce:	220c      	movs	r2, #12
 80033d0:	601a      	str	r2, [r3, #0]
    return (void *)-1;
 80033d2:	f04f 33ff 	mov.w	r3, #4294967295
 80033d6:	e009      	b.n	80033ec <_sbrk+0x54>
  }

  prev_heap_end = __sbrk_heap_end;
 80033d8:	4b08      	ldr	r3, [pc, #32]	; (80033fc <_sbrk+0x64>)
 80033da:	681b      	ldr	r3, [r3, #0]
 80033dc:	60fb      	str	r3, [r7, #12]
  __sbrk_heap_end += incr;
 80033de:	4b07      	ldr	r3, [pc, #28]	; (80033fc <_sbrk+0x64>)
 80033e0:	681a      	ldr	r2, [r3, #0]
 80033e2:	687b      	ldr	r3, [r7, #4]
 80033e4:	4413      	add	r3, r2
 80033e6:	4a05      	ldr	r2, [pc, #20]	; (80033fc <_sbrk+0x64>)
 80033e8:	6013      	str	r3, [r2, #0]

  return (void *)prev_heap_end;
 80033ea:	68fb      	ldr	r3, [r7, #12]
}
 80033ec:	4618      	mov	r0, r3
 80033ee:	3718      	adds	r7, #24
 80033f0:	46bd      	mov	sp, r7
 80033f2:	bd80      	pop	{r7, pc}
 80033f4:	20020000 	.word	0x20020000
 80033f8:	00000400 	.word	0x00000400
 80033fc:	20000270 	.word	0x20000270
 8003400:	20000290 	.word	0x20000290

08003404 <SystemInit>:
  *         configuration.
  * @param  None
  * @retval None
  */
void SystemInit(void)
{
 8003404:	b480      	push	{r7}
 8003406:	af00      	add	r7, sp, #0
  /* FPU settings ------------------------------------------------------------*/
  #if (__FPU_PRESENT == 1) && (__FPU_USED == 1)
    SCB->CPACR |= ((3UL << 10*2)|(3UL << 11*2));  /* set CP10 and CP11 Full Access */
 8003408:	4b06      	ldr	r3, [pc, #24]	; (8003424 <SystemInit+0x20>)
 800340a:	f8d3 3088 	ldr.w	r3, [r3, #136]	; 0x88
 800340e:	4a05      	ldr	r2, [pc, #20]	; (8003424 <SystemInit+0x20>)
 8003410:	f443 0370 	orr.w	r3, r3, #15728640	; 0xf00000
 8003414:	f8c2 3088 	str.w	r3, [r2, #136]	; 0x88

  /* Configure the Vector Table location -------------------------------------*/
#if defined(USER_VECT_TAB_ADDRESS)
  SCB->VTOR = VECT_TAB_BASE_ADDRESS | VECT_TAB_OFFSET; /* Vector Table Relocation in Internal SRAM */
#endif /* USER_VECT_TAB_ADDRESS */
}
 8003418:	bf00      	nop
 800341a:	46bd      	mov	sp, r7
 800341c:	f85d 7b04 	ldr.w	r7, [sp], #4
 8003420:	4770      	bx	lr
 8003422:	bf00      	nop
 8003424:	e000ed00 	.word	0xe000ed00

08003428 <Reset_Handler>:

    .section  .text.Reset_Handler
  .weak  Reset_Handler
  .type  Reset_Handler, %function
Reset_Handler:  
  ldr   sp, =_estack    		 /* set stack pointer */
 8003428:	f8df d034 	ldr.w	sp, [pc, #52]	; 8003460 <LoopFillZerobss+0x12>

/* Copy the data segment initializers from flash to SRAM */  
  ldr r0, =_sdata
 800342c:	480d      	ldr	r0, [pc, #52]	; (8003464 <LoopFillZerobss+0x16>)
  ldr r1, =_edata
 800342e:	490e      	ldr	r1, [pc, #56]	; (8003468 <LoopFillZerobss+0x1a>)
  ldr r2, =_sidata
 8003430:	4a0e      	ldr	r2, [pc, #56]	; (800346c <LoopFillZerobss+0x1e>)
  movs r3, #0
 8003432:	2300      	movs	r3, #0
  b LoopCopyDataInit
 8003434:	e002      	b.n	800343c <LoopCopyDataInit>

08003436 <CopyDataInit>:

CopyDataInit:
  ldr r4, [r2, r3]
 8003436:	58d4      	ldr	r4, [r2, r3]
  str r4, [r0, r3]
 8003438:	50c4      	str	r4, [r0, r3]
  adds r3, r3, #4
 800343a:	3304      	adds	r3, #4

0800343c <LoopCopyDataInit>:

LoopCopyDataInit:
  adds r4, r0, r3
 800343c:	18c4      	adds	r4, r0, r3
  cmp r4, r1
 800343e:	428c      	cmp	r4, r1
  bcc CopyDataInit
 8003440:	d3f9      	bcc.n	8003436 <CopyDataInit>
  
/* Zero fill the bss segment. */
  ldr r2, =_sbss
 8003442:	4a0b      	ldr	r2, [pc, #44]	; (8003470 <LoopFillZerobss+0x22>)
  ldr r4, =_ebss
 8003444:	4c0b      	ldr	r4, [pc, #44]	; (8003474 <LoopFillZerobss+0x26>)
  movs r3, #0
 8003446:	2300      	movs	r3, #0
  b LoopFillZerobss
 8003448:	e001      	b.n	800344e <LoopFillZerobss>

0800344a <FillZerobss>:

FillZerobss:
  str  r3, [r2]
 800344a:	6013      	str	r3, [r2, #0]
  adds r2, r2, #4
 800344c:	3204      	adds	r2, #4

0800344e <LoopFillZerobss>:

LoopFillZerobss:
  cmp r2, r4
 800344e:	42a2      	cmp	r2, r4
  bcc FillZerobss
 8003450:	d3fb      	bcc.n	800344a <FillZerobss>

/* Call the clock system initialization function.*/
  bl  SystemInit   
 8003452:	f7ff ffd7 	bl	8003404 <SystemInit>
/* Call static constructors */
    bl __libc_init_array
 8003456:	f002 ff91 	bl	800637c <__libc_init_array>
/* Call the application's entry point.*/
  bl  main
 800345a:	f7ff f9d9 	bl	8002810 <main>
  bx  lr    
 800345e:	4770      	bx	lr
  ldr   sp, =_estack    		 /* set stack pointer */
 8003460:	20020000 	.word	0x20020000
  ldr r0, =_sdata
 8003464:	20000000 	.word	0x20000000
  ldr r1, =_edata
 8003468:	20000074 	.word	0x20000074
  ldr r2, =_sidata
 800346c:	0800676c 	.word	0x0800676c
  ldr r2, =_sbss
 8003470:	20000074 	.word	0x20000074
  ldr r4, =_ebss
 8003474:	2000028c 	.word	0x2000028c

08003478 <ADC_IRQHandler>:
 * @retval None       
*/
    .section  .text.Default_Handler,"ax",%progbits
Default_Handler:
Infinite_Loop:
  b  Infinite_Loop
 8003478:	e7fe      	b.n	8003478 <ADC_IRQHandler>
	...

0800347c <HAL_Init>:
  *         need to ensure that the SysTick time base is always set to 1 millisecond
  *         to have correct HAL operation.
  * @retval HAL status
  */
HAL_StatusTypeDef HAL_Init(void)
{
 800347c:	b580      	push	{r7, lr}
 800347e:	af00      	add	r7, sp, #0
  /* Configure Flash prefetch, Instruction cache, Data cache */ 
#if (INSTRUCTION_CACHE_ENABLE != 0U)
  __HAL_FLASH_INSTRUCTION_CACHE_ENABLE();
 8003480:	4b0e      	ldr	r3, [pc, #56]	; (80034bc <HAL_Init+0x40>)
 8003482:	681b      	ldr	r3, [r3, #0]
 8003484:	4a0d      	ldr	r2, [pc, #52]	; (80034bc <HAL_Init+0x40>)
 8003486:	f443 7300 	orr.w	r3, r3, #512	; 0x200
 800348a:	6013      	str	r3, [r2, #0]
#endif /* INSTRUCTION_CACHE_ENABLE */

#if (DATA_CACHE_ENABLE != 0U)
  __HAL_FLASH_DATA_CACHE_ENABLE();
 800348c:	4b0b      	ldr	r3, [pc, #44]	; (80034bc <HAL_Init+0x40>)
 800348e:	681b      	ldr	r3, [r3, #0]
 8003490:	4a0a      	ldr	r2, [pc, #40]	; (80034bc <HAL_Init+0x40>)
 8003492:	f443 6380 	orr.w	r3, r3, #1024	; 0x400
 8003496:	6013      	str	r3, [r2, #0]
#endif /* DATA_CACHE_ENABLE */

#if (PREFETCH_ENABLE != 0U)
  __HAL_FLASH_PREFETCH_BUFFER_ENABLE();
 8003498:	4b08      	ldr	r3, [pc, #32]	; (80034bc <HAL_Init+0x40>)
 800349a:	681b      	ldr	r3, [r3, #0]
 800349c:	4a07      	ldr	r2, [pc, #28]	; (80034bc <HAL_Init+0x40>)
 800349e:	f443 7380 	orr.w	r3, r3, #256	; 0x100
 80034a2:	6013      	str	r3, [r2, #0]
#endif /* PREFETCH_ENABLE */

  /* Set Interrupt Group Priority */
  HAL_NVIC_SetPriorityGrouping(NVIC_PRIORITYGROUP_4);
 80034a4:	2003      	movs	r0, #3
 80034a6:	f000 f94f 	bl	8003748 <HAL_NVIC_SetPriorityGrouping>

  /* Use systick as time base source and configure 1ms tick (default clock after Reset is HSI) */
  HAL_InitTick(TICK_INT_PRIORITY);
 80034aa:	2000      	movs	r0, #0
 80034ac:	f000 f808 	bl	80034c0 <HAL_InitTick>

  /* Init the low level hardware */
  HAL_MspInit();
 80034b0:	f7ff fcee 	bl	8002e90 <HAL_MspInit>

  /* Return function status */
  return HAL_OK;
 80034b4:	2300      	movs	r3, #0
}
 80034b6:	4618      	mov	r0, r3
 80034b8:	bd80      	pop	{r7, pc}
 80034ba:	bf00      	nop
 80034bc:	40023c00 	.word	0x40023c00

080034c0 <HAL_InitTick>:
  *       implementation  in user file.
  * @param TickPriority Tick interrupt priority.
  * @retval HAL status
  */
__weak HAL_StatusTypeDef HAL_InitTick(uint32_t TickPriority)
{
 80034c0:	b580      	push	{r7, lr}
 80034c2:	b082      	sub	sp, #8
 80034c4:	af00      	add	r7, sp, #0
 80034c6:	6078      	str	r0, [r7, #4]
  /* Configure the SysTick to have interrupt in 1ms time basis*/
  if (HAL_SYSTICK_Config(SystemCoreClock / (1000U / uwTickFreq)) > 0U)
 80034c8:	4b12      	ldr	r3, [pc, #72]	; (8003514 <HAL_InitTick+0x54>)
 80034ca:	681a      	ldr	r2, [r3, #0]
 80034cc:	4b12      	ldr	r3, [pc, #72]	; (8003518 <HAL_InitTick+0x58>)
 80034ce:	781b      	ldrb	r3, [r3, #0]
 80034d0:	4619      	mov	r1, r3
 80034d2:	f44f 737a 	mov.w	r3, #1000	; 0x3e8
 80034d6:	fbb3 f3f1 	udiv	r3, r3, r1
 80034da:	fbb2 f3f3 	udiv	r3, r2, r3
 80034de:	4618      	mov	r0, r3
 80034e0:	f000 f967 	bl	80037b2 <HAL_SYSTICK_Config>
 80034e4:	4603      	mov	r3, r0
 80034e6:	2b00      	cmp	r3, #0
 80034e8:	d001      	beq.n	80034ee <HAL_InitTick+0x2e>
  {
    return HAL_ERROR;
 80034ea:	2301      	movs	r3, #1
 80034ec:	e00e      	b.n	800350c <HAL_InitTick+0x4c>
  }

  /* Configure the SysTick IRQ priority */
  if (TickPriority < (1UL << __NVIC_PRIO_BITS))
 80034ee:	687b      	ldr	r3, [r7, #4]
 80034f0:	2b0f      	cmp	r3, #15
 80034f2:	d80a      	bhi.n	800350a <HAL_InitTick+0x4a>
  {
    HAL_NVIC_SetPriority(SysTick_IRQn, TickPriority, 0U);
 80034f4:	2200      	movs	r2, #0
 80034f6:	6879      	ldr	r1, [r7, #4]
 80034f8:	f04f 30ff 	mov.w	r0, #4294967295
 80034fc:	f000 f92f 	bl	800375e <HAL_NVIC_SetPriority>
    uwTickPrio = TickPriority;
 8003500:	4a06      	ldr	r2, [pc, #24]	; (800351c <HAL_InitTick+0x5c>)
 8003502:	687b      	ldr	r3, [r7, #4]
 8003504:	6013      	str	r3, [r2, #0]
  {
    return HAL_ERROR;
  }

  /* Return function status */
  return HAL_OK;
 8003506:	2300      	movs	r3, #0
 8003508:	e000      	b.n	800350c <HAL_InitTick+0x4c>
    return HAL_ERROR;
 800350a:	2301      	movs	r3, #1
}
 800350c:	4618      	mov	r0, r3
 800350e:	3708      	adds	r7, #8
 8003510:	46bd      	mov	sp, r7
 8003512:	bd80      	pop	{r7, pc}
 8003514:	20000000 	.word	0x20000000
 8003518:	20000008 	.word	0x20000008
 800351c:	20000004 	.word	0x20000004

08003520 <HAL_IncTick>:
 * @note This function is declared as __weak to be overwritten in case of other 
  *      implementations in user file.
  * @retval None
  */
__weak void HAL_IncTick(void)
{
 8003520:	b480      	push	{r7}
 8003522:	af00      	add	r7, sp, #0
  uwTick += uwTickFreq;
 8003524:	4b06      	ldr	r3, [pc, #24]	; (8003540 <HAL_IncTick+0x20>)
 8003526:	781b      	ldrb	r3, [r3, #0]
 8003528:	461a      	mov	r2, r3
 800352a:	4b06      	ldr	r3, [pc, #24]	; (8003544 <HAL_IncTick+0x24>)
 800352c:	681b      	ldr	r3, [r3, #0]
 800352e:	4413      	add	r3, r2
 8003530:	4a04      	ldr	r2, [pc, #16]	; (8003544 <HAL_IncTick+0x24>)
 8003532:	6013      	str	r3, [r2, #0]
}
 8003534:	bf00      	nop
 8003536:	46bd      	mov	sp, r7
 8003538:	f85d 7b04 	ldr.w	r7, [sp], #4
 800353c:	4770      	bx	lr
 800353e:	bf00      	nop
 8003540:	20000008 	.word	0x20000008
 8003544:	20000274 	.word	0x20000274

08003548 <HAL_GetTick>:
  * @note This function is declared as __weak to be overwritten in case of other 
  *       implementations in user file.
  * @retval tick value
  */
__weak uint32_t HAL_GetTick(void)
{
 8003548:	b480      	push	{r7}
 800354a:	af00      	add	r7, sp, #0
  return uwTick;
 800354c:	4b03      	ldr	r3, [pc, #12]	; (800355c <HAL_GetTick+0x14>)
 800354e:	681b      	ldr	r3, [r3, #0]
}
 8003550:	4618      	mov	r0, r3
 8003552:	46bd      	mov	sp, r7
 8003554:	f85d 7b04 	ldr.w	r7, [sp], #4
 8003558:	4770      	bx	lr
 800355a:	bf00      	nop
 800355c:	20000274 	.word	0x20000274

08003560 <HAL_Delay>:
  *       implementations in user file.
  * @param Delay specifies the delay time length, in milliseconds.
  * @retval None
  */
__weak void HAL_Delay(uint32_t Delay)
{
 8003560:	b580      	push	{r7, lr}
 8003562:	b084      	sub	sp, #16
 8003564:	af00      	add	r7, sp, #0
 8003566:	6078      	str	r0, [r7, #4]
  uint32_t tickstart = HAL_GetTick();
 8003568:	f7ff ffee 	bl	8003548 <HAL_GetTick>
 800356c:	60b8      	str	r0, [r7, #8]
  uint32_t wait = Delay;
 800356e:	687b      	ldr	r3, [r7, #4]
 8003570:	60fb      	str	r3, [r7, #12]

  /* Add a freq to guarantee minimum wait */
  if (wait < HAL_MAX_DELAY)
 8003572:	68fb      	ldr	r3, [r7, #12]
 8003574:	f1b3 3fff 	cmp.w	r3, #4294967295
 8003578:	d005      	beq.n	8003586 <HAL_Delay+0x26>
  {
    wait += (uint32_t)(uwTickFreq);
 800357a:	4b0a      	ldr	r3, [pc, #40]	; (80035a4 <HAL_Delay+0x44>)
 800357c:	781b      	ldrb	r3, [r3, #0]
 800357e:	461a      	mov	r2, r3
 8003580:	68fb      	ldr	r3, [r7, #12]
 8003582:	4413      	add	r3, r2
 8003584:	60fb      	str	r3, [r7, #12]
  }

  while((HAL_GetTick() - tickstart) < wait)
 8003586:	bf00      	nop
 8003588:	f7ff ffde 	bl	8003548 <HAL_GetTick>
 800358c:	4602      	mov	r2, r0
 800358e:	68bb      	ldr	r3, [r7, #8]
 8003590:	1ad3      	subs	r3, r2, r3
 8003592:	68fa      	ldr	r2, [r7, #12]
 8003594:	429a      	cmp	r2, r3
 8003596:	d8f7      	bhi.n	8003588 <HAL_Delay+0x28>
  {
  }
}
 8003598:	bf00      	nop
 800359a:	bf00      	nop
 800359c:	3710      	adds	r7, #16
 800359e:	46bd      	mov	sp, r7
 80035a0:	bd80      	pop	{r7, pc}
 80035a2:	bf00      	nop
 80035a4:	20000008 	.word	0x20000008

080035a8 <__NVIC_SetPriorityGrouping>:
           In case of a conflict between priority grouping and available
           priority bits (__NVIC_PRIO_BITS), the smallest possible priority group is set.
  \param [in]      PriorityGroup  Priority grouping field.
 */
__STATIC_INLINE void __NVIC_SetPriorityGrouping(uint32_t PriorityGroup)
{
 80035a8:	b480      	push	{r7}
 80035aa:	b085      	sub	sp, #20
 80035ac:	af00      	add	r7, sp, #0
 80035ae:	6078      	str	r0, [r7, #4]
  uint32_t reg_value;
  uint32_t PriorityGroupTmp = (PriorityGroup & (uint32_t)0x07UL);             /* only values 0..7 are used          */
 80035b0:	687b      	ldr	r3, [r7, #4]
 80035b2:	f003 0307 	and.w	r3, r3, #7
 80035b6:	60fb      	str	r3, [r7, #12]

  reg_value  =  SCB->AIRCR;                                                   /* read old register configuration    */
 80035b8:	4b0c      	ldr	r3, [pc, #48]	; (80035ec <__NVIC_SetPriorityGrouping+0x44>)
 80035ba:	68db      	ldr	r3, [r3, #12]
 80035bc:	60bb      	str	r3, [r7, #8]
  reg_value &= ~((uint32_t)(SCB_AIRCR_VECTKEY_Msk | SCB_AIRCR_PRIGROUP_Msk)); /* clear bits to change               */
 80035be:	68ba      	ldr	r2, [r7, #8]
 80035c0:	f64f 03ff 	movw	r3, #63743	; 0xf8ff
 80035c4:	4013      	ands	r3, r2
 80035c6:	60bb      	str	r3, [r7, #8]
  reg_value  =  (reg_value                                   |
                ((uint32_t)0x5FAUL << SCB_AIRCR_VECTKEY_Pos) |
                (PriorityGroupTmp << SCB_AIRCR_PRIGROUP_Pos)  );              /* Insert write key and priority group */
 80035c8:	68fb      	ldr	r3, [r7, #12]
 80035ca:	021a      	lsls	r2, r3, #8
                ((uint32_t)0x5FAUL << SCB_AIRCR_VECTKEY_Pos) |
 80035cc:	68bb      	ldr	r3, [r7, #8]
 80035ce:	4313      	orrs	r3, r2
  reg_value  =  (reg_value                                   |
 80035d0:	f043 63bf 	orr.w	r3, r3, #100139008	; 0x5f80000
 80035d4:	f443 3300 	orr.w	r3, r3, #131072	; 0x20000
 80035d8:	60bb      	str	r3, [r7, #8]
  SCB->AIRCR =  reg_value;
 80035da:	4a04      	ldr	r2, [pc, #16]	; (80035ec <__NVIC_SetPriorityGrouping+0x44>)
 80035dc:	68bb      	ldr	r3, [r7, #8]
 80035de:	60d3      	str	r3, [r2, #12]
}
 80035e0:	bf00      	nop
 80035e2:	3714      	adds	r7, #20
 80035e4:	46bd      	mov	sp, r7
 80035e6:	f85d 7b04 	ldr.w	r7, [sp], #4
 80035ea:	4770      	bx	lr
 80035ec:	e000ed00 	.word	0xe000ed00

080035f0 <__NVIC_GetPriorityGrouping>:
  \brief   Get Priority Grouping
  \details Reads the priority grouping field from the NVIC Interrupt Controller.
  \return                Priority grouping field (SCB->AIRCR [10:8] PRIGROUP field).
 */
__STATIC_INLINE uint32_t __NVIC_GetPriorityGrouping(void)
{
 80035f0:	b480      	push	{r7}
 80035f2:	af00      	add	r7, sp, #0
  return ((uint32_t)((SCB->AIRCR & SCB_AIRCR_PRIGROUP_Msk) >> SCB_AIRCR_PRIGROUP_Pos));
 80035f4:	4b04      	ldr	r3, [pc, #16]	; (8003608 <__NVIC_GetPriorityGrouping+0x18>)
 80035f6:	68db      	ldr	r3, [r3, #12]
 80035f8:	0a1b      	lsrs	r3, r3, #8
 80035fa:	f003 0307 	and.w	r3, r3, #7
}
 80035fe:	4618      	mov	r0, r3
 8003600:	46bd      	mov	sp, r7
 8003602:	f85d 7b04 	ldr.w	r7, [sp], #4
 8003606:	4770      	bx	lr
 8003608:	e000ed00 	.word	0xe000ed00

0800360c <__NVIC_EnableIRQ>:
  \details Enables a device specific interrupt in the NVIC interrupt controller.
  \param [in]      IRQn  Device specific interrupt number.
  \note    IRQn must not be negative.
 */
__STATIC_INLINE void __NVIC_EnableIRQ(IRQn_Type IRQn)
{
 800360c:	b480      	push	{r7}
 800360e:	b083      	sub	sp, #12
 8003610:	af00      	add	r7, sp, #0
 8003612:	4603      	mov	r3, r0
 8003614:	71fb      	strb	r3, [r7, #7]
  if ((int32_t)(IRQn) >= 0)
 8003616:	f997 3007 	ldrsb.w	r3, [r7, #7]
 800361a:	2b00      	cmp	r3, #0
 800361c:	db0b      	blt.n	8003636 <__NVIC_EnableIRQ+0x2a>
  {
    NVIC->ISER[(((uint32_t)IRQn) >> 5UL)] = (uint32_t)(1UL << (((uint32_t)IRQn) & 0x1FUL));
 800361e:	79fb      	ldrb	r3, [r7, #7]
 8003620:	f003 021f 	and.w	r2, r3, #31
 8003624:	4907      	ldr	r1, [pc, #28]	; (8003644 <__NVIC_EnableIRQ+0x38>)
 8003626:	f997 3007 	ldrsb.w	r3, [r7, #7]
 800362a:	095b      	lsrs	r3, r3, #5
 800362c:	2001      	movs	r0, #1
 800362e:	fa00 f202 	lsl.w	r2, r0, r2
 8003632:	f841 2023 	str.w	r2, [r1, r3, lsl #2]
  }
}
 8003636:	bf00      	nop
 8003638:	370c      	adds	r7, #12
 800363a:	46bd      	mov	sp, r7
 800363c:	f85d 7b04 	ldr.w	r7, [sp], #4
 8003640:	4770      	bx	lr
 8003642:	bf00      	nop
 8003644:	e000e100 	.word	0xe000e100

08003648 <__NVIC_SetPriority>:
  \param [in]      IRQn  Interrupt number.
  \param [in]  priority  Priority to set.
  \note    The priority cannot be set for every processor exception.
 */
__STATIC_INLINE void __NVIC_SetPriority(IRQn_Type IRQn, uint32_t priority)
{
 8003648:	b480      	push	{r7}
 800364a:	b083      	sub	sp, #12
 800364c:	af00      	add	r7, sp, #0
 800364e:	4603      	mov	r3, r0
 8003650:	6039      	str	r1, [r7, #0]
 8003652:	71fb      	strb	r3, [r7, #7]
  if ((int32_t)(IRQn) >= 0)
 8003654:	f997 3007 	ldrsb.w	r3, [r7, #7]
 8003658:	2b00      	cmp	r3, #0
 800365a:	db0a      	blt.n	8003672 <__NVIC_SetPriority+0x2a>
  {
    NVIC->IP[((uint32_t)IRQn)]               = (uint8_t)((priority << (8U - __NVIC_PRIO_BITS)) & (uint32_t)0xFFUL);
 800365c:	683b      	ldr	r3, [r7, #0]
 800365e:	b2da      	uxtb	r2, r3
 8003660:	490c      	ldr	r1, [pc, #48]	; (8003694 <__NVIC_SetPriority+0x4c>)
 8003662:	f997 3007 	ldrsb.w	r3, [r7, #7]
 8003666:	0112      	lsls	r2, r2, #4
 8003668:	b2d2      	uxtb	r2, r2
 800366a:	440b      	add	r3, r1
 800366c:	f883 2300 	strb.w	r2, [r3, #768]	; 0x300
  }
  else
  {
    SCB->SHP[(((uint32_t)IRQn) & 0xFUL)-4UL] = (uint8_t)((priority << (8U - __NVIC_PRIO_BITS)) & (uint32_t)0xFFUL);
  }
}
 8003670:	e00a      	b.n	8003688 <__NVIC_SetPriority+0x40>
    SCB->SHP[(((uint32_t)IRQn) & 0xFUL)-4UL] = (uint8_t)((priority << (8U - __NVIC_PRIO_BITS)) & (uint32_t)0xFFUL);
 8003672:	683b      	ldr	r3, [r7, #0]
 8003674:	b2da      	uxtb	r2, r3
 8003676:	4908      	ldr	r1, [pc, #32]	; (8003698 <__NVIC_SetPriority+0x50>)
 8003678:	79fb      	ldrb	r3, [r7, #7]
 800367a:	f003 030f 	and.w	r3, r3, #15
 800367e:	3b04      	subs	r3, #4
 8003680:	0112      	lsls	r2, r2, #4
 8003682:	b2d2      	uxtb	r2, r2
 8003684:	440b      	add	r3, r1
 8003686:	761a      	strb	r2, [r3, #24]
}
 8003688:	bf00      	nop
 800368a:	370c      	adds	r7, #12
 800368c:	46bd      	mov	sp, r7
 800368e:	f85d 7b04 	ldr.w	r7, [sp], #4
 8003692:	4770      	bx	lr
 8003694:	e000e100 	.word	0xe000e100
 8003698:	e000ed00 	.word	0xe000ed00

0800369c <NVIC_EncodePriority>:
  \param [in]   PreemptPriority  Preemptive priority value (starting from 0).
  \param [in]       SubPriority  Subpriority value (starting from 0).
  \return                        Encoded priority. Value can be used in the function \ref NVIC_SetPriority().
 */
__STATIC_INLINE uint32_t NVIC_EncodePriority (uint32_t PriorityGroup, uint32_t PreemptPriority, uint32_t SubPriority)
{
 800369c:	b480      	push	{r7}
 800369e:	b089      	sub	sp, #36	; 0x24
 80036a0:	af00      	add	r7, sp, #0
 80036a2:	60f8      	str	r0, [r7, #12]
 80036a4:	60b9      	str	r1, [r7, #8]
 80036a6:	607a      	str	r2, [r7, #4]
  uint32_t PriorityGroupTmp = (PriorityGroup & (uint32_t)0x07UL);   /* only values 0..7 are used          */
 80036a8:	68fb      	ldr	r3, [r7, #12]
 80036aa:	f003 0307 	and.w	r3, r3, #7
 80036ae:	61fb      	str	r3, [r7, #28]
  uint32_t PreemptPriorityBits;
  uint32_t SubPriorityBits;

  PreemptPriorityBits = ((7UL - PriorityGroupTmp) > (uint32_t)(__NVIC_PRIO_BITS)) ? (uint32_t)(__NVIC_PRIO_BITS) : (uint32_t)(7UL - PriorityGroupTmp);
 80036b0:	69fb      	ldr	r3, [r7, #28]
 80036b2:	f1c3 0307 	rsb	r3, r3, #7
 80036b6:	2b04      	cmp	r3, #4
 80036b8:	bf28      	it	cs
 80036ba:	2304      	movcs	r3, #4
 80036bc:	61bb      	str	r3, [r7, #24]
  SubPriorityBits     = ((PriorityGroupTmp + (uint32_t)(__NVIC_PRIO_BITS)) < (uint32_t)7UL) ? (uint32_t)0UL : (uint32_t)((PriorityGroupTmp - 7UL) + (uint32_t)(__NVIC_PRIO_BITS));
 80036be:	69fb      	ldr	r3, [r7, #28]
 80036c0:	3304      	adds	r3, #4
 80036c2:	2b06      	cmp	r3, #6
 80036c4:	d902      	bls.n	80036cc <NVIC_EncodePriority+0x30>
 80036c6:	69fb      	ldr	r3, [r7, #28]
 80036c8:	3b03      	subs	r3, #3
 80036ca:	e000      	b.n	80036ce <NVIC_EncodePriority+0x32>
 80036cc:	2300      	movs	r3, #0
 80036ce:	617b      	str	r3, [r7, #20]

  return (
           ((PreemptPriority & (uint32_t)((1UL << (PreemptPriorityBits)) - 1UL)) << SubPriorityBits) |
 80036d0:	f04f 32ff 	mov.w	r2, #4294967295
 80036d4:	69bb      	ldr	r3, [r7, #24]
 80036d6:	fa02 f303 	lsl.w	r3, r2, r3
 80036da:	43da      	mvns	r2, r3
 80036dc:	68bb      	ldr	r3, [r7, #8]
 80036de:	401a      	ands	r2, r3
 80036e0:	697b      	ldr	r3, [r7, #20]
 80036e2:	409a      	lsls	r2, r3
           ((SubPriority     & (uint32_t)((1UL << (SubPriorityBits    )) - 1UL)))
 80036e4:	f04f 31ff 	mov.w	r1, #4294967295
 80036e8:	697b      	ldr	r3, [r7, #20]
 80036ea:	fa01 f303 	lsl.w	r3, r1, r3
 80036ee:	43d9      	mvns	r1, r3
 80036f0:	687b      	ldr	r3, [r7, #4]
 80036f2:	400b      	ands	r3, r1
           ((PreemptPriority & (uint32_t)((1UL << (PreemptPriorityBits)) - 1UL)) << SubPriorityBits) |
 80036f4:	4313      	orrs	r3, r2
         );
}
 80036f6:	4618      	mov	r0, r3
 80036f8:	3724      	adds	r7, #36	; 0x24
 80036fa:	46bd      	mov	sp, r7
 80036fc:	f85d 7b04 	ldr.w	r7, [sp], #4
 8003700:	4770      	bx	lr
	...

08003704 <SysTick_Config>:
  \note    When the variable <b>__Vendor_SysTickConfig</b> is set to 1, then the
           function <b>SysTick_Config</b> is not included. In this case, the file <b><i>device</i>.h</b>
           must contain a vendor-specific implementation of this function.
 */
__STATIC_INLINE uint32_t SysTick_Config(uint32_t ticks)
{
 8003704:	b580      	push	{r7, lr}
 8003706:	b082      	sub	sp, #8
 8003708:	af00      	add	r7, sp, #0
 800370a:	6078      	str	r0, [r7, #4]
  if ((ticks - 1UL) > SysTick_LOAD_RELOAD_Msk)
 800370c:	687b      	ldr	r3, [r7, #4]
 800370e:	3b01      	subs	r3, #1
 8003710:	f1b3 7f80 	cmp.w	r3, #16777216	; 0x1000000
 8003714:	d301      	bcc.n	800371a <SysTick_Config+0x16>
  {
    return (1UL);                                                   /* Reload value impossible */
 8003716:	2301      	movs	r3, #1
 8003718:	e00f      	b.n	800373a <SysTick_Config+0x36>
  }

  SysTick->LOAD  = (uint32_t)(ticks - 1UL);                         /* set reload register */
 800371a:	4a0a      	ldr	r2, [pc, #40]	; (8003744 <SysTick_Config+0x40>)
 800371c:	687b      	ldr	r3, [r7, #4]
 800371e:	3b01      	subs	r3, #1
 8003720:	6053      	str	r3, [r2, #4]
  NVIC_SetPriority (SysTick_IRQn, (1UL << __NVIC_PRIO_BITS) - 1UL); /* set Priority for Systick Interrupt */
 8003722:	210f      	movs	r1, #15
 8003724:	f04f 30ff 	mov.w	r0, #4294967295
 8003728:	f7ff ff8e 	bl	8003648 <__NVIC_SetPriority>
  SysTick->VAL   = 0UL;                                             /* Load the SysTick Counter Value */
 800372c:	4b05      	ldr	r3, [pc, #20]	; (8003744 <SysTick_Config+0x40>)
 800372e:	2200      	movs	r2, #0
 8003730:	609a      	str	r2, [r3, #8]
  SysTick->CTRL  = SysTick_CTRL_CLKSOURCE_Msk |
 8003732:	4b04      	ldr	r3, [pc, #16]	; (8003744 <SysTick_Config+0x40>)
 8003734:	2207      	movs	r2, #7
 8003736:	601a      	str	r2, [r3, #0]
                   SysTick_CTRL_TICKINT_Msk   |
                   SysTick_CTRL_ENABLE_Msk;                         /* Enable SysTick IRQ and SysTick Timer */
  return (0UL);                                                     /* Function successful */
 8003738:	2300      	movs	r3, #0
}
 800373a:	4618      	mov	r0, r3
 800373c:	3708      	adds	r7, #8
 800373e:	46bd      	mov	sp, r7
 8003740:	bd80      	pop	{r7, pc}
 8003742:	bf00      	nop
 8003744:	e000e010 	.word	0xe000e010

08003748 <HAL_NVIC_SetPriorityGrouping>:
  * @note   When the NVIC_PriorityGroup_0 is selected, IRQ preemption is no more possible. 
  *         The pending IRQ priority will be managed only by the subpriority. 
  * @retval None
  */
void HAL_NVIC_SetPriorityGrouping(uint32_t PriorityGroup)
{
 8003748:	b580      	push	{r7, lr}
 800374a:	b082      	sub	sp, #8
 800374c:	af00      	add	r7, sp, #0
 800374e:	6078      	str	r0, [r7, #4]
  /* Check the parameters */
  assert_param(IS_NVIC_PRIORITY_GROUP(PriorityGroup));
  
  /* Set the PRIGROUP[10:8] bits according to the PriorityGroup parameter value */
  NVIC_SetPriorityGrouping(PriorityGroup);
 8003750:	6878      	ldr	r0, [r7, #4]
 8003752:	f7ff ff29 	bl	80035a8 <__NVIC_SetPriorityGrouping>
}
 8003756:	bf00      	nop
 8003758:	3708      	adds	r7, #8
 800375a:	46bd      	mov	sp, r7
 800375c:	bd80      	pop	{r7, pc}

0800375e <HAL_NVIC_SetPriority>:
  *         This parameter can be a value between 0 and 15
  *         A lower priority value indicates a higher priority.          
  * @retval None
  */
void HAL_NVIC_SetPriority(IRQn_Type IRQn, uint32_t PreemptPriority, uint32_t SubPriority)
{ 
 800375e:	b580      	push	{r7, lr}
 8003760:	b086      	sub	sp, #24
 8003762:	af00      	add	r7, sp, #0
 8003764:	4603      	mov	r3, r0
 8003766:	60b9      	str	r1, [r7, #8]
 8003768:	607a      	str	r2, [r7, #4]
 800376a:	73fb      	strb	r3, [r7, #15]
  uint32_t prioritygroup = 0x00U;
 800376c:	2300      	movs	r3, #0
 800376e:	617b      	str	r3, [r7, #20]
  
  /* Check the parameters */
  assert_param(IS_NVIC_SUB_PRIORITY(SubPriority));
  assert_param(IS_NVIC_PREEMPTION_PRIORITY(PreemptPriority));
  
  prioritygroup = NVIC_GetPriorityGrouping();
 8003770:	f7ff ff3e 	bl	80035f0 <__NVIC_GetPriorityGrouping>
 8003774:	6178      	str	r0, [r7, #20]
  
  NVIC_SetPriority(IRQn, NVIC_EncodePriority(prioritygroup, PreemptPriority, SubPriority));
 8003776:	687a      	ldr	r2, [r7, #4]
 8003778:	68b9      	ldr	r1, [r7, #8]
 800377a:	6978      	ldr	r0, [r7, #20]
 800377c:	f7ff ff8e 	bl	800369c <NVIC_EncodePriority>
 8003780:	4602      	mov	r2, r0
 8003782:	f997 300f 	ldrsb.w	r3, [r7, #15]
 8003786:	4611      	mov	r1, r2
 8003788:	4618      	mov	r0, r3
 800378a:	f7ff ff5d 	bl	8003648 <__NVIC_SetPriority>
}
 800378e:	bf00      	nop
 8003790:	3718      	adds	r7, #24
 8003792:	46bd      	mov	sp, r7
 8003794:	bd80      	pop	{r7, pc}

08003796 <HAL_NVIC_EnableIRQ>:
  *         This parameter can be an enumerator of IRQn_Type enumeration
  *         (For the complete STM32 Devices IRQ Channels list, please refer to the appropriate CMSIS device file (stm32f4xxxx.h))
  * @retval None
  */
void HAL_NVIC_EnableIRQ(IRQn_Type IRQn)
{
 8003796:	b580      	push	{r7, lr}
 8003798:	b082      	sub	sp, #8
 800379a:	af00      	add	r7, sp, #0
 800379c:	4603      	mov	r3, r0
 800379e:	71fb      	strb	r3, [r7, #7]
  /* Check the parameters */
  assert_param(IS_NVIC_DEVICE_IRQ(IRQn));
  
  /* Enable interrupt */
  NVIC_EnableIRQ(IRQn);
 80037a0:	f997 3007 	ldrsb.w	r3, [r7, #7]
 80037a4:	4618      	mov	r0, r3
 80037a6:	f7ff ff31 	bl	800360c <__NVIC_EnableIRQ>
}
 80037aa:	bf00      	nop
 80037ac:	3708      	adds	r7, #8
 80037ae:	46bd      	mov	sp, r7
 80037b0:	bd80      	pop	{r7, pc}

080037b2 <HAL_SYSTICK_Config>:
  * @param  TicksNumb Specifies the ticks Number of ticks between two interrupts.
  * @retval status:  - 0  Function succeeded.
  *                  - 1  Function failed.
  */
uint32_t HAL_SYSTICK_Config(uint32_t TicksNumb)
{
 80037b2:	b580      	push	{r7, lr}
 80037b4:	b082      	sub	sp, #8
 80037b6:	af00      	add	r7, sp, #0
 80037b8:	6078      	str	r0, [r7, #4]
   return SysTick_Config(TicksNumb);
 80037ba:	6878      	ldr	r0, [r7, #4]
 80037bc:	f7ff ffa2 	bl	8003704 <SysTick_Config>
 80037c0:	4603      	mov	r3, r0
}
 80037c2:	4618      	mov	r0, r3
 80037c4:	3708      	adds	r7, #8
 80037c6:	46bd      	mov	sp, r7
 80037c8:	bd80      	pop	{r7, pc}

080037ca <HAL_DMA_Abort>:
  *        and the Stream will be effectively disabled only after the transfer of
  *        this single data is finished.  
  * @retval HAL status
  */
HAL_StatusTypeDef HAL_DMA_Abort(DMA_HandleTypeDef *hdma)
{
 80037ca:	b580      	push	{r7, lr}
 80037cc:	b084      	sub	sp, #16
 80037ce:	af00      	add	r7, sp, #0
 80037d0:	6078      	str	r0, [r7, #4]
  /* calculate DMA base and stream number */
  DMA_Base_Registers *regs = (DMA_Base_Registers *)hdma->StreamBaseAddress;
 80037d2:	687b      	ldr	r3, [r7, #4]
 80037d4:	6d9b      	ldr	r3, [r3, #88]	; 0x58
 80037d6:	60fb      	str	r3, [r7, #12]
  
  uint32_t tickstart = HAL_GetTick();
 80037d8:	f7ff feb6 	bl	8003548 <HAL_GetTick>
 80037dc:	60b8      	str	r0, [r7, #8]
  
  if(hdma->State != HAL_DMA_STATE_BUSY)
 80037de:	687b      	ldr	r3, [r7, #4]
 80037e0:	f893 3035 	ldrb.w	r3, [r3, #53]	; 0x35
 80037e4:	b2db      	uxtb	r3, r3
 80037e6:	2b02      	cmp	r3, #2
 80037e8:	d008      	beq.n	80037fc <HAL_DMA_Abort+0x32>
  {
    hdma->ErrorCode = HAL_DMA_ERROR_NO_XFER;
 80037ea:	687b      	ldr	r3, [r7, #4]
 80037ec:	2280      	movs	r2, #128	; 0x80
 80037ee:	655a      	str	r2, [r3, #84]	; 0x54
    
    /* Process Unlocked */
    __HAL_UNLOCK(hdma);
 80037f0:	687b      	ldr	r3, [r7, #4]
 80037f2:	2200      	movs	r2, #0
 80037f4:	f883 2034 	strb.w	r2, [r3, #52]	; 0x34
    
    return HAL_ERROR;
 80037f8:	2301      	movs	r3, #1
 80037fa:	e052      	b.n	80038a2 <HAL_DMA_Abort+0xd8>
  }
  else
  {
    /* Disable all the transfer interrupts */
    hdma->Instance->CR  &= ~(DMA_IT_TC | DMA_IT_TE | DMA_IT_DME);
 80037fc:	687b      	ldr	r3, [r7, #4]
 80037fe:	681b      	ldr	r3, [r3, #0]
 8003800:	681a      	ldr	r2, [r3, #0]
 8003802:	687b      	ldr	r3, [r7, #4]
 8003804:	681b      	ldr	r3, [r3, #0]
 8003806:	f022 0216 	bic.w	r2, r2, #22
 800380a:	601a      	str	r2, [r3, #0]
    hdma->Instance->FCR &= ~(DMA_IT_FE);
 800380c:	687b      	ldr	r3, [r7, #4]
 800380e:	681b      	ldr	r3, [r3, #0]
 8003810:	695a      	ldr	r2, [r3, #20]
 8003812:	687b      	ldr	r3, [r7, #4]
 8003814:	681b      	ldr	r3, [r3, #0]
 8003816:	f022 0280 	bic.w	r2, r2, #128	; 0x80
 800381a:	615a      	str	r2, [r3, #20]
    
    if((hdma->XferHalfCpltCallback != NULL) || (hdma->XferM1HalfCpltCallback != NULL))
 800381c:	687b      	ldr	r3, [r7, #4]
 800381e:	6c1b      	ldr	r3, [r3, #64]	; 0x40
 8003820:	2b00      	cmp	r3, #0
 8003822:	d103      	bne.n	800382c <HAL_DMA_Abort+0x62>
 8003824:	687b      	ldr	r3, [r7, #4]
 8003826:	6c9b      	ldr	r3, [r3, #72]	; 0x48
 8003828:	2b00      	cmp	r3, #0
 800382a:	d007      	beq.n	800383c <HAL_DMA_Abort+0x72>
    {
      hdma->Instance->CR  &= ~(DMA_IT_HT);
 800382c:	687b      	ldr	r3, [r7, #4]
 800382e:	681b      	ldr	r3, [r3, #0]
 8003830:	681a      	ldr	r2, [r3, #0]
 8003832:	687b      	ldr	r3, [r7, #4]
 8003834:	681b      	ldr	r3, [r3, #0]
 8003836:	f022 0208 	bic.w	r2, r2, #8
 800383a:	601a      	str	r2, [r3, #0]
    }
    
    /* Disable the stream */
    __HAL_DMA_DISABLE(hdma);
 800383c:	687b      	ldr	r3, [r7, #4]
 800383e:	681b      	ldr	r3, [r3, #0]
 8003840:	681a      	ldr	r2, [r3, #0]
 8003842:	687b      	ldr	r3, [r7, #4]
 8003844:	681b      	ldr	r3, [r3, #0]
 8003846:	f022 0201 	bic.w	r2, r2, #1
 800384a:	601a      	str	r2, [r3, #0]
    
    /* Check if the DMA Stream is effectively disabled */
    while((hdma->Instance->CR & DMA_SxCR_EN) != RESET)
 800384c:	e013      	b.n	8003876 <HAL_DMA_Abort+0xac>
    {
      /* Check for the Timeout */
      if((HAL_GetTick() - tickstart ) > HAL_TIMEOUT_DMA_ABORT)
 800384e:	f7ff fe7b 	bl	8003548 <HAL_GetTick>
 8003852:	4602      	mov	r2, r0
 8003854:	68bb      	ldr	r3, [r7, #8]
 8003856:	1ad3      	subs	r3, r2, r3
 8003858:	2b05      	cmp	r3, #5
 800385a:	d90c      	bls.n	8003876 <HAL_DMA_Abort+0xac>
      {
        /* Update error code */
        hdma->ErrorCode = HAL_DMA_ERROR_TIMEOUT;
 800385c:	687b      	ldr	r3, [r7, #4]
 800385e:	2220      	movs	r2, #32
 8003860:	655a      	str	r2, [r3, #84]	; 0x54
        
        /* Change the DMA state */
        hdma->State = HAL_DMA_STATE_TIMEOUT;
 8003862:	687b      	ldr	r3, [r7, #4]
 8003864:	2203      	movs	r2, #3
 8003866:	f883 2035 	strb.w	r2, [r3, #53]	; 0x35
        
        /* Process Unlocked */
        __HAL_UNLOCK(hdma);
 800386a:	687b      	ldr	r3, [r7, #4]
 800386c:	2200      	movs	r2, #0
 800386e:	f883 2034 	strb.w	r2, [r3, #52]	; 0x34
        
        return HAL_TIMEOUT;
 8003872:	2303      	movs	r3, #3
 8003874:	e015      	b.n	80038a2 <HAL_DMA_Abort+0xd8>
    while((hdma->Instance->CR & DMA_SxCR_EN) != RESET)
 8003876:	687b      	ldr	r3, [r7, #4]
 8003878:	681b      	ldr	r3, [r3, #0]
 800387a:	681b      	ldr	r3, [r3, #0]
 800387c:	f003 0301 	and.w	r3, r3, #1
 8003880:	2b00      	cmp	r3, #0
 8003882:	d1e4      	bne.n	800384e <HAL_DMA_Abort+0x84>
      }
    }
    
    /* Clear all interrupt flags at correct offset within the register */
    regs->IFCR = 0x3FU << hdma->StreamIndex;
 8003884:	687b      	ldr	r3, [r7, #4]
 8003886:	6ddb      	ldr	r3, [r3, #92]	; 0x5c
 8003888:	223f      	movs	r2, #63	; 0x3f
 800388a:	409a      	lsls	r2, r3
 800388c:	68fb      	ldr	r3, [r7, #12]
 800388e:	609a      	str	r2, [r3, #8]
    
    /* Change the DMA state*/
    hdma->State = HAL_DMA_STATE_READY;
 8003890:	687b      	ldr	r3, [r7, #4]
 8003892:	2201      	movs	r2, #1
 8003894:	f883 2035 	strb.w	r2, [r3, #53]	; 0x35
    
    /* Process Unlocked */
    __HAL_UNLOCK(hdma);
 8003898:	687b      	ldr	r3, [r7, #4]
 800389a:	2200      	movs	r2, #0
 800389c:	f883 2034 	strb.w	r2, [r3, #52]	; 0x34
  }
  return HAL_OK;
 80038a0:	2300      	movs	r3, #0
}
 80038a2:	4618      	mov	r0, r3
 80038a4:	3710      	adds	r7, #16
 80038a6:	46bd      	mov	sp, r7
 80038a8:	bd80      	pop	{r7, pc}

080038aa <HAL_DMA_Abort_IT>:
  * @param  hdma   pointer to a DMA_HandleTypeDef structure that contains
  *                 the configuration information for the specified DMA Stream.
  * @retval HAL status
  */
HAL_StatusTypeDef HAL_DMA_Abort_IT(DMA_HandleTypeDef *hdma)
{
 80038aa:	b480      	push	{r7}
 80038ac:	b083      	sub	sp, #12
 80038ae:	af00      	add	r7, sp, #0
 80038b0:	6078      	str	r0, [r7, #4]
  if(hdma->State != HAL_DMA_STATE_BUSY)
 80038b2:	687b      	ldr	r3, [r7, #4]
 80038b4:	f893 3035 	ldrb.w	r3, [r3, #53]	; 0x35
 80038b8:	b2db      	uxtb	r3, r3
 80038ba:	2b02      	cmp	r3, #2
 80038bc:	d004      	beq.n	80038c8 <HAL_DMA_Abort_IT+0x1e>
  {
    hdma->ErrorCode = HAL_DMA_ERROR_NO_XFER;
 80038be:	687b      	ldr	r3, [r7, #4]
 80038c0:	2280      	movs	r2, #128	; 0x80
 80038c2:	655a      	str	r2, [r3, #84]	; 0x54
    return HAL_ERROR;
 80038c4:	2301      	movs	r3, #1
 80038c6:	e00c      	b.n	80038e2 <HAL_DMA_Abort_IT+0x38>
  }
  else
  {
    /* Set Abort State  */
    hdma->State = HAL_DMA_STATE_ABORT;
 80038c8:	687b      	ldr	r3, [r7, #4]
 80038ca:	2205      	movs	r2, #5
 80038cc:	f883 2035 	strb.w	r2, [r3, #53]	; 0x35
    
    /* Disable the stream */
    __HAL_DMA_DISABLE(hdma);
 80038d0:	687b      	ldr	r3, [r7, #4]
 80038d2:	681b      	ldr	r3, [r3, #0]
 80038d4:	681a      	ldr	r2, [r3, #0]
 80038d6:	687b      	ldr	r3, [r7, #4]
 80038d8:	681b      	ldr	r3, [r3, #0]
 80038da:	f022 0201 	bic.w	r2, r2, #1
 80038de:	601a      	str	r2, [r3, #0]
  }

  return HAL_OK;
 80038e0:	2300      	movs	r3, #0
}
 80038e2:	4618      	mov	r0, r3
 80038e4:	370c      	adds	r7, #12
 80038e6:	46bd      	mov	sp, r7
 80038e8:	f85d 7b04 	ldr.w	r7, [sp], #4
 80038ec:	4770      	bx	lr
	...

080038f0 <HAL_GPIO_Init>:
  * @param  GPIO_Init pointer to a GPIO_InitTypeDef structure that contains
  *         the configuration information for the specified GPIO peripheral.
  * @retval None
  */
void HAL_GPIO_Init(GPIO_TypeDef  *GPIOx, GPIO_InitTypeDef *GPIO_Init)
{
 80038f0:	b480      	push	{r7}
 80038f2:	b089      	sub	sp, #36	; 0x24
 80038f4:	af00      	add	r7, sp, #0
 80038f6:	6078      	str	r0, [r7, #4]
 80038f8:	6039      	str	r1, [r7, #0]
  uint32_t position;
  uint32_t ioposition = 0x00U;
 80038fa:	2300      	movs	r3, #0
 80038fc:	617b      	str	r3, [r7, #20]
  uint32_t iocurrent = 0x00U;
 80038fe:	2300      	movs	r3, #0
 8003900:	613b      	str	r3, [r7, #16]
  uint32_t temp = 0x00U;
 8003902:	2300      	movs	r3, #0
 8003904:	61bb      	str	r3, [r7, #24]
  assert_param(IS_GPIO_ALL_INSTANCE(GPIOx));
  assert_param(IS_GPIO_PIN(GPIO_Init->Pin));
  assert_param(IS_GPIO_MODE(GPIO_Init->Mode));

  /* Configure the port pins */
  for(position = 0U; position < GPIO_NUMBER; position++)
 8003906:	2300      	movs	r3, #0
 8003908:	61fb      	str	r3, [r7, #28]
 800390a:	e159      	b.n	8003bc0 <HAL_GPIO_Init+0x2d0>
  {
    /* Get the IO position */
    ioposition = 0x01U << position;
 800390c:	2201      	movs	r2, #1
 800390e:	69fb      	ldr	r3, [r7, #28]
 8003910:	fa02 f303 	lsl.w	r3, r2, r3
 8003914:	617b      	str	r3, [r7, #20]
    /* Get the current IO position */
    iocurrent = (uint32_t)(GPIO_Init->Pin) & ioposition;
 8003916:	683b      	ldr	r3, [r7, #0]
 8003918:	681b      	ldr	r3, [r3, #0]
 800391a:	697a      	ldr	r2, [r7, #20]
 800391c:	4013      	ands	r3, r2
 800391e:	613b      	str	r3, [r7, #16]

    if(iocurrent == ioposition)
 8003920:	693a      	ldr	r2, [r7, #16]
 8003922:	697b      	ldr	r3, [r7, #20]
 8003924:	429a      	cmp	r2, r3
 8003926:	f040 8148 	bne.w	8003bba <HAL_GPIO_Init+0x2ca>
    {
      /*--------------------- GPIO Mode Configuration ------------------------*/
      /* In case of Output or Alternate function mode selection */
      if(((GPIO_Init->Mode & GPIO_MODE) == MODE_OUTPUT) || \
 800392a:	683b      	ldr	r3, [r7, #0]
 800392c:	685b      	ldr	r3, [r3, #4]
 800392e:	f003 0303 	and.w	r3, r3, #3
 8003932:	2b01      	cmp	r3, #1
 8003934:	d005      	beq.n	8003942 <HAL_GPIO_Init+0x52>
          (GPIO_Init->Mode & GPIO_MODE) == MODE_AF)
 8003936:	683b      	ldr	r3, [r7, #0]
 8003938:	685b      	ldr	r3, [r3, #4]
 800393a:	f003 0303 	and.w	r3, r3, #3
      if(((GPIO_Init->Mode & GPIO_MODE) == MODE_OUTPUT) || \
 800393e:	2b02      	cmp	r3, #2
 8003940:	d130      	bne.n	80039a4 <HAL_GPIO_Init+0xb4>
      {
        /* Check the Speed parameter */
        assert_param(IS_GPIO_SPEED(GPIO_Init->Speed));
        /* Configure the IO Speed */
        temp = GPIOx->OSPEEDR; 
 8003942:	687b      	ldr	r3, [r7, #4]
 8003944:	689b      	ldr	r3, [r3, #8]
 8003946:	61bb      	str	r3, [r7, #24]
        temp &= ~(GPIO_OSPEEDER_OSPEEDR0 << (position * 2U));
 8003948:	69fb      	ldr	r3, [r7, #28]
 800394a:	005b      	lsls	r3, r3, #1
 800394c:	2203      	movs	r2, #3
 800394e:	fa02 f303 	lsl.w	r3, r2, r3
 8003952:	43db      	mvns	r3, r3
 8003954:	69ba      	ldr	r2, [r7, #24]
 8003956:	4013      	ands	r3, r2
 8003958:	61bb      	str	r3, [r7, #24]
        temp |= (GPIO_Init->Speed << (position * 2U));
 800395a:	683b      	ldr	r3, [r7, #0]
 800395c:	68da      	ldr	r2, [r3, #12]
 800395e:	69fb      	ldr	r3, [r7, #28]
 8003960:	005b      	lsls	r3, r3, #1
 8003962:	fa02 f303 	lsl.w	r3, r2, r3
 8003966:	69ba      	ldr	r2, [r7, #24]
 8003968:	4313      	orrs	r3, r2
 800396a:	61bb      	str	r3, [r7, #24]
        GPIOx->OSPEEDR = temp;
 800396c:	687b      	ldr	r3, [r7, #4]
 800396e:	69ba      	ldr	r2, [r7, #24]
 8003970:	609a      	str	r2, [r3, #8]

        /* Configure the IO Output Type */
        temp = GPIOx->OTYPER;
 8003972:	687b      	ldr	r3, [r7, #4]
 8003974:	685b      	ldr	r3, [r3, #4]
 8003976:	61bb      	str	r3, [r7, #24]
        temp &= ~(GPIO_OTYPER_OT_0 << position) ;
 8003978:	2201      	movs	r2, #1
 800397a:	69fb      	ldr	r3, [r7, #28]
 800397c:	fa02 f303 	lsl.w	r3, r2, r3
 8003980:	43db      	mvns	r3, r3
 8003982:	69ba      	ldr	r2, [r7, #24]
 8003984:	4013      	ands	r3, r2
 8003986:	61bb      	str	r3, [r7, #24]
        temp |= (((GPIO_Init->Mode & OUTPUT_TYPE) >> OUTPUT_TYPE_Pos) << position);
 8003988:	683b      	ldr	r3, [r7, #0]
 800398a:	685b      	ldr	r3, [r3, #4]
 800398c:	091b      	lsrs	r3, r3, #4
 800398e:	f003 0201 	and.w	r2, r3, #1
 8003992:	69fb      	ldr	r3, [r7, #28]
 8003994:	fa02 f303 	lsl.w	r3, r2, r3
 8003998:	69ba      	ldr	r2, [r7, #24]
 800399a:	4313      	orrs	r3, r2
 800399c:	61bb      	str	r3, [r7, #24]
        GPIOx->OTYPER = temp;
 800399e:	687b      	ldr	r3, [r7, #4]
 80039a0:	69ba      	ldr	r2, [r7, #24]
 80039a2:	605a      	str	r2, [r3, #4]
       }

      if((GPIO_Init->Mode & GPIO_MODE) != MODE_ANALOG)
 80039a4:	683b      	ldr	r3, [r7, #0]
 80039a6:	685b      	ldr	r3, [r3, #4]
 80039a8:	f003 0303 	and.w	r3, r3, #3
 80039ac:	2b03      	cmp	r3, #3
 80039ae:	d017      	beq.n	80039e0 <HAL_GPIO_Init+0xf0>
      {
        /* Check the parameters */
        assert_param(IS_GPIO_PULL(GPIO_Init->Pull));
        
        /* Activate the Pull-up or Pull down resistor for the current IO */
        temp = GPIOx->PUPDR;
 80039b0:	687b      	ldr	r3, [r7, #4]
 80039b2:	68db      	ldr	r3, [r3, #12]
 80039b4:	61bb      	str	r3, [r7, #24]
        temp &= ~(GPIO_PUPDR_PUPDR0 << (position * 2U));
 80039b6:	69fb      	ldr	r3, [r7, #28]
 80039b8:	005b      	lsls	r3, r3, #1
 80039ba:	2203      	movs	r2, #3
 80039bc:	fa02 f303 	lsl.w	r3, r2, r3
 80039c0:	43db      	mvns	r3, r3
 80039c2:	69ba      	ldr	r2, [r7, #24]
 80039c4:	4013      	ands	r3, r2
 80039c6:	61bb      	str	r3, [r7, #24]
        temp |= ((GPIO_Init->Pull) << (position * 2U));
 80039c8:	683b      	ldr	r3, [r7, #0]
 80039ca:	689a      	ldr	r2, [r3, #8]
 80039cc:	69fb      	ldr	r3, [r7, #28]
 80039ce:	005b      	lsls	r3, r3, #1
 80039d0:	fa02 f303 	lsl.w	r3, r2, r3
 80039d4:	69ba      	ldr	r2, [r7, #24]
 80039d6:	4313      	orrs	r3, r2
 80039d8:	61bb      	str	r3, [r7, #24]
        GPIOx->PUPDR = temp;
 80039da:	687b      	ldr	r3, [r7, #4]
 80039dc:	69ba      	ldr	r2, [r7, #24]
 80039de:	60da      	str	r2, [r3, #12]
      }

      /* In case of Alternate function mode selection */
      if((GPIO_Init->Mode & GPIO_MODE) == MODE_AF)
 80039e0:	683b      	ldr	r3, [r7, #0]
 80039e2:	685b      	ldr	r3, [r3, #4]
 80039e4:	f003 0303 	and.w	r3, r3, #3
 80039e8:	2b02      	cmp	r3, #2
 80039ea:	d123      	bne.n	8003a34 <HAL_GPIO_Init+0x144>
      {
        /* Check the Alternate function parameter */
        assert_param(IS_GPIO_AF(GPIO_Init->Alternate));
        /* Configure Alternate function mapped with the current IO */
        temp = GPIOx->AFR[position >> 3U];
 80039ec:	69fb      	ldr	r3, [r7, #28]
 80039ee:	08da      	lsrs	r2, r3, #3
 80039f0:	687b      	ldr	r3, [r7, #4]
 80039f2:	3208      	adds	r2, #8
 80039f4:	f853 3022 	ldr.w	r3, [r3, r2, lsl #2]
 80039f8:	61bb      	str	r3, [r7, #24]
        temp &= ~(0xFU << ((uint32_t)(position & 0x07U) * 4U)) ;
 80039fa:	69fb      	ldr	r3, [r7, #28]
 80039fc:	f003 0307 	and.w	r3, r3, #7
 8003a00:	009b      	lsls	r3, r3, #2
 8003a02:	220f      	movs	r2, #15
 8003a04:	fa02 f303 	lsl.w	r3, r2, r3
 8003a08:	43db      	mvns	r3, r3
 8003a0a:	69ba      	ldr	r2, [r7, #24]
 8003a0c:	4013      	ands	r3, r2
 8003a0e:	61bb      	str	r3, [r7, #24]
        temp |= ((uint32_t)(GPIO_Init->Alternate) << (((uint32_t)position & 0x07U) * 4U));
 8003a10:	683b      	ldr	r3, [r7, #0]
 8003a12:	691a      	ldr	r2, [r3, #16]
 8003a14:	69fb      	ldr	r3, [r7, #28]
 8003a16:	f003 0307 	and.w	r3, r3, #7
 8003a1a:	009b      	lsls	r3, r3, #2
 8003a1c:	fa02 f303 	lsl.w	r3, r2, r3
 8003a20:	69ba      	ldr	r2, [r7, #24]
 8003a22:	4313      	orrs	r3, r2
 8003a24:	61bb      	str	r3, [r7, #24]
        GPIOx->AFR[position >> 3U] = temp;
 8003a26:	69fb      	ldr	r3, [r7, #28]
 8003a28:	08da      	lsrs	r2, r3, #3
 8003a2a:	687b      	ldr	r3, [r7, #4]
 8003a2c:	3208      	adds	r2, #8
 8003a2e:	69b9      	ldr	r1, [r7, #24]
 8003a30:	f843 1022 	str.w	r1, [r3, r2, lsl #2]
      }

      /* Configure IO Direction mode (Input, Output, Alternate or Analog) */
      temp = GPIOx->MODER;
 8003a34:	687b      	ldr	r3, [r7, #4]
 8003a36:	681b      	ldr	r3, [r3, #0]
 8003a38:	61bb      	str	r3, [r7, #24]
      temp &= ~(GPIO_MODER_MODER0 << (position * 2U));
 8003a3a:	69fb      	ldr	r3, [r7, #28]
 8003a3c:	005b      	lsls	r3, r3, #1
 8003a3e:	2203      	movs	r2, #3
 8003a40:	fa02 f303 	lsl.w	r3, r2, r3
 8003a44:	43db      	mvns	r3, r3
 8003a46:	69ba      	ldr	r2, [r7, #24]
 8003a48:	4013      	ands	r3, r2
 8003a4a:	61bb      	str	r3, [r7, #24]
      temp |= ((GPIO_Init->Mode & GPIO_MODE) << (position * 2U));
 8003a4c:	683b      	ldr	r3, [r7, #0]
 8003a4e:	685b      	ldr	r3, [r3, #4]
 8003a50:	f003 0203 	and.w	r2, r3, #3
 8003a54:	69fb      	ldr	r3, [r7, #28]
 8003a56:	005b      	lsls	r3, r3, #1
 8003a58:	fa02 f303 	lsl.w	r3, r2, r3
 8003a5c:	69ba      	ldr	r2, [r7, #24]
 8003a5e:	4313      	orrs	r3, r2
 8003a60:	61bb      	str	r3, [r7, #24]
      GPIOx->MODER = temp;
 8003a62:	687b      	ldr	r3, [r7, #4]
 8003a64:	69ba      	ldr	r2, [r7, #24]
 8003a66:	601a      	str	r2, [r3, #0]

      /*--------------------- EXTI Mode Configuration ------------------------*/
      /* Configure the External Interrupt or event for the current IO */
      if((GPIO_Init->Mode & EXTI_MODE) != 0x00U)
 8003a68:	683b      	ldr	r3, [r7, #0]
 8003a6a:	685b      	ldr	r3, [r3, #4]
 8003a6c:	f403 3340 	and.w	r3, r3, #196608	; 0x30000
 8003a70:	2b00      	cmp	r3, #0
 8003a72:	f000 80a2 	beq.w	8003bba <HAL_GPIO_Init+0x2ca>
      {
        /* Enable SYSCFG Clock */
        __HAL_RCC_SYSCFG_CLK_ENABLE();
 8003a76:	2300      	movs	r3, #0
 8003a78:	60fb      	str	r3, [r7, #12]
 8003a7a:	4b57      	ldr	r3, [pc, #348]	; (8003bd8 <HAL_GPIO_Init+0x2e8>)
 8003a7c:	6c5b      	ldr	r3, [r3, #68]	; 0x44
 8003a7e:	4a56      	ldr	r2, [pc, #344]	; (8003bd8 <HAL_GPIO_Init+0x2e8>)
 8003a80:	f443 4380 	orr.w	r3, r3, #16384	; 0x4000
 8003a84:	6453      	str	r3, [r2, #68]	; 0x44
 8003a86:	4b54      	ldr	r3, [pc, #336]	; (8003bd8 <HAL_GPIO_Init+0x2e8>)
 8003a88:	6c5b      	ldr	r3, [r3, #68]	; 0x44
 8003a8a:	f403 4380 	and.w	r3, r3, #16384	; 0x4000
 8003a8e:	60fb      	str	r3, [r7, #12]
 8003a90:	68fb      	ldr	r3, [r7, #12]

        temp = SYSCFG->EXTICR[position >> 2U];
 8003a92:	4a52      	ldr	r2, [pc, #328]	; (8003bdc <HAL_GPIO_Init+0x2ec>)
 8003a94:	69fb      	ldr	r3, [r7, #28]
 8003a96:	089b      	lsrs	r3, r3, #2
 8003a98:	3302      	adds	r3, #2
 8003a9a:	f852 3023 	ldr.w	r3, [r2, r3, lsl #2]
 8003a9e:	61bb      	str	r3, [r7, #24]
        temp &= ~(0x0FU << (4U * (position & 0x03U)));
 8003aa0:	69fb      	ldr	r3, [r7, #28]
 8003aa2:	f003 0303 	and.w	r3, r3, #3
 8003aa6:	009b      	lsls	r3, r3, #2
 8003aa8:	220f      	movs	r2, #15
 8003aaa:	fa02 f303 	lsl.w	r3, r2, r3
 8003aae:	43db      	mvns	r3, r3
 8003ab0:	69ba      	ldr	r2, [r7, #24]
 8003ab2:	4013      	ands	r3, r2
 8003ab4:	61bb      	str	r3, [r7, #24]
        temp |= ((uint32_t)(GPIO_GET_INDEX(GPIOx)) << (4U * (position & 0x03U)));
 8003ab6:	687b      	ldr	r3, [r7, #4]
 8003ab8:	4a49      	ldr	r2, [pc, #292]	; (8003be0 <HAL_GPIO_Init+0x2f0>)
 8003aba:	4293      	cmp	r3, r2
 8003abc:	d019      	beq.n	8003af2 <HAL_GPIO_Init+0x202>
 8003abe:	687b      	ldr	r3, [r7, #4]
 8003ac0:	4a48      	ldr	r2, [pc, #288]	; (8003be4 <HAL_GPIO_Init+0x2f4>)
 8003ac2:	4293      	cmp	r3, r2
 8003ac4:	d013      	beq.n	8003aee <HAL_GPIO_Init+0x1fe>
 8003ac6:	687b      	ldr	r3, [r7, #4]
 8003ac8:	4a47      	ldr	r2, [pc, #284]	; (8003be8 <HAL_GPIO_Init+0x2f8>)
 8003aca:	4293      	cmp	r3, r2
 8003acc:	d00d      	beq.n	8003aea <HAL_GPIO_Init+0x1fa>
 8003ace:	687b      	ldr	r3, [r7, #4]
 8003ad0:	4a46      	ldr	r2, [pc, #280]	; (8003bec <HAL_GPIO_Init+0x2fc>)
 8003ad2:	4293      	cmp	r3, r2
 8003ad4:	d007      	beq.n	8003ae6 <HAL_GPIO_Init+0x1f6>
 8003ad6:	687b      	ldr	r3, [r7, #4]
 8003ad8:	4a45      	ldr	r2, [pc, #276]	; (8003bf0 <HAL_GPIO_Init+0x300>)
 8003ada:	4293      	cmp	r3, r2
 8003adc:	d101      	bne.n	8003ae2 <HAL_GPIO_Init+0x1f2>
 8003ade:	2304      	movs	r3, #4
 8003ae0:	e008      	b.n	8003af4 <HAL_GPIO_Init+0x204>
 8003ae2:	2307      	movs	r3, #7
 8003ae4:	e006      	b.n	8003af4 <HAL_GPIO_Init+0x204>
 8003ae6:	2303      	movs	r3, #3
 8003ae8:	e004      	b.n	8003af4 <HAL_GPIO_Init+0x204>
 8003aea:	2302      	movs	r3, #2
 8003aec:	e002      	b.n	8003af4 <HAL_GPIO_Init+0x204>
 8003aee:	2301      	movs	r3, #1
 8003af0:	e000      	b.n	8003af4 <HAL_GPIO_Init+0x204>
 8003af2:	2300      	movs	r3, #0
 8003af4:	69fa      	ldr	r2, [r7, #28]
 8003af6:	f002 0203 	and.w	r2, r2, #3
 8003afa:	0092      	lsls	r2, r2, #2
 8003afc:	4093      	lsls	r3, r2
 8003afe:	69ba      	ldr	r2, [r7, #24]
 8003b00:	4313      	orrs	r3, r2
 8003b02:	61bb      	str	r3, [r7, #24]
        SYSCFG->EXTICR[position >> 2U] = temp;
 8003b04:	4935      	ldr	r1, [pc, #212]	; (8003bdc <HAL_GPIO_Init+0x2ec>)
 8003b06:	69fb      	ldr	r3, [r7, #28]
 8003b08:	089b      	lsrs	r3, r3, #2
 8003b0a:	3302      	adds	r3, #2
 8003b0c:	69ba      	ldr	r2, [r7, #24]
 8003b0e:	f841 2023 	str.w	r2, [r1, r3, lsl #2]

        /* Clear Rising Falling edge configuration */
        temp = EXTI->RTSR;
 8003b12:	4b38      	ldr	r3, [pc, #224]	; (8003bf4 <HAL_GPIO_Init+0x304>)
 8003b14:	689b      	ldr	r3, [r3, #8]
 8003b16:	61bb      	str	r3, [r7, #24]
        temp &= ~((uint32_t)iocurrent);
 8003b18:	693b      	ldr	r3, [r7, #16]
 8003b1a:	43db      	mvns	r3, r3
 8003b1c:	69ba      	ldr	r2, [r7, #24]
 8003b1e:	4013      	ands	r3, r2
 8003b20:	61bb      	str	r3, [r7, #24]
        if((GPIO_Init->Mode & TRIGGER_RISING) != 0x00U)
 8003b22:	683b      	ldr	r3, [r7, #0]
 8003b24:	685b      	ldr	r3, [r3, #4]
 8003b26:	f403 1380 	and.w	r3, r3, #1048576	; 0x100000
 8003b2a:	2b00      	cmp	r3, #0
 8003b2c:	d003      	beq.n	8003b36 <HAL_GPIO_Init+0x246>
        {
          temp |= iocurrent;
 8003b2e:	69ba      	ldr	r2, [r7, #24]
 8003b30:	693b      	ldr	r3, [r7, #16]
 8003b32:	4313      	orrs	r3, r2
 8003b34:	61bb      	str	r3, [r7, #24]
        }
        EXTI->RTSR = temp;
 8003b36:	4a2f      	ldr	r2, [pc, #188]	; (8003bf4 <HAL_GPIO_Init+0x304>)
 8003b38:	69bb      	ldr	r3, [r7, #24]
 8003b3a:	6093      	str	r3, [r2, #8]

        temp = EXTI->FTSR;
 8003b3c:	4b2d      	ldr	r3, [pc, #180]	; (8003bf4 <HAL_GPIO_Init+0x304>)
 8003b3e:	68db      	ldr	r3, [r3, #12]
 8003b40:	61bb      	str	r3, [r7, #24]
        temp &= ~((uint32_t)iocurrent);
 8003b42:	693b      	ldr	r3, [r7, #16]
 8003b44:	43db      	mvns	r3, r3
 8003b46:	69ba      	ldr	r2, [r7, #24]
 8003b48:	4013      	ands	r3, r2
 8003b4a:	61bb      	str	r3, [r7, #24]
        if((GPIO_Init->Mode & TRIGGER_FALLING) != 0x00U)
 8003b4c:	683b      	ldr	r3, [r7, #0]
 8003b4e:	685b      	ldr	r3, [r3, #4]
 8003b50:	f403 1300 	and.w	r3, r3, #2097152	; 0x200000
 8003b54:	2b00      	cmp	r3, #0
 8003b56:	d003      	beq.n	8003b60 <HAL_GPIO_Init+0x270>
        {
          temp |= iocurrent;
 8003b58:	69ba      	ldr	r2, [r7, #24]
 8003b5a:	693b      	ldr	r3, [r7, #16]
 8003b5c:	4313      	orrs	r3, r2
 8003b5e:	61bb      	str	r3, [r7, #24]
        }
        EXTI->FTSR = temp;
 8003b60:	4a24      	ldr	r2, [pc, #144]	; (8003bf4 <HAL_GPIO_Init+0x304>)
 8003b62:	69bb      	ldr	r3, [r7, #24]
 8003b64:	60d3      	str	r3, [r2, #12]

        temp = EXTI->EMR;
 8003b66:	4b23      	ldr	r3, [pc, #140]	; (8003bf4 <HAL_GPIO_Init+0x304>)
 8003b68:	685b      	ldr	r3, [r3, #4]
 8003b6a:	61bb      	str	r3, [r7, #24]
        temp &= ~((uint32_t)iocurrent);
 8003b6c:	693b      	ldr	r3, [r7, #16]
 8003b6e:	43db      	mvns	r3, r3
 8003b70:	69ba      	ldr	r2, [r7, #24]
 8003b72:	4013      	ands	r3, r2
 8003b74:	61bb      	str	r3, [r7, #24]
        if((GPIO_Init->Mode & EXTI_EVT) != 0x00U)
 8003b76:	683b      	ldr	r3, [r7, #0]
 8003b78:	685b      	ldr	r3, [r3, #4]
 8003b7a:	f403 3300 	and.w	r3, r3, #131072	; 0x20000
 8003b7e:	2b00      	cmp	r3, #0
 8003b80:	d003      	beq.n	8003b8a <HAL_GPIO_Init+0x29a>
        {
          temp |= iocurrent;
 8003b82:	69ba      	ldr	r2, [r7, #24]
 8003b84:	693b      	ldr	r3, [r7, #16]
 8003b86:	4313      	orrs	r3, r2
 8003b88:	61bb      	str	r3, [r7, #24]
        }
        EXTI->EMR = temp;
 8003b8a:	4a1a      	ldr	r2, [pc, #104]	; (8003bf4 <HAL_GPIO_Init+0x304>)
 8003b8c:	69bb      	ldr	r3, [r7, #24]
 8003b8e:	6053      	str	r3, [r2, #4]

        /* Clear EXTI line configuration */
        temp = EXTI->IMR;
 8003b90:	4b18      	ldr	r3, [pc, #96]	; (8003bf4 <HAL_GPIO_Init+0x304>)
 8003b92:	681b      	ldr	r3, [r3, #0]
 8003b94:	61bb      	str	r3, [r7, #24]
        temp &= ~((uint32_t)iocurrent);
 8003b96:	693b      	ldr	r3, [r7, #16]
 8003b98:	43db      	mvns	r3, r3
 8003b9a:	69ba      	ldr	r2, [r7, #24]
 8003b9c:	4013      	ands	r3, r2
 8003b9e:	61bb      	str	r3, [r7, #24]
        if((GPIO_Init->Mode & EXTI_IT) != 0x00U)
 8003ba0:	683b      	ldr	r3, [r7, #0]
 8003ba2:	685b      	ldr	r3, [r3, #4]
 8003ba4:	f403 3380 	and.w	r3, r3, #65536	; 0x10000
 8003ba8:	2b00      	cmp	r3, #0
 8003baa:	d003      	beq.n	8003bb4 <HAL_GPIO_Init+0x2c4>
        {
          temp |= iocurrent;
 8003bac:	69ba      	ldr	r2, [r7, #24]
 8003bae:	693b      	ldr	r3, [r7, #16]
 8003bb0:	4313      	orrs	r3, r2
 8003bb2:	61bb      	str	r3, [r7, #24]
        }
        EXTI->IMR = temp;
 8003bb4:	4a0f      	ldr	r2, [pc, #60]	; (8003bf4 <HAL_GPIO_Init+0x304>)
 8003bb6:	69bb      	ldr	r3, [r7, #24]
 8003bb8:	6013      	str	r3, [r2, #0]
  for(position = 0U; position < GPIO_NUMBER; position++)
 8003bba:	69fb      	ldr	r3, [r7, #28]
 8003bbc:	3301      	adds	r3, #1
 8003bbe:	61fb      	str	r3, [r7, #28]
 8003bc0:	69fb      	ldr	r3, [r7, #28]
 8003bc2:	2b0f      	cmp	r3, #15
 8003bc4:	f67f aea2 	bls.w	800390c <HAL_GPIO_Init+0x1c>
      }
    }
  }
}
 8003bc8:	bf00      	nop
 8003bca:	bf00      	nop
 8003bcc:	3724      	adds	r7, #36	; 0x24
 8003bce:	46bd      	mov	sp, r7
 8003bd0:	f85d 7b04 	ldr.w	r7, [sp], #4
 8003bd4:	4770      	bx	lr
 8003bd6:	bf00      	nop
 8003bd8:	40023800 	.word	0x40023800
 8003bdc:	40013800 	.word	0x40013800
 8003be0:	40020000 	.word	0x40020000
 8003be4:	40020400 	.word	0x40020400
 8003be8:	40020800 	.word	0x40020800
 8003bec:	40020c00 	.word	0x40020c00
 8003bf0:	40021000 	.word	0x40021000
 8003bf4:	40013c00 	.word	0x40013c00

08003bf8 <HAL_GPIO_WritePin>:
  *            @arg GPIO_PIN_RESET: to clear the port pin
  *            @arg GPIO_PIN_SET: to set the port pin
  * @retval None
  */
void HAL_GPIO_WritePin(GPIO_TypeDef* GPIOx, uint16_t GPIO_Pin, GPIO_PinState PinState)
{
 8003bf8:	b480      	push	{r7}
 8003bfa:	b083      	sub	sp, #12
 8003bfc:	af00      	add	r7, sp, #0
 8003bfe:	6078      	str	r0, [r7, #4]
 8003c00:	460b      	mov	r3, r1
 8003c02:	807b      	strh	r3, [r7, #2]
 8003c04:	4613      	mov	r3, r2
 8003c06:	707b      	strb	r3, [r7, #1]
  /* Check the parameters */
  assert_param(IS_GPIO_PIN(GPIO_Pin));
  assert_param(IS_GPIO_PIN_ACTION(PinState));

  if(PinState != GPIO_PIN_RESET)
 8003c08:	787b      	ldrb	r3, [r7, #1]
 8003c0a:	2b00      	cmp	r3, #0
 8003c0c:	d003      	beq.n	8003c16 <HAL_GPIO_WritePin+0x1e>
  {
    GPIOx->BSRR = GPIO_Pin;
 8003c0e:	887a      	ldrh	r2, [r7, #2]
 8003c10:	687b      	ldr	r3, [r7, #4]
 8003c12:	619a      	str	r2, [r3, #24]
  }
  else
  {
    GPIOx->BSRR = (uint32_t)GPIO_Pin << 16U;
  }
}
 8003c14:	e003      	b.n	8003c1e <HAL_GPIO_WritePin+0x26>
    GPIOx->BSRR = (uint32_t)GPIO_Pin << 16U;
 8003c16:	887b      	ldrh	r3, [r7, #2]
 8003c18:	041a      	lsls	r2, r3, #16
 8003c1a:	687b      	ldr	r3, [r7, #4]
 8003c1c:	619a      	str	r2, [r3, #24]
}
 8003c1e:	bf00      	nop
 8003c20:	370c      	adds	r7, #12
 8003c22:	46bd      	mov	sp, r7
 8003c24:	f85d 7b04 	ldr.w	r7, [sp], #4
 8003c28:	4770      	bx	lr
	...

08003c2c <HAL_I2C_Init>:
  * @param  hi2c Pointer to a I2C_HandleTypeDef structure that contains
  *                the configuration information for the specified I2C.
  * @retval HAL status
  */
HAL_StatusTypeDef HAL_I2C_Init(I2C_HandleTypeDef *hi2c)
{
 8003c2c:	b580      	push	{r7, lr}
 8003c2e:	b084      	sub	sp, #16
 8003c30:	af00      	add	r7, sp, #0
 8003c32:	6078      	str	r0, [r7, #4]
  uint32_t freqrange;
  uint32_t pclk1;

  /* Check the I2C handle allocation */
  if (hi2c == NULL)
 8003c34:	687b      	ldr	r3, [r7, #4]
 8003c36:	2b00      	cmp	r3, #0
 8003c38:	d101      	bne.n	8003c3e <HAL_I2C_Init+0x12>
  {
    return HAL_ERROR;
 8003c3a:	2301      	movs	r3, #1
 8003c3c:	e12b      	b.n	8003e96 <HAL_I2C_Init+0x26a>
  assert_param(IS_I2C_DUAL_ADDRESS(hi2c->Init.DualAddressMode));
  assert_param(IS_I2C_OWN_ADDRESS2(hi2c->Init.OwnAddress2));
  assert_param(IS_I2C_GENERAL_CALL(hi2c->Init.GeneralCallMode));
  assert_param(IS_I2C_NO_STRETCH(hi2c->Init.NoStretchMode));

  if (hi2c->State == HAL_I2C_STATE_RESET)
 8003c3e:	687b      	ldr	r3, [r7, #4]
 8003c40:	f893 303d 	ldrb.w	r3, [r3, #61]	; 0x3d
 8003c44:	b2db      	uxtb	r3, r3
 8003c46:	2b00      	cmp	r3, #0
 8003c48:	d106      	bne.n	8003c58 <HAL_I2C_Init+0x2c>
  {
    /* Allocate lock resource and initialize it */
    hi2c->Lock = HAL_UNLOCKED;
 8003c4a:	687b      	ldr	r3, [r7, #4]
 8003c4c:	2200      	movs	r2, #0
 8003c4e:	f883 203c 	strb.w	r2, [r3, #60]	; 0x3c

    /* Init the low level hardware : GPIO, CLOCK, NVIC */
    hi2c->MspInitCallback(hi2c);
#else
    /* Init the low level hardware : GPIO, CLOCK, NVIC */
    HAL_I2C_MspInit(hi2c);
 8003c52:	6878      	ldr	r0, [r7, #4]
 8003c54:	f7ff f944 	bl	8002ee0 <HAL_I2C_MspInit>
#endif /* USE_HAL_I2C_REGISTER_CALLBACKS */
  }

  hi2c->State = HAL_I2C_STATE_BUSY;
 8003c58:	687b      	ldr	r3, [r7, #4]
 8003c5a:	2224      	movs	r2, #36	; 0x24
 8003c5c:	f883 203d 	strb.w	r2, [r3, #61]	; 0x3d

  /* Disable the selected I2C peripheral */
  __HAL_I2C_DISABLE(hi2c);
 8003c60:	687b      	ldr	r3, [r7, #4]
 8003c62:	681b      	ldr	r3, [r3, #0]
 8003c64:	681a      	ldr	r2, [r3, #0]
 8003c66:	687b      	ldr	r3, [r7, #4]
 8003c68:	681b      	ldr	r3, [r3, #0]
 8003c6a:	f022 0201 	bic.w	r2, r2, #1
 8003c6e:	601a      	str	r2, [r3, #0]

  /*Reset I2C*/
  hi2c->Instance->CR1 |= I2C_CR1_SWRST;
 8003c70:	687b      	ldr	r3, [r7, #4]
 8003c72:	681b      	ldr	r3, [r3, #0]
 8003c74:	681a      	ldr	r2, [r3, #0]
 8003c76:	687b      	ldr	r3, [r7, #4]
 8003c78:	681b      	ldr	r3, [r3, #0]
 8003c7a:	f442 4200 	orr.w	r2, r2, #32768	; 0x8000
 8003c7e:	601a      	str	r2, [r3, #0]
  hi2c->Instance->CR1 &= ~I2C_CR1_SWRST;
 8003c80:	687b      	ldr	r3, [r7, #4]
 8003c82:	681b      	ldr	r3, [r3, #0]
 8003c84:	681a      	ldr	r2, [r3, #0]
 8003c86:	687b      	ldr	r3, [r7, #4]
 8003c88:	681b      	ldr	r3, [r3, #0]
 8003c8a:	f422 4200 	bic.w	r2, r2, #32768	; 0x8000
 8003c8e:	601a      	str	r2, [r3, #0]

  /* Get PCLK1 frequency */
  pclk1 = HAL_RCC_GetPCLK1Freq();
 8003c90:	f001 fa20 	bl	80050d4 <HAL_RCC_GetPCLK1Freq>
 8003c94:	60f8      	str	r0, [r7, #12]

  /* Check the minimum allowed PCLK1 frequency */
  if (I2C_MIN_PCLK_FREQ(pclk1, hi2c->Init.ClockSpeed) == 1U)
 8003c96:	687b      	ldr	r3, [r7, #4]
 8003c98:	685b      	ldr	r3, [r3, #4]
 8003c9a:	4a81      	ldr	r2, [pc, #516]	; (8003ea0 <HAL_I2C_Init+0x274>)
 8003c9c:	4293      	cmp	r3, r2
 8003c9e:	d807      	bhi.n	8003cb0 <HAL_I2C_Init+0x84>
 8003ca0:	68fb      	ldr	r3, [r7, #12]
 8003ca2:	4a80      	ldr	r2, [pc, #512]	; (8003ea4 <HAL_I2C_Init+0x278>)
 8003ca4:	4293      	cmp	r3, r2
 8003ca6:	bf94      	ite	ls
 8003ca8:	2301      	movls	r3, #1
 8003caa:	2300      	movhi	r3, #0
 8003cac:	b2db      	uxtb	r3, r3
 8003cae:	e006      	b.n	8003cbe <HAL_I2C_Init+0x92>
 8003cb0:	68fb      	ldr	r3, [r7, #12]
 8003cb2:	4a7d      	ldr	r2, [pc, #500]	; (8003ea8 <HAL_I2C_Init+0x27c>)
 8003cb4:	4293      	cmp	r3, r2
 8003cb6:	bf94      	ite	ls
 8003cb8:	2301      	movls	r3, #1
 8003cba:	2300      	movhi	r3, #0
 8003cbc:	b2db      	uxtb	r3, r3
 8003cbe:	2b00      	cmp	r3, #0
 8003cc0:	d001      	beq.n	8003cc6 <HAL_I2C_Init+0x9a>
  {
    return HAL_ERROR;
 8003cc2:	2301      	movs	r3, #1
 8003cc4:	e0e7      	b.n	8003e96 <HAL_I2C_Init+0x26a>
  }

  /* Calculate frequency range */
  freqrange = I2C_FREQRANGE(pclk1);
 8003cc6:	68fb      	ldr	r3, [r7, #12]
 8003cc8:	4a78      	ldr	r2, [pc, #480]	; (8003eac <HAL_I2C_Init+0x280>)
 8003cca:	fba2 2303 	umull	r2, r3, r2, r3
 8003cce:	0c9b      	lsrs	r3, r3, #18
 8003cd0:	60bb      	str	r3, [r7, #8]

  /*---------------------------- I2Cx CR2 Configuration ----------------------*/
  /* Configure I2Cx: Frequency range */
  MODIFY_REG(hi2c->Instance->CR2, I2C_CR2_FREQ, freqrange);
 8003cd2:	687b      	ldr	r3, [r7, #4]
 8003cd4:	681b      	ldr	r3, [r3, #0]
 8003cd6:	685b      	ldr	r3, [r3, #4]
 8003cd8:	f023 013f 	bic.w	r1, r3, #63	; 0x3f
 8003cdc:	687b      	ldr	r3, [r7, #4]
 8003cde:	681b      	ldr	r3, [r3, #0]
 8003ce0:	68ba      	ldr	r2, [r7, #8]
 8003ce2:	430a      	orrs	r2, r1
 8003ce4:	605a      	str	r2, [r3, #4]

  /*---------------------------- I2Cx TRISE Configuration --------------------*/
  /* Configure I2Cx: Rise Time */
  MODIFY_REG(hi2c->Instance->TRISE, I2C_TRISE_TRISE, I2C_RISE_TIME(freqrange, hi2c->Init.ClockSpeed));
 8003ce6:	687b      	ldr	r3, [r7, #4]
 8003ce8:	681b      	ldr	r3, [r3, #0]
 8003cea:	6a1b      	ldr	r3, [r3, #32]
 8003cec:	f023 013f 	bic.w	r1, r3, #63	; 0x3f
 8003cf0:	687b      	ldr	r3, [r7, #4]
 8003cf2:	685b      	ldr	r3, [r3, #4]
 8003cf4:	4a6a      	ldr	r2, [pc, #424]	; (8003ea0 <HAL_I2C_Init+0x274>)
 8003cf6:	4293      	cmp	r3, r2
 8003cf8:	d802      	bhi.n	8003d00 <HAL_I2C_Init+0xd4>
 8003cfa:	68bb      	ldr	r3, [r7, #8]
 8003cfc:	3301      	adds	r3, #1
 8003cfe:	e009      	b.n	8003d14 <HAL_I2C_Init+0xe8>
 8003d00:	68bb      	ldr	r3, [r7, #8]
 8003d02:	f44f 7296 	mov.w	r2, #300	; 0x12c
 8003d06:	fb02 f303 	mul.w	r3, r2, r3
 8003d0a:	4a69      	ldr	r2, [pc, #420]	; (8003eb0 <HAL_I2C_Init+0x284>)
 8003d0c:	fba2 2303 	umull	r2, r3, r2, r3
 8003d10:	099b      	lsrs	r3, r3, #6
 8003d12:	3301      	adds	r3, #1
 8003d14:	687a      	ldr	r2, [r7, #4]
 8003d16:	6812      	ldr	r2, [r2, #0]
 8003d18:	430b      	orrs	r3, r1
 8003d1a:	6213      	str	r3, [r2, #32]

  /*---------------------------- I2Cx CCR Configuration ----------------------*/
  /* Configure I2Cx: Speed */
  MODIFY_REG(hi2c->Instance->CCR, (I2C_CCR_FS | I2C_CCR_DUTY | I2C_CCR_CCR), I2C_SPEED(pclk1, hi2c->Init.ClockSpeed, hi2c->Init.DutyCycle));
 8003d1c:	687b      	ldr	r3, [r7, #4]
 8003d1e:	681b      	ldr	r3, [r3, #0]
 8003d20:	69db      	ldr	r3, [r3, #28]
 8003d22:	f423 424f 	bic.w	r2, r3, #52992	; 0xcf00
 8003d26:	f022 02ff 	bic.w	r2, r2, #255	; 0xff
 8003d2a:	687b      	ldr	r3, [r7, #4]
 8003d2c:	685b      	ldr	r3, [r3, #4]
 8003d2e:	495c      	ldr	r1, [pc, #368]	; (8003ea0 <HAL_I2C_Init+0x274>)
 8003d30:	428b      	cmp	r3, r1
 8003d32:	d819      	bhi.n	8003d68 <HAL_I2C_Init+0x13c>
 8003d34:	68fb      	ldr	r3, [r7, #12]
 8003d36:	1e59      	subs	r1, r3, #1
 8003d38:	687b      	ldr	r3, [r7, #4]
 8003d3a:	685b      	ldr	r3, [r3, #4]
 8003d3c:	005b      	lsls	r3, r3, #1
 8003d3e:	fbb1 f3f3 	udiv	r3, r1, r3
 8003d42:	1c59      	adds	r1, r3, #1
 8003d44:	f640 73fc 	movw	r3, #4092	; 0xffc
 8003d48:	400b      	ands	r3, r1
 8003d4a:	2b00      	cmp	r3, #0
 8003d4c:	d00a      	beq.n	8003d64 <HAL_I2C_Init+0x138>
 8003d4e:	68fb      	ldr	r3, [r7, #12]
 8003d50:	1e59      	subs	r1, r3, #1
 8003d52:	687b      	ldr	r3, [r7, #4]
 8003d54:	685b      	ldr	r3, [r3, #4]
 8003d56:	005b      	lsls	r3, r3, #1
 8003d58:	fbb1 f3f3 	udiv	r3, r1, r3
 8003d5c:	3301      	adds	r3, #1
 8003d5e:	f3c3 030b 	ubfx	r3, r3, #0, #12
 8003d62:	e051      	b.n	8003e08 <HAL_I2C_Init+0x1dc>
 8003d64:	2304      	movs	r3, #4
 8003d66:	e04f      	b.n	8003e08 <HAL_I2C_Init+0x1dc>
 8003d68:	687b      	ldr	r3, [r7, #4]
 8003d6a:	689b      	ldr	r3, [r3, #8]
 8003d6c:	2b00      	cmp	r3, #0
 8003d6e:	d111      	bne.n	8003d94 <HAL_I2C_Init+0x168>
 8003d70:	68fb      	ldr	r3, [r7, #12]
 8003d72:	1e58      	subs	r0, r3, #1
 8003d74:	687b      	ldr	r3, [r7, #4]
 8003d76:	6859      	ldr	r1, [r3, #4]
 8003d78:	460b      	mov	r3, r1
 8003d7a:	005b      	lsls	r3, r3, #1
 8003d7c:	440b      	add	r3, r1
 8003d7e:	fbb0 f3f3 	udiv	r3, r0, r3
 8003d82:	3301      	adds	r3, #1
 8003d84:	f3c3 030b 	ubfx	r3, r3, #0, #12
 8003d88:	2b00      	cmp	r3, #0
 8003d8a:	bf0c      	ite	eq
 8003d8c:	2301      	moveq	r3, #1
 8003d8e:	2300      	movne	r3, #0
 8003d90:	b2db      	uxtb	r3, r3
 8003d92:	e012      	b.n	8003dba <HAL_I2C_Init+0x18e>
 8003d94:	68fb      	ldr	r3, [r7, #12]
 8003d96:	1e58      	subs	r0, r3, #1
 8003d98:	687b      	ldr	r3, [r7, #4]
 8003d9a:	6859      	ldr	r1, [r3, #4]
 8003d9c:	460b      	mov	r3, r1
 8003d9e:	009b      	lsls	r3, r3, #2
 8003da0:	440b      	add	r3, r1
 8003da2:	0099      	lsls	r1, r3, #2
 8003da4:	440b      	add	r3, r1
 8003da6:	fbb0 f3f3 	udiv	r3, r0, r3
 8003daa:	3301      	adds	r3, #1
 8003dac:	f3c3 030b 	ubfx	r3, r3, #0, #12
 8003db0:	2b00      	cmp	r3, #0
 8003db2:	bf0c      	ite	eq
 8003db4:	2301      	moveq	r3, #1
 8003db6:	2300      	movne	r3, #0
 8003db8:	b2db      	uxtb	r3, r3
 8003dba:	2b00      	cmp	r3, #0
 8003dbc:	d001      	beq.n	8003dc2 <HAL_I2C_Init+0x196>
 8003dbe:	2301      	movs	r3, #1
 8003dc0:	e022      	b.n	8003e08 <HAL_I2C_Init+0x1dc>
 8003dc2:	687b      	ldr	r3, [r7, #4]
 8003dc4:	689b      	ldr	r3, [r3, #8]
 8003dc6:	2b00      	cmp	r3, #0
 8003dc8:	d10e      	bne.n	8003de8 <HAL_I2C_Init+0x1bc>
 8003dca:	68fb      	ldr	r3, [r7, #12]
 8003dcc:	1e58      	subs	r0, r3, #1
 8003dce:	687b      	ldr	r3, [r7, #4]
 8003dd0:	6859      	ldr	r1, [r3, #4]
 8003dd2:	460b      	mov	r3, r1
 8003dd4:	005b      	lsls	r3, r3, #1
 8003dd6:	440b      	add	r3, r1
 8003dd8:	fbb0 f3f3 	udiv	r3, r0, r3
 8003ddc:	3301      	adds	r3, #1
 8003dde:	f3c3 030b 	ubfx	r3, r3, #0, #12
 8003de2:	f443 4300 	orr.w	r3, r3, #32768	; 0x8000
 8003de6:	e00f      	b.n	8003e08 <HAL_I2C_Init+0x1dc>
 8003de8:	68fb      	ldr	r3, [r7, #12]
 8003dea:	1e58      	subs	r0, r3, #1
 8003dec:	687b      	ldr	r3, [r7, #4]
 8003dee:	6859      	ldr	r1, [r3, #4]
 8003df0:	460b      	mov	r3, r1
 8003df2:	009b      	lsls	r3, r3, #2
 8003df4:	440b      	add	r3, r1
 8003df6:	0099      	lsls	r1, r3, #2
 8003df8:	440b      	add	r3, r1
 8003dfa:	fbb0 f3f3 	udiv	r3, r0, r3
 8003dfe:	3301      	adds	r3, #1
 8003e00:	f3c3 030b 	ubfx	r3, r3, #0, #12
 8003e04:	f443 4340 	orr.w	r3, r3, #49152	; 0xc000
 8003e08:	6879      	ldr	r1, [r7, #4]
 8003e0a:	6809      	ldr	r1, [r1, #0]
 8003e0c:	4313      	orrs	r3, r2
 8003e0e:	61cb      	str	r3, [r1, #28]

  /*---------------------------- I2Cx CR1 Configuration ----------------------*/
  /* Configure I2Cx: Generalcall and NoStretch mode */
  MODIFY_REG(hi2c->Instance->CR1, (I2C_CR1_ENGC | I2C_CR1_NOSTRETCH), (hi2c->Init.GeneralCallMode | hi2c->Init.NoStretchMode));
 8003e10:	687b      	ldr	r3, [r7, #4]
 8003e12:	681b      	ldr	r3, [r3, #0]
 8003e14:	681b      	ldr	r3, [r3, #0]
 8003e16:	f023 01c0 	bic.w	r1, r3, #192	; 0xc0
 8003e1a:	687b      	ldr	r3, [r7, #4]
 8003e1c:	69da      	ldr	r2, [r3, #28]
 8003e1e:	687b      	ldr	r3, [r7, #4]
 8003e20:	6a1b      	ldr	r3, [r3, #32]
 8003e22:	431a      	orrs	r2, r3
 8003e24:	687b      	ldr	r3, [r7, #4]
 8003e26:	681b      	ldr	r3, [r3, #0]
 8003e28:	430a      	orrs	r2, r1
 8003e2a:	601a      	str	r2, [r3, #0]

  /*---------------------------- I2Cx OAR1 Configuration ---------------------*/
  /* Configure I2Cx: Own Address1 and addressing mode */
  MODIFY_REG(hi2c->Instance->OAR1, (I2C_OAR1_ADDMODE | I2C_OAR1_ADD8_9 | I2C_OAR1_ADD1_7 | I2C_OAR1_ADD0), (hi2c->Init.AddressingMode | hi2c->Init.OwnAddress1));
 8003e2c:	687b      	ldr	r3, [r7, #4]
 8003e2e:	681b      	ldr	r3, [r3, #0]
 8003e30:	689b      	ldr	r3, [r3, #8]
 8003e32:	f423 4303 	bic.w	r3, r3, #33536	; 0x8300
 8003e36:	f023 03ff 	bic.w	r3, r3, #255	; 0xff
 8003e3a:	687a      	ldr	r2, [r7, #4]
 8003e3c:	6911      	ldr	r1, [r2, #16]
 8003e3e:	687a      	ldr	r2, [r7, #4]
 8003e40:	68d2      	ldr	r2, [r2, #12]
 8003e42:	4311      	orrs	r1, r2
 8003e44:	687a      	ldr	r2, [r7, #4]
 8003e46:	6812      	ldr	r2, [r2, #0]
 8003e48:	430b      	orrs	r3, r1
 8003e4a:	6093      	str	r3, [r2, #8]

  /*---------------------------- I2Cx OAR2 Configuration ---------------------*/
  /* Configure I2Cx: Dual mode and Own Address2 */
  MODIFY_REG(hi2c->Instance->OAR2, (I2C_OAR2_ENDUAL | I2C_OAR2_ADD2), (hi2c->Init.DualAddressMode | hi2c->Init.OwnAddress2));
 8003e4c:	687b      	ldr	r3, [r7, #4]
 8003e4e:	681b      	ldr	r3, [r3, #0]
 8003e50:	68db      	ldr	r3, [r3, #12]
 8003e52:	f023 01ff 	bic.w	r1, r3, #255	; 0xff
 8003e56:	687b      	ldr	r3, [r7, #4]
 8003e58:	695a      	ldr	r2, [r3, #20]
 8003e5a:	687b      	ldr	r3, [r7, #4]
 8003e5c:	699b      	ldr	r3, [r3, #24]
 8003e5e:	431a      	orrs	r2, r3
 8003e60:	687b      	ldr	r3, [r7, #4]
 8003e62:	681b      	ldr	r3, [r3, #0]
 8003e64:	430a      	orrs	r2, r1
 8003e66:	60da      	str	r2, [r3, #12]

  /* Enable the selected I2C peripheral */
  __HAL_I2C_ENABLE(hi2c);
 8003e68:	687b      	ldr	r3, [r7, #4]
 8003e6a:	681b      	ldr	r3, [r3, #0]
 8003e6c:	681a      	ldr	r2, [r3, #0]
 8003e6e:	687b      	ldr	r3, [r7, #4]
 8003e70:	681b      	ldr	r3, [r3, #0]
 8003e72:	f042 0201 	orr.w	r2, r2, #1
 8003e76:	601a      	str	r2, [r3, #0]

  hi2c->ErrorCode = HAL_I2C_ERROR_NONE;
 8003e78:	687b      	ldr	r3, [r7, #4]
 8003e7a:	2200      	movs	r2, #0
 8003e7c:	641a      	str	r2, [r3, #64]	; 0x40
  hi2c->State = HAL_I2C_STATE_READY;
 8003e7e:	687b      	ldr	r3, [r7, #4]
 8003e80:	2220      	movs	r2, #32
 8003e82:	f883 203d 	strb.w	r2, [r3, #61]	; 0x3d
  hi2c->PreviousState = I2C_STATE_NONE;
 8003e86:	687b      	ldr	r3, [r7, #4]
 8003e88:	2200      	movs	r2, #0
 8003e8a:	631a      	str	r2, [r3, #48]	; 0x30
  hi2c->Mode = HAL_I2C_MODE_NONE;
 8003e8c:	687b      	ldr	r3, [r7, #4]
 8003e8e:	2200      	movs	r2, #0
 8003e90:	f883 203e 	strb.w	r2, [r3, #62]	; 0x3e

  return HAL_OK;
 8003e94:	2300      	movs	r3, #0
}
 8003e96:	4618      	mov	r0, r3
 8003e98:	3710      	adds	r7, #16
 8003e9a:	46bd      	mov	sp, r7
 8003e9c:	bd80      	pop	{r7, pc}
 8003e9e:	bf00      	nop
 8003ea0:	000186a0 	.word	0x000186a0
 8003ea4:	001e847f 	.word	0x001e847f
 8003ea8:	003d08ff 	.word	0x003d08ff
 8003eac:	431bde83 	.word	0x431bde83
 8003eb0:	10624dd3 	.word	0x10624dd3

08003eb4 <HAL_I2S_Init>:
  * @param  hi2s pointer to a I2S_HandleTypeDef structure that contains
  *         the configuration information for I2S module
  * @retval HAL status
  */
HAL_StatusTypeDef HAL_I2S_Init(I2S_HandleTypeDef *hi2s)
{
 8003eb4:	b580      	push	{r7, lr}
 8003eb6:	b088      	sub	sp, #32
 8003eb8:	af00      	add	r7, sp, #0
 8003eba:	6078      	str	r0, [r7, #4]
#if defined (SPI_I2S_FULLDUPLEX_SUPPORT)
  uint16_t tmpreg;
#endif

  /* Check the I2S handle allocation */
  if (hi2s == NULL)
 8003ebc:	687b      	ldr	r3, [r7, #4]
 8003ebe:	2b00      	cmp	r3, #0
 8003ec0:	d101      	bne.n	8003ec6 <HAL_I2S_Init+0x12>
  {
    return HAL_ERROR;
 8003ec2:	2301      	movs	r3, #1
 8003ec4:	e128      	b.n	8004118 <HAL_I2S_Init+0x264>
  assert_param(IS_I2S_MCLK_OUTPUT(hi2s->Init.MCLKOutput));
  assert_param(IS_I2S_AUDIO_FREQ(hi2s->Init.AudioFreq));
  assert_param(IS_I2S_CPOL(hi2s->Init.CPOL));
  assert_param(IS_I2S_CLOCKSOURCE(hi2s->Init.ClockSource));

  if (hi2s->State == HAL_I2S_STATE_RESET)
 8003ec6:	687b      	ldr	r3, [r7, #4]
 8003ec8:	f893 3041 	ldrb.w	r3, [r3, #65]	; 0x41
 8003ecc:	b2db      	uxtb	r3, r3
 8003ece:	2b00      	cmp	r3, #0
 8003ed0:	d109      	bne.n	8003ee6 <HAL_I2S_Init+0x32>
  {
    /* Allocate lock resource and initialize it */
    hi2s->Lock = HAL_UNLOCKED;
 8003ed2:	687b      	ldr	r3, [r7, #4]
 8003ed4:	2200      	movs	r2, #0
 8003ed6:	f883 2040 	strb.w	r2, [r3, #64]	; 0x40

    /* Initialize Default I2S IrqHandler ISR */
    hi2s->IrqHandlerISR = I2S_IRQHandler;
 8003eda:	687b      	ldr	r3, [r7, #4]
 8003edc:	4a90      	ldr	r2, [pc, #576]	; (8004120 <HAL_I2S_Init+0x26c>)
 8003ede:	635a      	str	r2, [r3, #52]	; 0x34

    /* Init the low level hardware : GPIO, CLOCK, NVIC... */
    hi2s->MspInitCallback(hi2s);
#else
    /* Init the low level hardware : GPIO, CLOCK, CORTEX...etc */
    HAL_I2S_MspInit(hi2s);
 8003ee0:	6878      	ldr	r0, [r7, #4]
 8003ee2:	f7ff f89d 	bl	8003020 <HAL_I2S_MspInit>
#endif /* USE_HAL_I2S_REGISTER_CALLBACKS */
  }

  hi2s->State = HAL_I2S_STATE_BUSY;
 8003ee6:	687b      	ldr	r3, [r7, #4]
 8003ee8:	2202      	movs	r2, #2
 8003eea:	f883 2041 	strb.w	r2, [r3, #65]	; 0x41

  /*----------------------- SPIx I2SCFGR & I2SPR Configuration ----------------*/
  /* Clear I2SMOD, I2SE, I2SCFG, PCMSYNC, I2SSTD, CKPOL, DATLEN and CHLEN bits */
  CLEAR_BIT(hi2s->Instance->I2SCFGR, (SPI_I2SCFGR_CHLEN | SPI_I2SCFGR_DATLEN | SPI_I2SCFGR_CKPOL | \
 8003eee:	687b      	ldr	r3, [r7, #4]
 8003ef0:	681b      	ldr	r3, [r3, #0]
 8003ef2:	69db      	ldr	r3, [r3, #28]
 8003ef4:	687a      	ldr	r2, [r7, #4]
 8003ef6:	6812      	ldr	r2, [r2, #0]
 8003ef8:	f423 637b 	bic.w	r3, r3, #4016	; 0xfb0
 8003efc:	f023 030f 	bic.w	r3, r3, #15
 8003f00:	61d3      	str	r3, [r2, #28]
                                      SPI_I2SCFGR_I2SSTD | SPI_I2SCFGR_PCMSYNC | SPI_I2SCFGR_I2SCFG | \
                                      SPI_I2SCFGR_I2SE | SPI_I2SCFGR_I2SMOD));
  hi2s->Instance->I2SPR = 0x0002U;
 8003f02:	687b      	ldr	r3, [r7, #4]
 8003f04:	681b      	ldr	r3, [r3, #0]
 8003f06:	2202      	movs	r2, #2
 8003f08:	621a      	str	r2, [r3, #32]

  /*----------------------- I2SPR: I2SDIV and ODD Calculation -----------------*/
  /* If the requested audio frequency is not the default, compute the prescaler */
  if (hi2s->Init.AudioFreq != I2S_AUDIOFREQ_DEFAULT)
 8003f0a:	687b      	ldr	r3, [r7, #4]
 8003f0c:	695b      	ldr	r3, [r3, #20]
 8003f0e:	2b02      	cmp	r3, #2
 8003f10:	d060      	beq.n	8003fd4 <HAL_I2S_Init+0x120>
  {
    /* Check the frame length (For the Prescaler computing) ********************/
    if (hi2s->Init.DataFormat == I2S_DATAFORMAT_16B)
 8003f12:	687b      	ldr	r3, [r7, #4]
 8003f14:	68db      	ldr	r3, [r3, #12]
 8003f16:	2b00      	cmp	r3, #0
 8003f18:	d102      	bne.n	8003f20 <HAL_I2S_Init+0x6c>
    {
      /* Packet length is 16 bits */
      packetlength = 16U;
 8003f1a:	2310      	movs	r3, #16
 8003f1c:	617b      	str	r3, [r7, #20]
 8003f1e:	e001      	b.n	8003f24 <HAL_I2S_Init+0x70>
    }
    else
    {
      /* Packet length is 32 bits */
      packetlength = 32U;
 8003f20:	2320      	movs	r3, #32
 8003f22:	617b      	str	r3, [r7, #20]
    }

    /* I2S standard */
    if (hi2s->Init.Standard <= I2S_STANDARD_LSB)
 8003f24:	687b      	ldr	r3, [r7, #4]
 8003f26:	689b      	ldr	r3, [r3, #8]
 8003f28:	2b20      	cmp	r3, #32
 8003f2a:	d802      	bhi.n	8003f32 <HAL_I2S_Init+0x7e>
    {
      /* In I2S standard packet length is multiplied by 2 */
      packetlength = packetlength * 2U;
 8003f2c:	697b      	ldr	r3, [r7, #20]
 8003f2e:	005b      	lsls	r3, r3, #1
 8003f30:	617b      	str	r3, [r7, #20]
    else
    {
      i2sclk = HAL_RCCEx_GetPeriphCLKFreq(RCC_PERIPHCLK_I2S_APB2);
    }
#else
    i2sclk = HAL_RCCEx_GetPeriphCLKFreq(RCC_PERIPHCLK_I2S);
 8003f32:	2001      	movs	r0, #1
 8003f34:	f001 f9e6 	bl	8005304 <HAL_RCCEx_GetPeriphCLKFreq>
 8003f38:	60f8      	str	r0, [r7, #12]
#endif /* I2S_APB1_APB2_FEATURE */

    /* Compute the Real divider depending on the MCLK output state, with a floating point */
    if (hi2s->Init.MCLKOutput == I2S_MCLKOUTPUT_ENABLE)
 8003f3a:	687b      	ldr	r3, [r7, #4]
 8003f3c:	691b      	ldr	r3, [r3, #16]
 8003f3e:	f5b3 7f00 	cmp.w	r3, #512	; 0x200
 8003f42:	d125      	bne.n	8003f90 <HAL_I2S_Init+0xdc>
    {
      /* MCLK output is enabled */
      if (hi2s->Init.DataFormat != I2S_DATAFORMAT_16B)
 8003f44:	687b      	ldr	r3, [r7, #4]
 8003f46:	68db      	ldr	r3, [r3, #12]
 8003f48:	2b00      	cmp	r3, #0
 8003f4a:	d010      	beq.n	8003f6e <HAL_I2S_Init+0xba>
      {
        tmp = (uint32_t)(((((i2sclk / (packetlength * 4U)) * 10U) / hi2s->Init.AudioFreq)) + 5U);
 8003f4c:	697b      	ldr	r3, [r7, #20]
 8003f4e:	009b      	lsls	r3, r3, #2
 8003f50:	68fa      	ldr	r2, [r7, #12]
 8003f52:	fbb2 f2f3 	udiv	r2, r2, r3
 8003f56:	4613      	mov	r3, r2
 8003f58:	009b      	lsls	r3, r3, #2
 8003f5a:	4413      	add	r3, r2
 8003f5c:	005b      	lsls	r3, r3, #1
 8003f5e:	461a      	mov	r2, r3
 8003f60:	687b      	ldr	r3, [r7, #4]
 8003f62:	695b      	ldr	r3, [r3, #20]
 8003f64:	fbb2 f3f3 	udiv	r3, r2, r3
 8003f68:	3305      	adds	r3, #5
 8003f6a:	613b      	str	r3, [r7, #16]
 8003f6c:	e01f      	b.n	8003fae <HAL_I2S_Init+0xfa>
      }
      else
      {
        tmp = (uint32_t)(((((i2sclk / (packetlength * 8U)) * 10U) / hi2s->Init.AudioFreq)) + 5U);
 8003f6e:	697b      	ldr	r3, [r7, #20]
 8003f70:	00db      	lsls	r3, r3, #3
 8003f72:	68fa      	ldr	r2, [r7, #12]
 8003f74:	fbb2 f2f3 	udiv	r2, r2, r3
 8003f78:	4613      	mov	r3, r2
 8003f7a:	009b      	lsls	r3, r3, #2
 8003f7c:	4413      	add	r3, r2
 8003f7e:	005b      	lsls	r3, r3, #1
 8003f80:	461a      	mov	r2, r3
 8003f82:	687b      	ldr	r3, [r7, #4]
 8003f84:	695b      	ldr	r3, [r3, #20]
 8003f86:	fbb2 f3f3 	udiv	r3, r2, r3
 8003f8a:	3305      	adds	r3, #5
 8003f8c:	613b      	str	r3, [r7, #16]
 8003f8e:	e00e      	b.n	8003fae <HAL_I2S_Init+0xfa>
      }
    }
    else
    {
      /* MCLK output is disabled */
      tmp = (uint32_t)(((((i2sclk / packetlength) * 10U) / hi2s->Init.AudioFreq)) + 5U);
 8003f90:	68fa      	ldr	r2, [r7, #12]
 8003f92:	697b      	ldr	r3, [r7, #20]
 8003f94:	fbb2 f2f3 	udiv	r2, r2, r3
 8003f98:	4613      	mov	r3, r2
 8003f9a:	009b      	lsls	r3, r3, #2
 8003f9c:	4413      	add	r3, r2
 8003f9e:	005b      	lsls	r3, r3, #1
 8003fa0:	461a      	mov	r2, r3
 8003fa2:	687b      	ldr	r3, [r7, #4]
 8003fa4:	695b      	ldr	r3, [r3, #20]
 8003fa6:	fbb2 f3f3 	udiv	r3, r2, r3
 8003faa:	3305      	adds	r3, #5
 8003fac:	613b      	str	r3, [r7, #16]
    }

    /* Remove the flatting point */
    tmp = tmp / 10U;
 8003fae:	693b      	ldr	r3, [r7, #16]
 8003fb0:	4a5c      	ldr	r2, [pc, #368]	; (8004124 <HAL_I2S_Init+0x270>)
 8003fb2:	fba2 2303 	umull	r2, r3, r2, r3
 8003fb6:	08db      	lsrs	r3, r3, #3
 8003fb8:	613b      	str	r3, [r7, #16]

    /* Check the parity of the divider */
    i2sodd = (uint32_t)(tmp & (uint32_t)1U);
 8003fba:	693b      	ldr	r3, [r7, #16]
 8003fbc:	f003 0301 	and.w	r3, r3, #1
 8003fc0:	61bb      	str	r3, [r7, #24]

    /* Compute the i2sdiv prescaler */
    i2sdiv = (uint32_t)((tmp - i2sodd) / 2U);
 8003fc2:	693a      	ldr	r2, [r7, #16]
 8003fc4:	69bb      	ldr	r3, [r7, #24]
 8003fc6:	1ad3      	subs	r3, r2, r3
 8003fc8:	085b      	lsrs	r3, r3, #1
 8003fca:	61fb      	str	r3, [r7, #28]

    /* Get the Mask for the Odd bit (SPI_I2SPR[8]) register */
    i2sodd = (uint32_t)(i2sodd << 8U);
 8003fcc:	69bb      	ldr	r3, [r7, #24]
 8003fce:	021b      	lsls	r3, r3, #8
 8003fd0:	61bb      	str	r3, [r7, #24]
 8003fd2:	e003      	b.n	8003fdc <HAL_I2S_Init+0x128>
  }
  else
  {
    /* Set the default values */
    i2sdiv = 2U;
 8003fd4:	2302      	movs	r3, #2
 8003fd6:	61fb      	str	r3, [r7, #28]
    i2sodd = 0U;
 8003fd8:	2300      	movs	r3, #0
 8003fda:	61bb      	str	r3, [r7, #24]
  }

  /* Test if the divider is 1 or 0 or greater than 0xFF */
  if ((i2sdiv < 2U) || (i2sdiv > 0xFFU))
 8003fdc:	69fb      	ldr	r3, [r7, #28]
 8003fde:	2b01      	cmp	r3, #1
 8003fe0:	d902      	bls.n	8003fe8 <HAL_I2S_Init+0x134>
 8003fe2:	69fb      	ldr	r3, [r7, #28]
 8003fe4:	2bff      	cmp	r3, #255	; 0xff
 8003fe6:	d907      	bls.n	8003ff8 <HAL_I2S_Init+0x144>
  {
    /* Set the error code and execute error callback*/
    SET_BIT(hi2s->ErrorCode, HAL_I2S_ERROR_PRESCALER);
 8003fe8:	687b      	ldr	r3, [r7, #4]
 8003fea:	6c5b      	ldr	r3, [r3, #68]	; 0x44
 8003fec:	f043 0210 	orr.w	r2, r3, #16
 8003ff0:	687b      	ldr	r3, [r7, #4]
 8003ff2:	645a      	str	r2, [r3, #68]	; 0x44
    return  HAL_ERROR;
 8003ff4:	2301      	movs	r3, #1
 8003ff6:	e08f      	b.n	8004118 <HAL_I2S_Init+0x264>
  }

  /*----------------------- SPIx I2SCFGR & I2SPR Configuration ----------------*/

  /* Write to SPIx I2SPR register the computed value */
  hi2s->Instance->I2SPR = (uint32_t)((uint32_t)i2sdiv | (uint32_t)(i2sodd | (uint32_t)hi2s->Init.MCLKOutput));
 8003ff8:	687b      	ldr	r3, [r7, #4]
 8003ffa:	691a      	ldr	r2, [r3, #16]
 8003ffc:	69bb      	ldr	r3, [r7, #24]
 8003ffe:	ea42 0103 	orr.w	r1, r2, r3
 8004002:	687b      	ldr	r3, [r7, #4]
 8004004:	681b      	ldr	r3, [r3, #0]
 8004006:	69fa      	ldr	r2, [r7, #28]
 8004008:	430a      	orrs	r2, r1
 800400a:	621a      	str	r2, [r3, #32]

  /* Clear I2SMOD, I2SE, I2SCFG, PCMSYNC, I2SSTD, CKPOL, DATLEN and CHLEN bits */
  /* And configure the I2S with the I2S_InitStruct values                      */
  MODIFY_REG(hi2s->Instance->I2SCFGR, (SPI_I2SCFGR_CHLEN | SPI_I2SCFGR_DATLEN | \
 800400c:	687b      	ldr	r3, [r7, #4]
 800400e:	681b      	ldr	r3, [r3, #0]
 8004010:	69db      	ldr	r3, [r3, #28]
 8004012:	f423 637b 	bic.w	r3, r3, #4016	; 0xfb0
 8004016:	f023 030f 	bic.w	r3, r3, #15
 800401a:	687a      	ldr	r2, [r7, #4]
 800401c:	6851      	ldr	r1, [r2, #4]
 800401e:	687a      	ldr	r2, [r7, #4]
 8004020:	6892      	ldr	r2, [r2, #8]
 8004022:	4311      	orrs	r1, r2
 8004024:	687a      	ldr	r2, [r7, #4]
 8004026:	68d2      	ldr	r2, [r2, #12]
 8004028:	4311      	orrs	r1, r2
 800402a:	687a      	ldr	r2, [r7, #4]
 800402c:	6992      	ldr	r2, [r2, #24]
 800402e:	430a      	orrs	r2, r1
 8004030:	431a      	orrs	r2, r3
 8004032:	687b      	ldr	r3, [r7, #4]
 8004034:	681b      	ldr	r3, [r3, #0]
 8004036:	f442 6200 	orr.w	r2, r2, #2048	; 0x800
 800403a:	61da      	str	r2, [r3, #28]
#if defined (SPI_I2S_FULLDUPLEX_SUPPORT)

  /* Configure the I2S extended if the full duplex mode is enabled */
  assert_param(IS_I2S_FULLDUPLEX_MODE(hi2s->Init.FullDuplexMode));

  if (hi2s->Init.FullDuplexMode == I2S_FULLDUPLEXMODE_ENABLE)
 800403c:	687b      	ldr	r3, [r7, #4]
 800403e:	6a1b      	ldr	r3, [r3, #32]
 8004040:	2b01      	cmp	r3, #1
 8004042:	d161      	bne.n	8004108 <HAL_I2S_Init+0x254>
  {
    /* Set FullDuplex I2S IrqHandler ISR if FULLDUPLEXMODE is enabled */
    hi2s->IrqHandlerISR = HAL_I2SEx_FullDuplex_IRQHandler;
 8004044:	687b      	ldr	r3, [r7, #4]
 8004046:	4a38      	ldr	r2, [pc, #224]	; (8004128 <HAL_I2S_Init+0x274>)
 8004048:	635a      	str	r2, [r3, #52]	; 0x34

    /* Clear I2SMOD, I2SE, I2SCFG, PCMSYNC, I2SSTD, CKPOL, DATLEN and CHLEN bits */
    CLEAR_BIT(I2SxEXT(hi2s->Instance)->I2SCFGR, (SPI_I2SCFGR_CHLEN | SPI_I2SCFGR_DATLEN | SPI_I2SCFGR_CKPOL | \
 800404a:	687b      	ldr	r3, [r7, #4]
 800404c:	681b      	ldr	r3, [r3, #0]
 800404e:	4a37      	ldr	r2, [pc, #220]	; (800412c <HAL_I2S_Init+0x278>)
 8004050:	4293      	cmp	r3, r2
 8004052:	d101      	bne.n	8004058 <HAL_I2S_Init+0x1a4>
 8004054:	4b36      	ldr	r3, [pc, #216]	; (8004130 <HAL_I2S_Init+0x27c>)
 8004056:	e001      	b.n	800405c <HAL_I2S_Init+0x1a8>
 8004058:	f04f 2340 	mov.w	r3, #1073758208	; 0x40004000
 800405c:	69db      	ldr	r3, [r3, #28]
 800405e:	687a      	ldr	r2, [r7, #4]
 8004060:	6812      	ldr	r2, [r2, #0]
 8004062:	4932      	ldr	r1, [pc, #200]	; (800412c <HAL_I2S_Init+0x278>)
 8004064:	428a      	cmp	r2, r1
 8004066:	d101      	bne.n	800406c <HAL_I2S_Init+0x1b8>
 8004068:	4a31      	ldr	r2, [pc, #196]	; (8004130 <HAL_I2S_Init+0x27c>)
 800406a:	e001      	b.n	8004070 <HAL_I2S_Init+0x1bc>
 800406c:	f04f 2240 	mov.w	r2, #1073758208	; 0x40004000
 8004070:	f423 637b 	bic.w	r3, r3, #4016	; 0xfb0
 8004074:	f023 030f 	bic.w	r3, r3, #15
 8004078:	61d3      	str	r3, [r2, #28]
                                                 SPI_I2SCFGR_I2SSTD | SPI_I2SCFGR_PCMSYNC | SPI_I2SCFGR_I2SCFG | \
                                                 SPI_I2SCFGR_I2SE | SPI_I2SCFGR_I2SMOD));
    I2SxEXT(hi2s->Instance)->I2SPR = 2U;
 800407a:	687b      	ldr	r3, [r7, #4]
 800407c:	681b      	ldr	r3, [r3, #0]
 800407e:	4a2b      	ldr	r2, [pc, #172]	; (800412c <HAL_I2S_Init+0x278>)
 8004080:	4293      	cmp	r3, r2
 8004082:	d101      	bne.n	8004088 <HAL_I2S_Init+0x1d4>
 8004084:	4b2a      	ldr	r3, [pc, #168]	; (8004130 <HAL_I2S_Init+0x27c>)
 8004086:	e001      	b.n	800408c <HAL_I2S_Init+0x1d8>
 8004088:	f04f 2340 	mov.w	r3, #1073758208	; 0x40004000
 800408c:	2202      	movs	r2, #2
 800408e:	621a      	str	r2, [r3, #32]

    /* Get the I2SCFGR register value */
    tmpreg = I2SxEXT(hi2s->Instance)->I2SCFGR;
 8004090:	687b      	ldr	r3, [r7, #4]
 8004092:	681b      	ldr	r3, [r3, #0]
 8004094:	4a25      	ldr	r2, [pc, #148]	; (800412c <HAL_I2S_Init+0x278>)
 8004096:	4293      	cmp	r3, r2
 8004098:	d101      	bne.n	800409e <HAL_I2S_Init+0x1ea>
 800409a:	4b25      	ldr	r3, [pc, #148]	; (8004130 <HAL_I2S_Init+0x27c>)
 800409c:	e001      	b.n	80040a2 <HAL_I2S_Init+0x1ee>
 800409e:	f04f 2340 	mov.w	r3, #1073758208	; 0x40004000
 80040a2:	69db      	ldr	r3, [r3, #28]
 80040a4:	817b      	strh	r3, [r7, #10]

    /* Get the mode to be configured for the extended I2S */
    if ((hi2s->Init.Mode == I2S_MODE_MASTER_TX) || (hi2s->Init.Mode == I2S_MODE_SLAVE_TX))
 80040a6:	687b      	ldr	r3, [r7, #4]
 80040a8:	685b      	ldr	r3, [r3, #4]
 80040aa:	f5b3 7f00 	cmp.w	r3, #512	; 0x200
 80040ae:	d003      	beq.n	80040b8 <HAL_I2S_Init+0x204>
 80040b0:	687b      	ldr	r3, [r7, #4]
 80040b2:	685b      	ldr	r3, [r3, #4]
 80040b4:	2b00      	cmp	r3, #0
 80040b6:	d103      	bne.n	80040c0 <HAL_I2S_Init+0x20c>
    {
      tmp = I2S_MODE_SLAVE_RX;
 80040b8:	f44f 7380 	mov.w	r3, #256	; 0x100
 80040bc:	613b      	str	r3, [r7, #16]
 80040be:	e001      	b.n	80040c4 <HAL_I2S_Init+0x210>
    }
    else /* I2S_MODE_MASTER_RX ||  I2S_MODE_SLAVE_RX */
    {
      tmp = I2S_MODE_SLAVE_TX;
 80040c0:	2300      	movs	r3, #0
 80040c2:	613b      	str	r3, [r7, #16]
    }

    /* Configure the I2S Slave with the I2S Master parameter values */
    tmpreg |= (uint16_t)((uint16_t)SPI_I2SCFGR_I2SMOD    | \
                         (uint16_t)tmp                   | \
 80040c4:	693b      	ldr	r3, [r7, #16]
 80040c6:	b29a      	uxth	r2, r3
                         (uint16_t)hi2s->Init.Standard   | \
 80040c8:	687b      	ldr	r3, [r7, #4]
 80040ca:	689b      	ldr	r3, [r3, #8]
 80040cc:	b29b      	uxth	r3, r3
    tmpreg |= (uint16_t)((uint16_t)SPI_I2SCFGR_I2SMOD    | \
 80040ce:	4313      	orrs	r3, r2
 80040d0:	b29a      	uxth	r2, r3
                         (uint16_t)hi2s->Init.DataFormat | \
 80040d2:	687b      	ldr	r3, [r7, #4]
 80040d4:	68db      	ldr	r3, [r3, #12]
 80040d6:	b29b      	uxth	r3, r3
    tmpreg |= (uint16_t)((uint16_t)SPI_I2SCFGR_I2SMOD    | \
 80040d8:	4313      	orrs	r3, r2
 80040da:	b29a      	uxth	r2, r3
                         (uint16_t)hi2s->Init.CPOL);
 80040dc:	687b      	ldr	r3, [r7, #4]
 80040de:	699b      	ldr	r3, [r3, #24]
 80040e0:	b29b      	uxth	r3, r3
    tmpreg |= (uint16_t)((uint16_t)SPI_I2SCFGR_I2SMOD    | \
 80040e2:	4313      	orrs	r3, r2
 80040e4:	b29a      	uxth	r2, r3
 80040e6:	897b      	ldrh	r3, [r7, #10]
 80040e8:	4313      	orrs	r3, r2
 80040ea:	b29b      	uxth	r3, r3
 80040ec:	f443 6300 	orr.w	r3, r3, #2048	; 0x800
 80040f0:	817b      	strh	r3, [r7, #10]

    /* Write to SPIx I2SCFGR */
    WRITE_REG(I2SxEXT(hi2s->Instance)->I2SCFGR, tmpreg);
 80040f2:	687b      	ldr	r3, [r7, #4]
 80040f4:	681b      	ldr	r3, [r3, #0]
 80040f6:	4a0d      	ldr	r2, [pc, #52]	; (800412c <HAL_I2S_Init+0x278>)
 80040f8:	4293      	cmp	r3, r2
 80040fa:	d101      	bne.n	8004100 <HAL_I2S_Init+0x24c>
 80040fc:	4b0c      	ldr	r3, [pc, #48]	; (8004130 <HAL_I2S_Init+0x27c>)
 80040fe:	e001      	b.n	8004104 <HAL_I2S_Init+0x250>
 8004100:	f04f 2340 	mov.w	r3, #1073758208	; 0x40004000
 8004104:	897a      	ldrh	r2, [r7, #10]
 8004106:	61da      	str	r2, [r3, #28]
  }
#endif /* SPI_I2S_FULLDUPLEX_SUPPORT */

  hi2s->ErrorCode = HAL_I2S_ERROR_NONE;
 8004108:	687b      	ldr	r3, [r7, #4]
 800410a:	2200      	movs	r2, #0
 800410c:	645a      	str	r2, [r3, #68]	; 0x44
  hi2s->State     = HAL_I2S_STATE_READY;
 800410e:	687b      	ldr	r3, [r7, #4]
 8004110:	2201      	movs	r2, #1
 8004112:	f883 2041 	strb.w	r2, [r3, #65]	; 0x41

  return HAL_OK;
 8004116:	2300      	movs	r3, #0
}
 8004118:	4618      	mov	r0, r3
 800411a:	3720      	adds	r7, #32
 800411c:	46bd      	mov	sp, r7
 800411e:	bd80      	pop	{r7, pc}
 8004120:	0800422b 	.word	0x0800422b
 8004124:	cccccccd 	.word	0xcccccccd
 8004128:	08004341 	.word	0x08004341
 800412c:	40003800 	.word	0x40003800
 8004130:	40003400 	.word	0x40003400

08004134 <HAL_I2S_TxCpltCallback>:
  * @param  hi2s pointer to a I2S_HandleTypeDef structure that contains
  *         the configuration information for I2S module
  * @retval None
  */
__weak void HAL_I2S_TxCpltCallback(I2S_HandleTypeDef *hi2s)
{
 8004134:	b480      	push	{r7}
 8004136:	b083      	sub	sp, #12
 8004138:	af00      	add	r7, sp, #0
 800413a:	6078      	str	r0, [r7, #4]
  UNUSED(hi2s);

  /* NOTE : This function Should not be modified, when the callback is needed,
            the HAL_I2S_TxCpltCallback could be implemented in the user file
   */
}
 800413c:	bf00      	nop
 800413e:	370c      	adds	r7, #12
 8004140:	46bd      	mov	sp, r7
 8004142:	f85d 7b04 	ldr.w	r7, [sp], #4
 8004146:	4770      	bx	lr

08004148 <HAL_I2S_RxCpltCallback>:
  * @param  hi2s pointer to a I2S_HandleTypeDef structure that contains
  *         the configuration information for I2S module
  * @retval None
  */
__weak void HAL_I2S_RxCpltCallback(I2S_HandleTypeDef *hi2s)
{
 8004148:	b480      	push	{r7}
 800414a:	b083      	sub	sp, #12
 800414c:	af00      	add	r7, sp, #0
 800414e:	6078      	str	r0, [r7, #4]
  UNUSED(hi2s);

  /* NOTE : This function Should not be modified, when the callback is needed,
            the HAL_I2S_RxCpltCallback could be implemented in the user file
   */
}
 8004150:	bf00      	nop
 8004152:	370c      	adds	r7, #12
 8004154:	46bd      	mov	sp, r7
 8004156:	f85d 7b04 	ldr.w	r7, [sp], #4
 800415a:	4770      	bx	lr

0800415c <HAL_I2S_ErrorCallback>:
  * @param  hi2s pointer to a I2S_HandleTypeDef structure that contains
  *         the configuration information for I2S module
  * @retval None
  */
__weak void HAL_I2S_ErrorCallback(I2S_HandleTypeDef *hi2s)
{
 800415c:	b480      	push	{r7}
 800415e:	b083      	sub	sp, #12
 8004160:	af00      	add	r7, sp, #0
 8004162:	6078      	str	r0, [r7, #4]
  UNUSED(hi2s);

  /* NOTE : This function Should not be modified, when the callback is needed,
            the HAL_I2S_ErrorCallback could be implemented in the user file
   */
}
 8004164:	bf00      	nop
 8004166:	370c      	adds	r7, #12
 8004168:	46bd      	mov	sp, r7
 800416a:	f85d 7b04 	ldr.w	r7, [sp], #4
 800416e:	4770      	bx	lr

08004170 <I2S_Transmit_IT>:
  * @param  hi2s pointer to a I2S_HandleTypeDef structure that contains
  *         the configuration information for I2S module
  * @retval None
  */
static void I2S_Transmit_IT(I2S_HandleTypeDef *hi2s)
{
 8004170:	b580      	push	{r7, lr}
 8004172:	b082      	sub	sp, #8
 8004174:	af00      	add	r7, sp, #0
 8004176:	6078      	str	r0, [r7, #4]
  /* Transmit data */
  hi2s->Instance->DR = (*hi2s->pTxBuffPtr);
 8004178:	687b      	ldr	r3, [r7, #4]
 800417a:	6a5b      	ldr	r3, [r3, #36]	; 0x24
 800417c:	881a      	ldrh	r2, [r3, #0]
 800417e:	687b      	ldr	r3, [r7, #4]
 8004180:	681b      	ldr	r3, [r3, #0]
 8004182:	60da      	str	r2, [r3, #12]
  hi2s->pTxBuffPtr++;
 8004184:	687b      	ldr	r3, [r7, #4]
 8004186:	6a5b      	ldr	r3, [r3, #36]	; 0x24
 8004188:	1c9a      	adds	r2, r3, #2
 800418a:	687b      	ldr	r3, [r7, #4]
 800418c:	625a      	str	r2, [r3, #36]	; 0x24
  hi2s->TxXferCount--;
 800418e:	687b      	ldr	r3, [r7, #4]
 8004190:	8d5b      	ldrh	r3, [r3, #42]	; 0x2a
 8004192:	b29b      	uxth	r3, r3
 8004194:	3b01      	subs	r3, #1
 8004196:	b29a      	uxth	r2, r3
 8004198:	687b      	ldr	r3, [r7, #4]
 800419a:	855a      	strh	r2, [r3, #42]	; 0x2a

  if (hi2s->TxXferCount == 0U)
 800419c:	687b      	ldr	r3, [r7, #4]
 800419e:	8d5b      	ldrh	r3, [r3, #42]	; 0x2a
 80041a0:	b29b      	uxth	r3, r3
 80041a2:	2b00      	cmp	r3, #0
 80041a4:	d10e      	bne.n	80041c4 <I2S_Transmit_IT+0x54>
  {
    /* Disable TXE and ERR interrupt */
    __HAL_I2S_DISABLE_IT(hi2s, (I2S_IT_TXE | I2S_IT_ERR));
 80041a6:	687b      	ldr	r3, [r7, #4]
 80041a8:	681b      	ldr	r3, [r3, #0]
 80041aa:	685a      	ldr	r2, [r3, #4]
 80041ac:	687b      	ldr	r3, [r7, #4]
 80041ae:	681b      	ldr	r3, [r3, #0]
 80041b0:	f022 02a0 	bic.w	r2, r2, #160	; 0xa0
 80041b4:	605a      	str	r2, [r3, #4]

    hi2s->State = HAL_I2S_STATE_READY;
 80041b6:	687b      	ldr	r3, [r7, #4]
 80041b8:	2201      	movs	r2, #1
 80041ba:	f883 2041 	strb.w	r2, [r3, #65]	; 0x41
    /* Call user Tx complete callback */
#if (USE_HAL_I2S_REGISTER_CALLBACKS == 1U)
    hi2s->TxCpltCallback(hi2s);
#else
    HAL_I2S_TxCpltCallback(hi2s);
 80041be:	6878      	ldr	r0, [r7, #4]
 80041c0:	f7ff ffb8 	bl	8004134 <HAL_I2S_TxCpltCallback>
#endif /* USE_HAL_I2S_REGISTER_CALLBACKS */
  }
}
 80041c4:	bf00      	nop
 80041c6:	3708      	adds	r7, #8
 80041c8:	46bd      	mov	sp, r7
 80041ca:	bd80      	pop	{r7, pc}

080041cc <I2S_Receive_IT>:
  * @param  hi2s pointer to a I2S_HandleTypeDef structure that contains
  *         the configuration information for I2S module
  * @retval None
  */
static void I2S_Receive_IT(I2S_HandleTypeDef *hi2s)
{
 80041cc:	b580      	push	{r7, lr}
 80041ce:	b082      	sub	sp, #8
 80041d0:	af00      	add	r7, sp, #0
 80041d2:	6078      	str	r0, [r7, #4]
  /* Receive data */
  (*hi2s->pRxBuffPtr) = (uint16_t)hi2s->Instance->DR;
 80041d4:	687b      	ldr	r3, [r7, #4]
 80041d6:	681b      	ldr	r3, [r3, #0]
 80041d8:	68da      	ldr	r2, [r3, #12]
 80041da:	687b      	ldr	r3, [r7, #4]
 80041dc:	6adb      	ldr	r3, [r3, #44]	; 0x2c
 80041de:	b292      	uxth	r2, r2
 80041e0:	801a      	strh	r2, [r3, #0]
  hi2s->pRxBuffPtr++;
 80041e2:	687b      	ldr	r3, [r7, #4]
 80041e4:	6adb      	ldr	r3, [r3, #44]	; 0x2c
 80041e6:	1c9a      	adds	r2, r3, #2
 80041e8:	687b      	ldr	r3, [r7, #4]
 80041ea:	62da      	str	r2, [r3, #44]	; 0x2c
  hi2s->RxXferCount--;
 80041ec:	687b      	ldr	r3, [r7, #4]
 80041ee:	8e5b      	ldrh	r3, [r3, #50]	; 0x32
 80041f0:	b29b      	uxth	r3, r3
 80041f2:	3b01      	subs	r3, #1
 80041f4:	b29a      	uxth	r2, r3
 80041f6:	687b      	ldr	r3, [r7, #4]
 80041f8:	865a      	strh	r2, [r3, #50]	; 0x32

  if (hi2s->RxXferCount == 0U)
 80041fa:	687b      	ldr	r3, [r7, #4]
 80041fc:	8e5b      	ldrh	r3, [r3, #50]	; 0x32
 80041fe:	b29b      	uxth	r3, r3
 8004200:	2b00      	cmp	r3, #0
 8004202:	d10e      	bne.n	8004222 <I2S_Receive_IT+0x56>
  {
    /* Disable RXNE and ERR interrupt */
    __HAL_I2S_DISABLE_IT(hi2s, (I2S_IT_RXNE | I2S_IT_ERR));
 8004204:	687b      	ldr	r3, [r7, #4]
 8004206:	681b      	ldr	r3, [r3, #0]
 8004208:	685a      	ldr	r2, [r3, #4]
 800420a:	687b      	ldr	r3, [r7, #4]
 800420c:	681b      	ldr	r3, [r3, #0]
 800420e:	f022 0260 	bic.w	r2, r2, #96	; 0x60
 8004212:	605a      	str	r2, [r3, #4]

    hi2s->State = HAL_I2S_STATE_READY;
 8004214:	687b      	ldr	r3, [r7, #4]
 8004216:	2201      	movs	r2, #1
 8004218:	f883 2041 	strb.w	r2, [r3, #65]	; 0x41
    /* Call user Rx complete callback */
#if (USE_HAL_I2S_REGISTER_CALLBACKS == 1U)
    hi2s->RxCpltCallback(hi2s);
#else
    HAL_I2S_RxCpltCallback(hi2s);
 800421c:	6878      	ldr	r0, [r7, #4]
 800421e:	f7ff ff93 	bl	8004148 <HAL_I2S_RxCpltCallback>
#endif /* USE_HAL_I2S_REGISTER_CALLBACKS */
  }
}
 8004222:	bf00      	nop
 8004224:	3708      	adds	r7, #8
 8004226:	46bd      	mov	sp, r7
 8004228:	bd80      	pop	{r7, pc}

0800422a <I2S_IRQHandler>:
  * @param  hi2s: pointer to a I2S_HandleTypeDef structure that contains
  *         the configuration information for I2S module
  * @retval None
  */
static void I2S_IRQHandler(I2S_HandleTypeDef *hi2s)
{
 800422a:	b580      	push	{r7, lr}
 800422c:	b086      	sub	sp, #24
 800422e:	af00      	add	r7, sp, #0
 8004230:	6078      	str	r0, [r7, #4]
  __IO uint32_t i2ssr = hi2s->Instance->SR;
 8004232:	687b      	ldr	r3, [r7, #4]
 8004234:	681b      	ldr	r3, [r3, #0]
 8004236:	689b      	ldr	r3, [r3, #8]
 8004238:	617b      	str	r3, [r7, #20]

  if (hi2s->State == HAL_I2S_STATE_BUSY_RX)
 800423a:	687b      	ldr	r3, [r7, #4]
 800423c:	f893 3041 	ldrb.w	r3, [r3, #65]	; 0x41
 8004240:	b2db      	uxtb	r3, r3
 8004242:	2b04      	cmp	r3, #4
 8004244:	d13a      	bne.n	80042bc <I2S_IRQHandler+0x92>
  {
    /* I2S in mode Receiver ------------------------------------------------*/
    if (((i2ssr & I2S_FLAG_RXNE) == I2S_FLAG_RXNE) && (__HAL_I2S_GET_IT_SOURCE(hi2s, I2S_IT_RXNE) != RESET))
 8004246:	697b      	ldr	r3, [r7, #20]
 8004248:	f003 0301 	and.w	r3, r3, #1
 800424c:	2b01      	cmp	r3, #1
 800424e:	d109      	bne.n	8004264 <I2S_IRQHandler+0x3a>
 8004250:	687b      	ldr	r3, [r7, #4]
 8004252:	681b      	ldr	r3, [r3, #0]
 8004254:	685b      	ldr	r3, [r3, #4]
 8004256:	f003 0340 	and.w	r3, r3, #64	; 0x40
 800425a:	2b40      	cmp	r3, #64	; 0x40
 800425c:	d102      	bne.n	8004264 <I2S_IRQHandler+0x3a>
    {
      I2S_Receive_IT(hi2s);
 800425e:	6878      	ldr	r0, [r7, #4]
 8004260:	f7ff ffb4 	bl	80041cc <I2S_Receive_IT>
    }

    /* I2S Overrun error interrupt occurred -------------------------------------*/
    if (((i2ssr & I2S_FLAG_OVR) == I2S_FLAG_OVR) && (__HAL_I2S_GET_IT_SOURCE(hi2s, I2S_IT_ERR) != RESET))
 8004264:	697b      	ldr	r3, [r7, #20]
 8004266:	f003 0340 	and.w	r3, r3, #64	; 0x40
 800426a:	2b40      	cmp	r3, #64	; 0x40
 800426c:	d126      	bne.n	80042bc <I2S_IRQHandler+0x92>
 800426e:	687b      	ldr	r3, [r7, #4]
 8004270:	681b      	ldr	r3, [r3, #0]
 8004272:	685b      	ldr	r3, [r3, #4]
 8004274:	f003 0320 	and.w	r3, r3, #32
 8004278:	2b20      	cmp	r3, #32
 800427a:	d11f      	bne.n	80042bc <I2S_IRQHandler+0x92>
    {
      /* Disable RXNE and ERR interrupt */
      __HAL_I2S_DISABLE_IT(hi2s, (I2S_IT_RXNE | I2S_IT_ERR));
 800427c:	687b      	ldr	r3, [r7, #4]
 800427e:	681b      	ldr	r3, [r3, #0]
 8004280:	685a      	ldr	r2, [r3, #4]
 8004282:	687b      	ldr	r3, [r7, #4]
 8004284:	681b      	ldr	r3, [r3, #0]
 8004286:	f022 0260 	bic.w	r2, r2, #96	; 0x60
 800428a:	605a      	str	r2, [r3, #4]

      /* Clear Overrun flag */
      __HAL_I2S_CLEAR_OVRFLAG(hi2s);
 800428c:	2300      	movs	r3, #0
 800428e:	613b      	str	r3, [r7, #16]
 8004290:	687b      	ldr	r3, [r7, #4]
 8004292:	681b      	ldr	r3, [r3, #0]
 8004294:	68db      	ldr	r3, [r3, #12]
 8004296:	613b      	str	r3, [r7, #16]
 8004298:	687b      	ldr	r3, [r7, #4]
 800429a:	681b      	ldr	r3, [r3, #0]
 800429c:	689b      	ldr	r3, [r3, #8]
 800429e:	613b      	str	r3, [r7, #16]
 80042a0:	693b      	ldr	r3, [r7, #16]

      /* Set the I2S State ready */
      hi2s->State = HAL_I2S_STATE_READY;
 80042a2:	687b      	ldr	r3, [r7, #4]
 80042a4:	2201      	movs	r2, #1
 80042a6:	f883 2041 	strb.w	r2, [r3, #65]	; 0x41


      /* Set the error code and execute error callback*/
      SET_BIT(hi2s->ErrorCode, HAL_I2S_ERROR_OVR);
 80042aa:	687b      	ldr	r3, [r7, #4]
 80042ac:	6c5b      	ldr	r3, [r3, #68]	; 0x44
 80042ae:	f043 0202 	orr.w	r2, r3, #2
 80042b2:	687b      	ldr	r3, [r7, #4]
 80042b4:	645a      	str	r2, [r3, #68]	; 0x44
      /* Call user error callback */
#if (USE_HAL_I2S_REGISTER_CALLBACKS == 1U)
      hi2s->ErrorCallback(hi2s);
#else
      HAL_I2S_ErrorCallback(hi2s);
 80042b6:	6878      	ldr	r0, [r7, #4]
 80042b8:	f7ff ff50 	bl	800415c <HAL_I2S_ErrorCallback>
#endif /* USE_HAL_I2S_REGISTER_CALLBACKS */
    }
  }

  if (hi2s->State == HAL_I2S_STATE_BUSY_TX)
 80042bc:	687b      	ldr	r3, [r7, #4]
 80042be:	f893 3041 	ldrb.w	r3, [r3, #65]	; 0x41
 80042c2:	b2db      	uxtb	r3, r3
 80042c4:	2b03      	cmp	r3, #3
 80042c6:	d136      	bne.n	8004336 <I2S_IRQHandler+0x10c>
  {
    /* I2S in mode Transmitter -----------------------------------------------*/
    if (((i2ssr & I2S_FLAG_TXE) == I2S_FLAG_TXE) && (__HAL_I2S_GET_IT_SOURCE(hi2s, I2S_IT_TXE) != RESET))
 80042c8:	697b      	ldr	r3, [r7, #20]
 80042ca:	f003 0302 	and.w	r3, r3, #2
 80042ce:	2b02      	cmp	r3, #2
 80042d0:	d109      	bne.n	80042e6 <I2S_IRQHandler+0xbc>
 80042d2:	687b      	ldr	r3, [r7, #4]
 80042d4:	681b      	ldr	r3, [r3, #0]
 80042d6:	685b      	ldr	r3, [r3, #4]
 80042d8:	f003 0380 	and.w	r3, r3, #128	; 0x80
 80042dc:	2b80      	cmp	r3, #128	; 0x80
 80042de:	d102      	bne.n	80042e6 <I2S_IRQHandler+0xbc>
    {
      I2S_Transmit_IT(hi2s);
 80042e0:	6878      	ldr	r0, [r7, #4]
 80042e2:	f7ff ff45 	bl	8004170 <I2S_Transmit_IT>
    }

    /* I2S Underrun error interrupt occurred --------------------------------*/
    if (((i2ssr & I2S_FLAG_UDR) == I2S_FLAG_UDR) && (__HAL_I2S_GET_IT_SOURCE(hi2s, I2S_IT_ERR) != RESET))
 80042e6:	697b      	ldr	r3, [r7, #20]
 80042e8:	f003 0308 	and.w	r3, r3, #8
 80042ec:	2b08      	cmp	r3, #8
 80042ee:	d122      	bne.n	8004336 <I2S_IRQHandler+0x10c>
 80042f0:	687b      	ldr	r3, [r7, #4]
 80042f2:	681b      	ldr	r3, [r3, #0]
 80042f4:	685b      	ldr	r3, [r3, #4]
 80042f6:	f003 0320 	and.w	r3, r3, #32
 80042fa:	2b20      	cmp	r3, #32
 80042fc:	d11b      	bne.n	8004336 <I2S_IRQHandler+0x10c>
    {
      /* Disable TXE and ERR interrupt */
      __HAL_I2S_DISABLE_IT(hi2s, (I2S_IT_TXE | I2S_IT_ERR));
 80042fe:	687b      	ldr	r3, [r7, #4]
 8004300:	681b      	ldr	r3, [r3, #0]
 8004302:	685a      	ldr	r2, [r3, #4]
 8004304:	687b      	ldr	r3, [r7, #4]
 8004306:	681b      	ldr	r3, [r3, #0]
 8004308:	f022 02a0 	bic.w	r2, r2, #160	; 0xa0
 800430c:	605a      	str	r2, [r3, #4]

      /* Clear Underrun flag */
      __HAL_I2S_CLEAR_UDRFLAG(hi2s);
 800430e:	2300      	movs	r3, #0
 8004310:	60fb      	str	r3, [r7, #12]
 8004312:	687b      	ldr	r3, [r7, #4]
 8004314:	681b      	ldr	r3, [r3, #0]
 8004316:	689b      	ldr	r3, [r3, #8]
 8004318:	60fb      	str	r3, [r7, #12]
 800431a:	68fb      	ldr	r3, [r7, #12]

      /* Set the I2S State ready */
      hi2s->State = HAL_I2S_STATE_READY;
 800431c:	687b      	ldr	r3, [r7, #4]
 800431e:	2201      	movs	r2, #1
 8004320:	f883 2041 	strb.w	r2, [r3, #65]	; 0x41

      /* Set the error code and execute error callback*/
      SET_BIT(hi2s->ErrorCode, HAL_I2S_ERROR_UDR);
 8004324:	687b      	ldr	r3, [r7, #4]
 8004326:	6c5b      	ldr	r3, [r3, #68]	; 0x44
 8004328:	f043 0204 	orr.w	r2, r3, #4
 800432c:	687b      	ldr	r3, [r7, #4]
 800432e:	645a      	str	r2, [r3, #68]	; 0x44
      /* Call user error callback */
#if (USE_HAL_I2S_REGISTER_CALLBACKS == 1U)
      hi2s->ErrorCallback(hi2s);
#else
      HAL_I2S_ErrorCallback(hi2s);
 8004330:	6878      	ldr	r0, [r7, #4]
 8004332:	f7ff ff13 	bl	800415c <HAL_I2S_ErrorCallback>
#endif /* USE_HAL_I2S_REGISTER_CALLBACKS */
    }
  }
}
 8004336:	bf00      	nop
 8004338:	3718      	adds	r7, #24
 800433a:	46bd      	mov	sp, r7
 800433c:	bd80      	pop	{r7, pc}
	...

08004340 <HAL_I2SEx_FullDuplex_IRQHandler>:
  * @brief  This function handles I2S/I2Sext interrupt requests in full-duplex mode.
  * @param  hi2s I2S handle
  * @retval HAL status
  */
void HAL_I2SEx_FullDuplex_IRQHandler(I2S_HandleTypeDef *hi2s)
{
 8004340:	b580      	push	{r7, lr}
 8004342:	b088      	sub	sp, #32
 8004344:	af00      	add	r7, sp, #0
 8004346:	6078      	str	r0, [r7, #4]
  __IO uint32_t i2ssr     = hi2s->Instance->SR;
 8004348:	687b      	ldr	r3, [r7, #4]
 800434a:	681b      	ldr	r3, [r3, #0]
 800434c:	689b      	ldr	r3, [r3, #8]
 800434e:	61fb      	str	r3, [r7, #28]
  __IO uint32_t i2sextsr  = I2SxEXT(hi2s->Instance)->SR;
 8004350:	687b      	ldr	r3, [r7, #4]
 8004352:	681b      	ldr	r3, [r3, #0]
 8004354:	4a92      	ldr	r2, [pc, #584]	; (80045a0 <HAL_I2SEx_FullDuplex_IRQHandler+0x260>)
 8004356:	4293      	cmp	r3, r2
 8004358:	d101      	bne.n	800435e <HAL_I2SEx_FullDuplex_IRQHandler+0x1e>
 800435a:	4b92      	ldr	r3, [pc, #584]	; (80045a4 <HAL_I2SEx_FullDuplex_IRQHandler+0x264>)
 800435c:	e001      	b.n	8004362 <HAL_I2SEx_FullDuplex_IRQHandler+0x22>
 800435e:	f04f 2340 	mov.w	r3, #1073758208	; 0x40004000
 8004362:	689b      	ldr	r3, [r3, #8]
 8004364:	61bb      	str	r3, [r7, #24]
  __IO uint32_t i2scr2    = hi2s->Instance->CR2;
 8004366:	687b      	ldr	r3, [r7, #4]
 8004368:	681b      	ldr	r3, [r3, #0]
 800436a:	685b      	ldr	r3, [r3, #4]
 800436c:	617b      	str	r3, [r7, #20]
  __IO uint32_t i2sextcr2 = I2SxEXT(hi2s->Instance)->CR2;
 800436e:	687b      	ldr	r3, [r7, #4]
 8004370:	681b      	ldr	r3, [r3, #0]
 8004372:	4a8b      	ldr	r2, [pc, #556]	; (80045a0 <HAL_I2SEx_FullDuplex_IRQHandler+0x260>)
 8004374:	4293      	cmp	r3, r2
 8004376:	d101      	bne.n	800437c <HAL_I2SEx_FullDuplex_IRQHandler+0x3c>
 8004378:	4b8a      	ldr	r3, [pc, #552]	; (80045a4 <HAL_I2SEx_FullDuplex_IRQHandler+0x264>)
 800437a:	e001      	b.n	8004380 <HAL_I2SEx_FullDuplex_IRQHandler+0x40>
 800437c:	f04f 2340 	mov.w	r3, #1073758208	; 0x40004000
 8004380:	685b      	ldr	r3, [r3, #4]
 8004382:	613b      	str	r3, [r7, #16]

  /* Check if the I2S_MODE_MASTER_TX or I2S_MODE_SLAVE_TX Mode is selected */
  if ((hi2s->Init.Mode == I2S_MODE_MASTER_TX) || (hi2s->Init.Mode == I2S_MODE_SLAVE_TX))
 8004384:	687b      	ldr	r3, [r7, #4]
 8004386:	685b      	ldr	r3, [r3, #4]
 8004388:	f5b3 7f00 	cmp.w	r3, #512	; 0x200
 800438c:	d004      	beq.n	8004398 <HAL_I2SEx_FullDuplex_IRQHandler+0x58>
 800438e:	687b      	ldr	r3, [r7, #4]
 8004390:	685b      	ldr	r3, [r3, #4]
 8004392:	2b00      	cmp	r3, #0
 8004394:	f040 8099 	bne.w	80044ca <HAL_I2SEx_FullDuplex_IRQHandler+0x18a>
  {
    /* I2S in mode Transmitter -------------------------------------------------*/
    if (((i2ssr & I2S_FLAG_TXE) == I2S_FLAG_TXE) && ((i2scr2 & I2S_IT_TXE) != RESET))
 8004398:	69fb      	ldr	r3, [r7, #28]
 800439a:	f003 0302 	and.w	r3, r3, #2
 800439e:	2b02      	cmp	r3, #2
 80043a0:	d107      	bne.n	80043b2 <HAL_I2SEx_FullDuplex_IRQHandler+0x72>
 80043a2:	697b      	ldr	r3, [r7, #20]
 80043a4:	f003 0380 	and.w	r3, r3, #128	; 0x80
 80043a8:	2b00      	cmp	r3, #0
 80043aa:	d002      	beq.n	80043b2 <HAL_I2SEx_FullDuplex_IRQHandler+0x72>
    {
      /* When the I2S mode is configured as I2S_MODE_MASTER_TX or I2S_MODE_SLAVE_TX,
      the I2S TXE interrupt will be generated to manage the full-duplex transmit phase. */
      I2SEx_TxISR_I2S(hi2s);
 80043ac:	6878      	ldr	r0, [r7, #4]
 80043ae:	f000 f925 	bl	80045fc <I2SEx_TxISR_I2S>
    }

    /* I2Sext in mode Receiver -----------------------------------------------*/
    if (((i2sextsr & I2S_FLAG_RXNE) == I2S_FLAG_RXNE) && ((i2sextcr2 & I2S_IT_RXNE) != RESET))
 80043b2:	69bb      	ldr	r3, [r7, #24]
 80043b4:	f003 0301 	and.w	r3, r3, #1
 80043b8:	2b01      	cmp	r3, #1
 80043ba:	d107      	bne.n	80043cc <HAL_I2SEx_FullDuplex_IRQHandler+0x8c>
 80043bc:	693b      	ldr	r3, [r7, #16]
 80043be:	f003 0340 	and.w	r3, r3, #64	; 0x40
 80043c2:	2b00      	cmp	r3, #0
 80043c4:	d002      	beq.n	80043cc <HAL_I2SEx_FullDuplex_IRQHandler+0x8c>
    {
      /* When the I2S mode is configured as I2S_MODE_MASTER_TX or I2S_MODE_SLAVE_TX,
      the I2Sext RXNE interrupt will be generated to manage the full-duplex receive phase. */
      I2SEx_RxISR_I2SExt(hi2s);
 80043c6:	6878      	ldr	r0, [r7, #4]
 80043c8:	f000 f9c8 	bl	800475c <I2SEx_RxISR_I2SExt>
    }

    /* I2Sext Overrun error interrupt occurred --------------------------------*/
    if (((i2sextsr & I2S_FLAG_OVR) == I2S_FLAG_OVR) && ((i2sextcr2 & I2S_IT_ERR) != RESET))
 80043cc:	69bb      	ldr	r3, [r7, #24]
 80043ce:	f003 0340 	and.w	r3, r3, #64	; 0x40
 80043d2:	2b40      	cmp	r3, #64	; 0x40
 80043d4:	d13a      	bne.n	800444c <HAL_I2SEx_FullDuplex_IRQHandler+0x10c>
 80043d6:	693b      	ldr	r3, [r7, #16]
 80043d8:	f003 0320 	and.w	r3, r3, #32
 80043dc:	2b00      	cmp	r3, #0
 80043de:	d035      	beq.n	800444c <HAL_I2SEx_FullDuplex_IRQHandler+0x10c>
    {
      /* Disable RXNE and ERR interrupt */
      __HAL_I2SEXT_DISABLE_IT(hi2s, (I2S_IT_RXNE | I2S_IT_ERR));
 80043e0:	687b      	ldr	r3, [r7, #4]
 80043e2:	681b      	ldr	r3, [r3, #0]
 80043e4:	4a6e      	ldr	r2, [pc, #440]	; (80045a0 <HAL_I2SEx_FullDuplex_IRQHandler+0x260>)
 80043e6:	4293      	cmp	r3, r2
 80043e8:	d101      	bne.n	80043ee <HAL_I2SEx_FullDuplex_IRQHandler+0xae>
 80043ea:	4b6e      	ldr	r3, [pc, #440]	; (80045a4 <HAL_I2SEx_FullDuplex_IRQHandler+0x264>)
 80043ec:	e001      	b.n	80043f2 <HAL_I2SEx_FullDuplex_IRQHandler+0xb2>
 80043ee:	f04f 2340 	mov.w	r3, #1073758208	; 0x40004000
 80043f2:	685a      	ldr	r2, [r3, #4]
 80043f4:	687b      	ldr	r3, [r7, #4]
 80043f6:	681b      	ldr	r3, [r3, #0]
 80043f8:	4969      	ldr	r1, [pc, #420]	; (80045a0 <HAL_I2SEx_FullDuplex_IRQHandler+0x260>)
 80043fa:	428b      	cmp	r3, r1
 80043fc:	d101      	bne.n	8004402 <HAL_I2SEx_FullDuplex_IRQHandler+0xc2>
 80043fe:	4b69      	ldr	r3, [pc, #420]	; (80045a4 <HAL_I2SEx_FullDuplex_IRQHandler+0x264>)
 8004400:	e001      	b.n	8004406 <HAL_I2SEx_FullDuplex_IRQHandler+0xc6>
 8004402:	f04f 2340 	mov.w	r3, #1073758208	; 0x40004000
 8004406:	f022 0260 	bic.w	r2, r2, #96	; 0x60
 800440a:	605a      	str	r2, [r3, #4]

      /* Disable TXE and ERR interrupt */
      __HAL_I2S_DISABLE_IT(hi2s, (I2S_IT_TXE | I2S_IT_ERR));
 800440c:	687b      	ldr	r3, [r7, #4]
 800440e:	681b      	ldr	r3, [r3, #0]
 8004410:	685a      	ldr	r2, [r3, #4]
 8004412:	687b      	ldr	r3, [r7, #4]
 8004414:	681b      	ldr	r3, [r3, #0]
 8004416:	f022 02a0 	bic.w	r2, r2, #160	; 0xa0
 800441a:	605a      	str	r2, [r3, #4]

      /* Clear Overrun flag */
      __HAL_I2S_CLEAR_OVRFLAG(hi2s);
 800441c:	2300      	movs	r3, #0
 800441e:	60fb      	str	r3, [r7, #12]
 8004420:	687b      	ldr	r3, [r7, #4]
 8004422:	681b      	ldr	r3, [r3, #0]
 8004424:	68db      	ldr	r3, [r3, #12]
 8004426:	60fb      	str	r3, [r7, #12]
 8004428:	687b      	ldr	r3, [r7, #4]
 800442a:	681b      	ldr	r3, [r3, #0]
 800442c:	689b      	ldr	r3, [r3, #8]
 800442e:	60fb      	str	r3, [r7, #12]
 8004430:	68fb      	ldr	r3, [r7, #12]

      /* Set the I2S State ready */
      hi2s->State = HAL_I2S_STATE_READY;
 8004432:	687b      	ldr	r3, [r7, #4]
 8004434:	2201      	movs	r2, #1
 8004436:	f883 2041 	strb.w	r2, [r3, #65]	; 0x41

      /* Set the error code and execute error callback*/
      SET_BIT(hi2s->ErrorCode, HAL_I2S_ERROR_OVR);
 800443a:	687b      	ldr	r3, [r7, #4]
 800443c:	6c5b      	ldr	r3, [r3, #68]	; 0x44
 800443e:	f043 0202 	orr.w	r2, r3, #2
 8004442:	687b      	ldr	r3, [r7, #4]
 8004444:	645a      	str	r2, [r3, #68]	; 0x44
      /* Call user error callback */
#if (USE_HAL_I2S_REGISTER_CALLBACKS == 1U)
      hi2s->ErrorCallback(hi2s);
#else
      HAL_I2S_ErrorCallback(hi2s);
 8004446:	6878      	ldr	r0, [r7, #4]
 8004448:	f7ff fe88 	bl	800415c <HAL_I2S_ErrorCallback>
#endif /* USE_HAL_I2S_REGISTER_CALLBACKS */
    }

    /* I2S Underrun error interrupt occurred ----------------------------------*/
    if (((i2ssr & I2S_FLAG_UDR) == I2S_FLAG_UDR) && ((i2scr2 & I2S_IT_ERR) != RESET))
 800444c:	69fb      	ldr	r3, [r7, #28]
 800444e:	f003 0308 	and.w	r3, r3, #8
 8004452:	2b08      	cmp	r3, #8
 8004454:	f040 80c3 	bne.w	80045de <HAL_I2SEx_FullDuplex_IRQHandler+0x29e>
 8004458:	697b      	ldr	r3, [r7, #20]
 800445a:	f003 0320 	and.w	r3, r3, #32
 800445e:	2b00      	cmp	r3, #0
 8004460:	f000 80bd 	beq.w	80045de <HAL_I2SEx_FullDuplex_IRQHandler+0x29e>
    {
      /* Disable TXE and ERR interrupt */
      __HAL_I2S_DISABLE_IT(hi2s, (I2S_IT_TXE | I2S_IT_ERR));
 8004464:	687b      	ldr	r3, [r7, #4]
 8004466:	681b      	ldr	r3, [r3, #0]
 8004468:	685a      	ldr	r2, [r3, #4]
 800446a:	687b      	ldr	r3, [r7, #4]
 800446c:	681b      	ldr	r3, [r3, #0]
 800446e:	f022 02a0 	bic.w	r2, r2, #160	; 0xa0
 8004472:	605a      	str	r2, [r3, #4]

      /* Disable RXNE and ERR interrupt */
      __HAL_I2SEXT_DISABLE_IT(hi2s, (I2S_IT_RXNE | I2S_IT_ERR));
 8004474:	687b      	ldr	r3, [r7, #4]
 8004476:	681b      	ldr	r3, [r3, #0]
 8004478:	4a49      	ldr	r2, [pc, #292]	; (80045a0 <HAL_I2SEx_FullDuplex_IRQHandler+0x260>)
 800447a:	4293      	cmp	r3, r2
 800447c:	d101      	bne.n	8004482 <HAL_I2SEx_FullDuplex_IRQHandler+0x142>
 800447e:	4b49      	ldr	r3, [pc, #292]	; (80045a4 <HAL_I2SEx_FullDuplex_IRQHandler+0x264>)
 8004480:	e001      	b.n	8004486 <HAL_I2SEx_FullDuplex_IRQHandler+0x146>
 8004482:	f04f 2340 	mov.w	r3, #1073758208	; 0x40004000
 8004486:	685a      	ldr	r2, [r3, #4]
 8004488:	687b      	ldr	r3, [r7, #4]
 800448a:	681b      	ldr	r3, [r3, #0]
 800448c:	4944      	ldr	r1, [pc, #272]	; (80045a0 <HAL_I2SEx_FullDuplex_IRQHandler+0x260>)
 800448e:	428b      	cmp	r3, r1
 8004490:	d101      	bne.n	8004496 <HAL_I2SEx_FullDuplex_IRQHandler+0x156>
 8004492:	4b44      	ldr	r3, [pc, #272]	; (80045a4 <HAL_I2SEx_FullDuplex_IRQHandler+0x264>)
 8004494:	e001      	b.n	800449a <HAL_I2SEx_FullDuplex_IRQHandler+0x15a>
 8004496:	f04f 2340 	mov.w	r3, #1073758208	; 0x40004000
 800449a:	f022 0260 	bic.w	r2, r2, #96	; 0x60
 800449e:	605a      	str	r2, [r3, #4]

      /* Clear underrun flag */
      __HAL_I2S_CLEAR_UDRFLAG(hi2s);
 80044a0:	2300      	movs	r3, #0
 80044a2:	60bb      	str	r3, [r7, #8]
 80044a4:	687b      	ldr	r3, [r7, #4]
 80044a6:	681b      	ldr	r3, [r3, #0]
 80044a8:	689b      	ldr	r3, [r3, #8]
 80044aa:	60bb      	str	r3, [r7, #8]
 80044ac:	68bb      	ldr	r3, [r7, #8]

      /* Set the I2S State ready */
      hi2s->State = HAL_I2S_STATE_READY;
 80044ae:	687b      	ldr	r3, [r7, #4]
 80044b0:	2201      	movs	r2, #1
 80044b2:	f883 2041 	strb.w	r2, [r3, #65]	; 0x41

      /* Set the error code and execute error callback*/
      SET_BIT(hi2s->ErrorCode, HAL_I2S_ERROR_UDR);
 80044b6:	687b      	ldr	r3, [r7, #4]
 80044b8:	6c5b      	ldr	r3, [r3, #68]	; 0x44
 80044ba:	f043 0204 	orr.w	r2, r3, #4
 80044be:	687b      	ldr	r3, [r7, #4]
 80044c0:	645a      	str	r2, [r3, #68]	; 0x44
      /* Call user error callback */
#if (USE_HAL_I2S_REGISTER_CALLBACKS == 1U)
      hi2s->ErrorCallback(hi2s);
#else
      HAL_I2S_ErrorCallback(hi2s);
 80044c2:	6878      	ldr	r0, [r7, #4]
 80044c4:	f7ff fe4a 	bl	800415c <HAL_I2S_ErrorCallback>
    if (((i2ssr & I2S_FLAG_UDR) == I2S_FLAG_UDR) && ((i2scr2 & I2S_IT_ERR) != RESET))
 80044c8:	e089      	b.n	80045de <HAL_I2SEx_FullDuplex_IRQHandler+0x29e>
  }
  /* The I2S_MODE_MASTER_RX or I2S_MODE_SLAVE_RX Mode is selected */
  else
  {
    /* I2Sext in mode Transmitter ----------------------------------------------*/
    if (((i2sextsr & I2S_FLAG_TXE) == I2S_FLAG_TXE) && ((i2sextcr2 & I2S_IT_TXE) != RESET))
 80044ca:	69bb      	ldr	r3, [r7, #24]
 80044cc:	f003 0302 	and.w	r3, r3, #2
 80044d0:	2b02      	cmp	r3, #2
 80044d2:	d107      	bne.n	80044e4 <HAL_I2SEx_FullDuplex_IRQHandler+0x1a4>
 80044d4:	693b      	ldr	r3, [r7, #16]
 80044d6:	f003 0380 	and.w	r3, r3, #128	; 0x80
 80044da:	2b00      	cmp	r3, #0
 80044dc:	d002      	beq.n	80044e4 <HAL_I2SEx_FullDuplex_IRQHandler+0x1a4>
    {
      /* When the I2S mode is configured as I2S_MODE_MASTER_RX or I2S_MODE_SLAVE_RX,
      the I2Sext TXE interrupt will be generated to manage the full-duplex transmit phase. */
      I2SEx_TxISR_I2SExt(hi2s);
 80044de:	6878      	ldr	r0, [r7, #4]
 80044e0:	f000 f8be 	bl	8004660 <I2SEx_TxISR_I2SExt>
    }

    /* I2S in mode Receiver --------------------------------------------------*/
    if (((i2ssr & I2S_FLAG_RXNE) == I2S_FLAG_RXNE) && ((i2scr2 & I2S_IT_RXNE) != RESET))
 80044e4:	69fb      	ldr	r3, [r7, #28]
 80044e6:	f003 0301 	and.w	r3, r3, #1
 80044ea:	2b01      	cmp	r3, #1
 80044ec:	d107      	bne.n	80044fe <HAL_I2SEx_FullDuplex_IRQHandler+0x1be>
 80044ee:	697b      	ldr	r3, [r7, #20]
 80044f0:	f003 0340 	and.w	r3, r3, #64	; 0x40
 80044f4:	2b00      	cmp	r3, #0
 80044f6:	d002      	beq.n	80044fe <HAL_I2SEx_FullDuplex_IRQHandler+0x1be>
    {
      /* When the I2S mode is configured as I2S_MODE_MASTER_RX or I2S_MODE_SLAVE_RX,
      the I2S RXNE interrupt will be generated to manage the full-duplex receive phase. */
      I2SEx_RxISR_I2S(hi2s);
 80044f8:	6878      	ldr	r0, [r7, #4]
 80044fa:	f000 f8fd 	bl	80046f8 <I2SEx_RxISR_I2S>
    }

    /* I2S Overrun error interrupt occurred -------------------------------------*/
    if (((i2ssr & I2S_FLAG_OVR) == I2S_FLAG_OVR) && ((i2scr2 & I2S_IT_ERR) != RESET))
 80044fe:	69fb      	ldr	r3, [r7, #28]
 8004500:	f003 0340 	and.w	r3, r3, #64	; 0x40
 8004504:	2b40      	cmp	r3, #64	; 0x40
 8004506:	d12f      	bne.n	8004568 <HAL_I2SEx_FullDuplex_IRQHandler+0x228>
 8004508:	697b      	ldr	r3, [r7, #20]
 800450a:	f003 0320 	and.w	r3, r3, #32
 800450e:	2b00      	cmp	r3, #0
 8004510:	d02a      	beq.n	8004568 <HAL_I2SEx_FullDuplex_IRQHandler+0x228>
    {
      /* Disable RXNE and ERR interrupt */
      __HAL_I2S_DISABLE_IT(hi2s, (I2S_IT_RXNE | I2S_IT_ERR));
 8004512:	687b      	ldr	r3, [r7, #4]
 8004514:	681b      	ldr	r3, [r3, #0]
 8004516:	685a      	ldr	r2, [r3, #4]
 8004518:	687b      	ldr	r3, [r7, #4]
 800451a:	681b      	ldr	r3, [r3, #0]
 800451c:	f022 0260 	bic.w	r2, r2, #96	; 0x60
 8004520:	605a      	str	r2, [r3, #4]

      /* Disable TXE and ERR interrupt */
      __HAL_I2SEXT_DISABLE_IT(hi2s, (I2S_IT_TXE | I2S_IT_ERR));
 8004522:	687b      	ldr	r3, [r7, #4]
 8004524:	681b      	ldr	r3, [r3, #0]
 8004526:	4a1e      	ldr	r2, [pc, #120]	; (80045a0 <HAL_I2SEx_FullDuplex_IRQHandler+0x260>)
 8004528:	4293      	cmp	r3, r2
 800452a:	d101      	bne.n	8004530 <HAL_I2SEx_FullDuplex_IRQHandler+0x1f0>
 800452c:	4b1d      	ldr	r3, [pc, #116]	; (80045a4 <HAL_I2SEx_FullDuplex_IRQHandler+0x264>)
 800452e:	e001      	b.n	8004534 <HAL_I2SEx_FullDuplex_IRQHandler+0x1f4>
 8004530:	f04f 2340 	mov.w	r3, #1073758208	; 0x40004000
 8004534:	685a      	ldr	r2, [r3, #4]
 8004536:	687b      	ldr	r3, [r7, #4]
 8004538:	681b      	ldr	r3, [r3, #0]
 800453a:	4919      	ldr	r1, [pc, #100]	; (80045a0 <HAL_I2SEx_FullDuplex_IRQHandler+0x260>)
 800453c:	428b      	cmp	r3, r1
 800453e:	d101      	bne.n	8004544 <HAL_I2SEx_FullDuplex_IRQHandler+0x204>
 8004540:	4b18      	ldr	r3, [pc, #96]	; (80045a4 <HAL_I2SEx_FullDuplex_IRQHandler+0x264>)
 8004542:	e001      	b.n	8004548 <HAL_I2SEx_FullDuplex_IRQHandler+0x208>
 8004544:	f04f 2340 	mov.w	r3, #1073758208	; 0x40004000
 8004548:	f022 02a0 	bic.w	r2, r2, #160	; 0xa0
 800454c:	605a      	str	r2, [r3, #4]

      /* Set the I2S State ready */
      hi2s->State = HAL_I2S_STATE_READY;
 800454e:	687b      	ldr	r3, [r7, #4]
 8004550:	2201      	movs	r2, #1
 8004552:	f883 2041 	strb.w	r2, [r3, #65]	; 0x41

      /* Set the error code and execute error callback*/
      SET_BIT(hi2s->ErrorCode, HAL_I2S_ERROR_OVR);
 8004556:	687b      	ldr	r3, [r7, #4]
 8004558:	6c5b      	ldr	r3, [r3, #68]	; 0x44
 800455a:	f043 0202 	orr.w	r2, r3, #2
 800455e:	687b      	ldr	r3, [r7, #4]
 8004560:	645a      	str	r2, [r3, #68]	; 0x44
      /* Call user error callback */
#if (USE_HAL_I2S_REGISTER_CALLBACKS == 1U)
      hi2s->ErrorCallback(hi2s);
#else
      HAL_I2S_ErrorCallback(hi2s);
 8004562:	6878      	ldr	r0, [r7, #4]
 8004564:	f7ff fdfa 	bl	800415c <HAL_I2S_ErrorCallback>
#endif /* USE_HAL_I2S_REGISTER_CALLBACKS */
    }

    /* I2Sext Underrun error interrupt occurred -------------------------------*/
    if (((i2sextsr & I2S_FLAG_UDR) == I2S_FLAG_UDR) && ((i2sextcr2 & I2S_IT_ERR) != RESET))
 8004568:	69bb      	ldr	r3, [r7, #24]
 800456a:	f003 0308 	and.w	r3, r3, #8
 800456e:	2b08      	cmp	r3, #8
 8004570:	d136      	bne.n	80045e0 <HAL_I2SEx_FullDuplex_IRQHandler+0x2a0>
 8004572:	693b      	ldr	r3, [r7, #16]
 8004574:	f003 0320 	and.w	r3, r3, #32
 8004578:	2b00      	cmp	r3, #0
 800457a:	d031      	beq.n	80045e0 <HAL_I2SEx_FullDuplex_IRQHandler+0x2a0>
    {
      /* Disable TXE and ERR interrupt */
      __HAL_I2SEXT_DISABLE_IT(hi2s, (I2S_IT_TXE | I2S_IT_ERR));
 800457c:	687b      	ldr	r3, [r7, #4]
 800457e:	681b      	ldr	r3, [r3, #0]
 8004580:	4a07      	ldr	r2, [pc, #28]	; (80045a0 <HAL_I2SEx_FullDuplex_IRQHandler+0x260>)
 8004582:	4293      	cmp	r3, r2
 8004584:	d101      	bne.n	800458a <HAL_I2SEx_FullDuplex_IRQHandler+0x24a>
 8004586:	4b07      	ldr	r3, [pc, #28]	; (80045a4 <HAL_I2SEx_FullDuplex_IRQHandler+0x264>)
 8004588:	e001      	b.n	800458e <HAL_I2SEx_FullDuplex_IRQHandler+0x24e>
 800458a:	f04f 2340 	mov.w	r3, #1073758208	; 0x40004000
 800458e:	685a      	ldr	r2, [r3, #4]
 8004590:	687b      	ldr	r3, [r7, #4]
 8004592:	681b      	ldr	r3, [r3, #0]
 8004594:	4902      	ldr	r1, [pc, #8]	; (80045a0 <HAL_I2SEx_FullDuplex_IRQHandler+0x260>)
 8004596:	428b      	cmp	r3, r1
 8004598:	d106      	bne.n	80045a8 <HAL_I2SEx_FullDuplex_IRQHandler+0x268>
 800459a:	4b02      	ldr	r3, [pc, #8]	; (80045a4 <HAL_I2SEx_FullDuplex_IRQHandler+0x264>)
 800459c:	e006      	b.n	80045ac <HAL_I2SEx_FullDuplex_IRQHandler+0x26c>
 800459e:	bf00      	nop
 80045a0:	40003800 	.word	0x40003800
 80045a4:	40003400 	.word	0x40003400
 80045a8:	f04f 2340 	mov.w	r3, #1073758208	; 0x40004000
 80045ac:	f022 02a0 	bic.w	r2, r2, #160	; 0xa0
 80045b0:	605a      	str	r2, [r3, #4]

      /* Disable RXNE and ERR interrupt */
      __HAL_I2S_DISABLE_IT(hi2s, (I2S_IT_RXNE | I2S_IT_ERR));
 80045b2:	687b      	ldr	r3, [r7, #4]
 80045b4:	681b      	ldr	r3, [r3, #0]
 80045b6:	685a      	ldr	r2, [r3, #4]
 80045b8:	687b      	ldr	r3, [r7, #4]
 80045ba:	681b      	ldr	r3, [r3, #0]
 80045bc:	f022 0260 	bic.w	r2, r2, #96	; 0x60
 80045c0:	605a      	str	r2, [r3, #4]

      /* Set the I2S State ready */
      hi2s->State = HAL_I2S_STATE_READY;
 80045c2:	687b      	ldr	r3, [r7, #4]
 80045c4:	2201      	movs	r2, #1
 80045c6:	f883 2041 	strb.w	r2, [r3, #65]	; 0x41

      /* Set the error code and execute error callback*/
      SET_BIT(hi2s->ErrorCode, HAL_I2S_ERROR_UDR);
 80045ca:	687b      	ldr	r3, [r7, #4]
 80045cc:	6c5b      	ldr	r3, [r3, #68]	; 0x44
 80045ce:	f043 0204 	orr.w	r2, r3, #4
 80045d2:	687b      	ldr	r3, [r7, #4]
 80045d4:	645a      	str	r2, [r3, #68]	; 0x44
      /* Call user error callback */
#if (USE_HAL_I2S_REGISTER_CALLBACKS == 1U)
      hi2s->ErrorCallback(hi2s);
#else
      HAL_I2S_ErrorCallback(hi2s);
 80045d6:	6878      	ldr	r0, [r7, #4]
 80045d8:	f7ff fdc0 	bl	800415c <HAL_I2S_ErrorCallback>
#endif /* USE_HAL_I2S_REGISTER_CALLBACKS */
    }
  }
}
 80045dc:	e000      	b.n	80045e0 <HAL_I2SEx_FullDuplex_IRQHandler+0x2a0>
    if (((i2ssr & I2S_FLAG_UDR) == I2S_FLAG_UDR) && ((i2scr2 & I2S_IT_ERR) != RESET))
 80045de:	bf00      	nop
}
 80045e0:	bf00      	nop
 80045e2:	3720      	adds	r7, #32
 80045e4:	46bd      	mov	sp, r7
 80045e6:	bd80      	pop	{r7, pc}

080045e8 <HAL_I2SEx_TxRxCpltCallback>:
  * @brief  Tx and Rx Transfer completed callback
  * @param  hi2s I2S handle
  * @retval None
  */
__weak void HAL_I2SEx_TxRxCpltCallback(I2S_HandleTypeDef *hi2s)
{
 80045e8:	b480      	push	{r7}
 80045ea:	b083      	sub	sp, #12
 80045ec:	af00      	add	r7, sp, #0
 80045ee:	6078      	str	r0, [r7, #4]
  UNUSED(hi2s);

  /* NOTE : This function should not be modified, when the callback is needed,
            the HAL_I2SEx_TxRxCpltCallback could be implemented in the user file
   */
}
 80045f0:	bf00      	nop
 80045f2:	370c      	adds	r7, #12
 80045f4:	46bd      	mov	sp, r7
 80045f6:	f85d 7b04 	ldr.w	r7, [sp], #4
 80045fa:	4770      	bx	lr

080045fc <I2SEx_TxISR_I2S>:
  * @brief  I2S Full-Duplex IT handler transmit function
  * @param  hi2s I2S handle
  * @retval None
  */
static void I2SEx_TxISR_I2S(I2S_HandleTypeDef *hi2s)
{
 80045fc:	b580      	push	{r7, lr}
 80045fe:	b082      	sub	sp, #8
 8004600:	af00      	add	r7, sp, #0
 8004602:	6078      	str	r0, [r7, #4]
  /* Write Data on DR register */
  hi2s->Instance->DR = (*hi2s->pTxBuffPtr++);
 8004604:	687b      	ldr	r3, [r7, #4]
 8004606:	6a5b      	ldr	r3, [r3, #36]	; 0x24
 8004608:	1c99      	adds	r1, r3, #2
 800460a:	687a      	ldr	r2, [r7, #4]
 800460c:	6251      	str	r1, [r2, #36]	; 0x24
 800460e:	881a      	ldrh	r2, [r3, #0]
 8004610:	687b      	ldr	r3, [r7, #4]
 8004612:	681b      	ldr	r3, [r3, #0]
 8004614:	60da      	str	r2, [r3, #12]
  hi2s->TxXferCount--;
 8004616:	687b      	ldr	r3, [r7, #4]
 8004618:	8d5b      	ldrh	r3, [r3, #42]	; 0x2a
 800461a:	b29b      	uxth	r3, r3
 800461c:	3b01      	subs	r3, #1
 800461e:	b29a      	uxth	r2, r3
 8004620:	687b      	ldr	r3, [r7, #4]
 8004622:	855a      	strh	r2, [r3, #42]	; 0x2a

  if (hi2s->TxXferCount == 0U)
 8004624:	687b      	ldr	r3, [r7, #4]
 8004626:	8d5b      	ldrh	r3, [r3, #42]	; 0x2a
 8004628:	b29b      	uxth	r3, r3
 800462a:	2b00      	cmp	r3, #0
 800462c:	d113      	bne.n	8004656 <I2SEx_TxISR_I2S+0x5a>
  {
    /* Disable TXE and ERR interrupt */
    __HAL_I2S_DISABLE_IT(hi2s, (I2S_IT_TXE | I2S_IT_ERR));
 800462e:	687b      	ldr	r3, [r7, #4]
 8004630:	681b      	ldr	r3, [r3, #0]
 8004632:	685a      	ldr	r2, [r3, #4]
 8004634:	687b      	ldr	r3, [r7, #4]
 8004636:	681b      	ldr	r3, [r3, #0]
 8004638:	f022 02a0 	bic.w	r2, r2, #160	; 0xa0
 800463c:	605a      	str	r2, [r3, #4]

    if (hi2s->RxXferCount == 0U)
 800463e:	687b      	ldr	r3, [r7, #4]
 8004640:	8e5b      	ldrh	r3, [r3, #50]	; 0x32
 8004642:	b29b      	uxth	r3, r3
 8004644:	2b00      	cmp	r3, #0
 8004646:	d106      	bne.n	8004656 <I2SEx_TxISR_I2S+0x5a>
    {
      hi2s->State = HAL_I2S_STATE_READY;
 8004648:	687b      	ldr	r3, [r7, #4]
 800464a:	2201      	movs	r2, #1
 800464c:	f883 2041 	strb.w	r2, [r3, #65]	; 0x41
      /* Call user TxRx complete callback */
#if (USE_HAL_I2S_REGISTER_CALLBACKS == 1U)
      hi2s->TxRxCpltCallback(hi2s);
#else
      HAL_I2SEx_TxRxCpltCallback(hi2s);
 8004650:	6878      	ldr	r0, [r7, #4]
 8004652:	f7ff ffc9 	bl	80045e8 <HAL_I2SEx_TxRxCpltCallback>
#endif /* USE_HAL_I2S_REGISTER_CALLBACKS */
    }
  }
}
 8004656:	bf00      	nop
 8004658:	3708      	adds	r7, #8
 800465a:	46bd      	mov	sp, r7
 800465c:	bd80      	pop	{r7, pc}
	...

08004660 <I2SEx_TxISR_I2SExt>:
  * @brief  I2SExt Full-Duplex IT handler transmit function
  * @param  hi2s I2S handle
  * @retval None
  */
static void I2SEx_TxISR_I2SExt(I2S_HandleTypeDef *hi2s)
{
 8004660:	b580      	push	{r7, lr}
 8004662:	b082      	sub	sp, #8
 8004664:	af00      	add	r7, sp, #0
 8004666:	6078      	str	r0, [r7, #4]
  /* Write Data on DR register */
  I2SxEXT(hi2s->Instance)->DR = (*hi2s->pTxBuffPtr++);
 8004668:	687b      	ldr	r3, [r7, #4]
 800466a:	6a5b      	ldr	r3, [r3, #36]	; 0x24
 800466c:	1c99      	adds	r1, r3, #2
 800466e:	687a      	ldr	r2, [r7, #4]
 8004670:	6251      	str	r1, [r2, #36]	; 0x24
 8004672:	8819      	ldrh	r1, [r3, #0]
 8004674:	687b      	ldr	r3, [r7, #4]
 8004676:	681b      	ldr	r3, [r3, #0]
 8004678:	4a1d      	ldr	r2, [pc, #116]	; (80046f0 <I2SEx_TxISR_I2SExt+0x90>)
 800467a:	4293      	cmp	r3, r2
 800467c:	d101      	bne.n	8004682 <I2SEx_TxISR_I2SExt+0x22>
 800467e:	4b1d      	ldr	r3, [pc, #116]	; (80046f4 <I2SEx_TxISR_I2SExt+0x94>)
 8004680:	e001      	b.n	8004686 <I2SEx_TxISR_I2SExt+0x26>
 8004682:	f04f 2340 	mov.w	r3, #1073758208	; 0x40004000
 8004686:	460a      	mov	r2, r1
 8004688:	60da      	str	r2, [r3, #12]
  hi2s->TxXferCount--;
 800468a:	687b      	ldr	r3, [r7, #4]
 800468c:	8d5b      	ldrh	r3, [r3, #42]	; 0x2a
 800468e:	b29b      	uxth	r3, r3
 8004690:	3b01      	subs	r3, #1
 8004692:	b29a      	uxth	r2, r3
 8004694:	687b      	ldr	r3, [r7, #4]
 8004696:	855a      	strh	r2, [r3, #42]	; 0x2a

  if (hi2s->TxXferCount == 0U)
 8004698:	687b      	ldr	r3, [r7, #4]
 800469a:	8d5b      	ldrh	r3, [r3, #42]	; 0x2a
 800469c:	b29b      	uxth	r3, r3
 800469e:	2b00      	cmp	r3, #0
 80046a0:	d121      	bne.n	80046e6 <I2SEx_TxISR_I2SExt+0x86>
  {
    /* Disable I2Sext TXE and ERR interrupt */
    __HAL_I2SEXT_DISABLE_IT(hi2s, (I2S_IT_TXE | I2S_IT_ERR));
 80046a2:	687b      	ldr	r3, [r7, #4]
 80046a4:	681b      	ldr	r3, [r3, #0]
 80046a6:	4a12      	ldr	r2, [pc, #72]	; (80046f0 <I2SEx_TxISR_I2SExt+0x90>)
 80046a8:	4293      	cmp	r3, r2
 80046aa:	d101      	bne.n	80046b0 <I2SEx_TxISR_I2SExt+0x50>
 80046ac:	4b11      	ldr	r3, [pc, #68]	; (80046f4 <I2SEx_TxISR_I2SExt+0x94>)
 80046ae:	e001      	b.n	80046b4 <I2SEx_TxISR_I2SExt+0x54>
 80046b0:	f04f 2340 	mov.w	r3, #1073758208	; 0x40004000
 80046b4:	685a      	ldr	r2, [r3, #4]
 80046b6:	687b      	ldr	r3, [r7, #4]
 80046b8:	681b      	ldr	r3, [r3, #0]
 80046ba:	490d      	ldr	r1, [pc, #52]	; (80046f0 <I2SEx_TxISR_I2SExt+0x90>)
 80046bc:	428b      	cmp	r3, r1
 80046be:	d101      	bne.n	80046c4 <I2SEx_TxISR_I2SExt+0x64>
 80046c0:	4b0c      	ldr	r3, [pc, #48]	; (80046f4 <I2SEx_TxISR_I2SExt+0x94>)
 80046c2:	e001      	b.n	80046c8 <I2SEx_TxISR_I2SExt+0x68>
 80046c4:	f04f 2340 	mov.w	r3, #1073758208	; 0x40004000
 80046c8:	f022 02a0 	bic.w	r2, r2, #160	; 0xa0
 80046cc:	605a      	str	r2, [r3, #4]

    if (hi2s->RxXferCount == 0U)
 80046ce:	687b      	ldr	r3, [r7, #4]
 80046d0:	8e5b      	ldrh	r3, [r3, #50]	; 0x32
 80046d2:	b29b      	uxth	r3, r3
 80046d4:	2b00      	cmp	r3, #0
 80046d6:	d106      	bne.n	80046e6 <I2SEx_TxISR_I2SExt+0x86>
    {
      hi2s->State = HAL_I2S_STATE_READY;
 80046d8:	687b      	ldr	r3, [r7, #4]
 80046da:	2201      	movs	r2, #1
 80046dc:	f883 2041 	strb.w	r2, [r3, #65]	; 0x41
      /* Call user TxRx complete callback */
#if (USE_HAL_I2S_REGISTER_CALLBACKS == 1U)
      hi2s->TxRxCpltCallback(hi2s);
#else
      HAL_I2SEx_TxRxCpltCallback(hi2s);
 80046e0:	6878      	ldr	r0, [r7, #4]
 80046e2:	f7ff ff81 	bl	80045e8 <HAL_I2SEx_TxRxCpltCallback>
#endif /* USE_HAL_I2S_REGISTER_CALLBACKS */
    }
  }
}
 80046e6:	bf00      	nop
 80046e8:	3708      	adds	r7, #8
 80046ea:	46bd      	mov	sp, r7
 80046ec:	bd80      	pop	{r7, pc}
 80046ee:	bf00      	nop
 80046f0:	40003800 	.word	0x40003800
 80046f4:	40003400 	.word	0x40003400

080046f8 <I2SEx_RxISR_I2S>:
  * @brief  I2S Full-Duplex IT handler receive function
  * @param  hi2s I2S handle
  * @retval None
  */
static void I2SEx_RxISR_I2S(I2S_HandleTypeDef *hi2s)
{
 80046f8:	b580      	push	{r7, lr}
 80046fa:	b082      	sub	sp, #8
 80046fc:	af00      	add	r7, sp, #0
 80046fe:	6078      	str	r0, [r7, #4]
  /* Read Data from DR register */
  (*hi2s->pRxBuffPtr++) = hi2s->Instance->DR;
 8004700:	687b      	ldr	r3, [r7, #4]
 8004702:	681b      	ldr	r3, [r3, #0]
 8004704:	68d8      	ldr	r0, [r3, #12]
 8004706:	687b      	ldr	r3, [r7, #4]
 8004708:	6adb      	ldr	r3, [r3, #44]	; 0x2c
 800470a:	1c99      	adds	r1, r3, #2
 800470c:	687a      	ldr	r2, [r7, #4]
 800470e:	62d1      	str	r1, [r2, #44]	; 0x2c
 8004710:	b282      	uxth	r2, r0
 8004712:	801a      	strh	r2, [r3, #0]
  hi2s->RxXferCount--;
 8004714:	687b      	ldr	r3, [r7, #4]
 8004716:	8e5b      	ldrh	r3, [r3, #50]	; 0x32
 8004718:	b29b      	uxth	r3, r3
 800471a:	3b01      	subs	r3, #1
 800471c:	b29a      	uxth	r2, r3
 800471e:	687b      	ldr	r3, [r7, #4]
 8004720:	865a      	strh	r2, [r3, #50]	; 0x32

  if (hi2s->RxXferCount == 0U)
 8004722:	687b      	ldr	r3, [r7, #4]
 8004724:	8e5b      	ldrh	r3, [r3, #50]	; 0x32
 8004726:	b29b      	uxth	r3, r3
 8004728:	2b00      	cmp	r3, #0
 800472a:	d113      	bne.n	8004754 <I2SEx_RxISR_I2S+0x5c>
  {
    /* Disable RXNE and ERR interrupt */
    __HAL_I2S_DISABLE_IT(hi2s, (I2S_IT_RXNE | I2S_IT_ERR));
 800472c:	687b      	ldr	r3, [r7, #4]
 800472e:	681b      	ldr	r3, [r3, #0]
 8004730:	685a      	ldr	r2, [r3, #4]
 8004732:	687b      	ldr	r3, [r7, #4]
 8004734:	681b      	ldr	r3, [r3, #0]
 8004736:	f022 0260 	bic.w	r2, r2, #96	; 0x60
 800473a:	605a      	str	r2, [r3, #4]

    if (hi2s->TxXferCount == 0U)
 800473c:	687b      	ldr	r3, [r7, #4]
 800473e:	8d5b      	ldrh	r3, [r3, #42]	; 0x2a
 8004740:	b29b      	uxth	r3, r3
 8004742:	2b00      	cmp	r3, #0
 8004744:	d106      	bne.n	8004754 <I2SEx_RxISR_I2S+0x5c>
    {
      hi2s->State = HAL_I2S_STATE_READY;
 8004746:	687b      	ldr	r3, [r7, #4]
 8004748:	2201      	movs	r2, #1
 800474a:	f883 2041 	strb.w	r2, [r3, #65]	; 0x41
      /* Call user TxRx complete callback */
#if (USE_HAL_I2S_REGISTER_CALLBACKS == 1U)
      hi2s->TxRxCpltCallback(hi2s);
#else
      HAL_I2SEx_TxRxCpltCallback(hi2s);
 800474e:	6878      	ldr	r0, [r7, #4]
 8004750:	f7ff ff4a 	bl	80045e8 <HAL_I2SEx_TxRxCpltCallback>
#endif /* USE_HAL_I2S_REGISTER_CALLBACKS */
    }
  }
}
 8004754:	bf00      	nop
 8004756:	3708      	adds	r7, #8
 8004758:	46bd      	mov	sp, r7
 800475a:	bd80      	pop	{r7, pc}

0800475c <I2SEx_RxISR_I2SExt>:
  * @brief  I2SExt Full-Duplex IT handler receive function
  * @param  hi2s I2S handle
  * @retval None
  */
static void I2SEx_RxISR_I2SExt(I2S_HandleTypeDef *hi2s)
{
 800475c:	b580      	push	{r7, lr}
 800475e:	b082      	sub	sp, #8
 8004760:	af00      	add	r7, sp, #0
 8004762:	6078      	str	r0, [r7, #4]
  /* Read Data from DR register */
  (*hi2s->pRxBuffPtr++) = I2SxEXT(hi2s->Instance)->DR;
 8004764:	687b      	ldr	r3, [r7, #4]
 8004766:	681b      	ldr	r3, [r3, #0]
 8004768:	4a20      	ldr	r2, [pc, #128]	; (80047ec <I2SEx_RxISR_I2SExt+0x90>)
 800476a:	4293      	cmp	r3, r2
 800476c:	d101      	bne.n	8004772 <I2SEx_RxISR_I2SExt+0x16>
 800476e:	4b20      	ldr	r3, [pc, #128]	; (80047f0 <I2SEx_RxISR_I2SExt+0x94>)
 8004770:	e001      	b.n	8004776 <I2SEx_RxISR_I2SExt+0x1a>
 8004772:	f04f 2340 	mov.w	r3, #1073758208	; 0x40004000
 8004776:	68d8      	ldr	r0, [r3, #12]
 8004778:	687b      	ldr	r3, [r7, #4]
 800477a:	6adb      	ldr	r3, [r3, #44]	; 0x2c
 800477c:	1c99      	adds	r1, r3, #2
 800477e:	687a      	ldr	r2, [r7, #4]
 8004780:	62d1      	str	r1, [r2, #44]	; 0x2c
 8004782:	b282      	uxth	r2, r0
 8004784:	801a      	strh	r2, [r3, #0]
  hi2s->RxXferCount--;
 8004786:	687b      	ldr	r3, [r7, #4]
 8004788:	8e5b      	ldrh	r3, [r3, #50]	; 0x32
 800478a:	b29b      	uxth	r3, r3
 800478c:	3b01      	subs	r3, #1
 800478e:	b29a      	uxth	r2, r3
 8004790:	687b      	ldr	r3, [r7, #4]
 8004792:	865a      	strh	r2, [r3, #50]	; 0x32

  if (hi2s->RxXferCount == 0U)
 8004794:	687b      	ldr	r3, [r7, #4]
 8004796:	8e5b      	ldrh	r3, [r3, #50]	; 0x32
 8004798:	b29b      	uxth	r3, r3
 800479a:	2b00      	cmp	r3, #0
 800479c:	d121      	bne.n	80047e2 <I2SEx_RxISR_I2SExt+0x86>
  {
    /* Disable I2Sext RXNE and ERR interrupt */
    __HAL_I2SEXT_DISABLE_IT(hi2s, (I2S_IT_RXNE | I2S_IT_ERR));
 800479e:	687b      	ldr	r3, [r7, #4]
 80047a0:	681b      	ldr	r3, [r3, #0]
 80047a2:	4a12      	ldr	r2, [pc, #72]	; (80047ec <I2SEx_RxISR_I2SExt+0x90>)
 80047a4:	4293      	cmp	r3, r2
 80047a6:	d101      	bne.n	80047ac <I2SEx_RxISR_I2SExt+0x50>
 80047a8:	4b11      	ldr	r3, [pc, #68]	; (80047f0 <I2SEx_RxISR_I2SExt+0x94>)
 80047aa:	e001      	b.n	80047b0 <I2SEx_RxISR_I2SExt+0x54>
 80047ac:	f04f 2340 	mov.w	r3, #1073758208	; 0x40004000
 80047b0:	685a      	ldr	r2, [r3, #4]
 80047b2:	687b      	ldr	r3, [r7, #4]
 80047b4:	681b      	ldr	r3, [r3, #0]
 80047b6:	490d      	ldr	r1, [pc, #52]	; (80047ec <I2SEx_RxISR_I2SExt+0x90>)
 80047b8:	428b      	cmp	r3, r1
 80047ba:	d101      	bne.n	80047c0 <I2SEx_RxISR_I2SExt+0x64>
 80047bc:	4b0c      	ldr	r3, [pc, #48]	; (80047f0 <I2SEx_RxISR_I2SExt+0x94>)
 80047be:	e001      	b.n	80047c4 <I2SEx_RxISR_I2SExt+0x68>
 80047c0:	f04f 2340 	mov.w	r3, #1073758208	; 0x40004000
 80047c4:	f022 0260 	bic.w	r2, r2, #96	; 0x60
 80047c8:	605a      	str	r2, [r3, #4]

    if (hi2s->TxXferCount == 0U)
 80047ca:	687b      	ldr	r3, [r7, #4]
 80047cc:	8d5b      	ldrh	r3, [r3, #42]	; 0x2a
 80047ce:	b29b      	uxth	r3, r3
 80047d0:	2b00      	cmp	r3, #0
 80047d2:	d106      	bne.n	80047e2 <I2SEx_RxISR_I2SExt+0x86>
    {
      hi2s->State = HAL_I2S_STATE_READY;
 80047d4:	687b      	ldr	r3, [r7, #4]
 80047d6:	2201      	movs	r2, #1
 80047d8:	f883 2041 	strb.w	r2, [r3, #65]	; 0x41
      /* Call user TxRx complete callback */
#if (USE_HAL_I2S_REGISTER_CALLBACKS == 1U)
      hi2s->TxRxCpltCallback(hi2s);
#else
      HAL_I2SEx_TxRxCpltCallback(hi2s);
 80047dc:	6878      	ldr	r0, [r7, #4]
 80047de:	f7ff ff03 	bl	80045e8 <HAL_I2SEx_TxRxCpltCallback>
#endif /* USE_HAL_I2S_REGISTER_CALLBACKS */
    }
  }
}
 80047e2:	bf00      	nop
 80047e4:	3708      	adds	r7, #8
 80047e6:	46bd      	mov	sp, r7
 80047e8:	bd80      	pop	{r7, pc}
 80047ea:	bf00      	nop
 80047ec:	40003800 	.word	0x40003800
 80047f0:	40003400 	.word	0x40003400

080047f4 <HAL_RCC_OscConfig>:
  *         supported by this API. User should request a transition to HSE Off
  *         first and then HSE On or HSE Bypass.
  * @retval HAL status
  */
__weak HAL_StatusTypeDef HAL_RCC_OscConfig(RCC_OscInitTypeDef  *RCC_OscInitStruct)
{
 80047f4:	b580      	push	{r7, lr}
 80047f6:	b086      	sub	sp, #24
 80047f8:	af00      	add	r7, sp, #0
 80047fa:	6078      	str	r0, [r7, #4]
  uint32_t tickstart, pll_config;

  /* Check Null pointer */
  if(RCC_OscInitStruct == NULL)
 80047fc:	687b      	ldr	r3, [r7, #4]
 80047fe:	2b00      	cmp	r3, #0
 8004800:	d101      	bne.n	8004806 <HAL_RCC_OscConfig+0x12>
  {
    return HAL_ERROR;
 8004802:	2301      	movs	r3, #1
 8004804:	e267      	b.n	8004cd6 <HAL_RCC_OscConfig+0x4e2>
  }

  /* Check the parameters */
  assert_param(IS_RCC_OSCILLATORTYPE(RCC_OscInitStruct->OscillatorType));
  /*------------------------------- HSE Configuration ------------------------*/
  if(((RCC_OscInitStruct->OscillatorType) & RCC_OSCILLATORTYPE_HSE) == RCC_OSCILLATORTYPE_HSE)
 8004806:	687b      	ldr	r3, [r7, #4]
 8004808:	681b      	ldr	r3, [r3, #0]
 800480a:	f003 0301 	and.w	r3, r3, #1
 800480e:	2b00      	cmp	r3, #0
 8004810:	d075      	beq.n	80048fe <HAL_RCC_OscConfig+0x10a>
  {
    /* Check the parameters */
    assert_param(IS_RCC_HSE(RCC_OscInitStruct->HSEState));
    /* When the HSE is used as system clock or clock source for PLL in these cases HSE will not disabled */
    if((__HAL_RCC_GET_SYSCLK_SOURCE() == RCC_CFGR_SWS_HSE) ||\
 8004812:	4b88      	ldr	r3, [pc, #544]	; (8004a34 <HAL_RCC_OscConfig+0x240>)
 8004814:	689b      	ldr	r3, [r3, #8]
 8004816:	f003 030c 	and.w	r3, r3, #12
 800481a:	2b04      	cmp	r3, #4
 800481c:	d00c      	beq.n	8004838 <HAL_RCC_OscConfig+0x44>
      ((__HAL_RCC_GET_SYSCLK_SOURCE() == RCC_CFGR_SWS_PLL) && ((RCC->PLLCFGR & RCC_PLLCFGR_PLLSRC) == RCC_PLLCFGR_PLLSRC_HSE)))
 800481e:	4b85      	ldr	r3, [pc, #532]	; (8004a34 <HAL_RCC_OscConfig+0x240>)
 8004820:	689b      	ldr	r3, [r3, #8]
 8004822:	f003 030c 	and.w	r3, r3, #12
    if((__HAL_RCC_GET_SYSCLK_SOURCE() == RCC_CFGR_SWS_HSE) ||\
 8004826:	2b08      	cmp	r3, #8
 8004828:	d112      	bne.n	8004850 <HAL_RCC_OscConfig+0x5c>
      ((__HAL_RCC_GET_SYSCLK_SOURCE() == RCC_CFGR_SWS_PLL) && ((RCC->PLLCFGR & RCC_PLLCFGR_PLLSRC) == RCC_PLLCFGR_PLLSRC_HSE)))
 800482a:	4b82      	ldr	r3, [pc, #520]	; (8004a34 <HAL_RCC_OscConfig+0x240>)
 800482c:	685b      	ldr	r3, [r3, #4]
 800482e:	f403 0380 	and.w	r3, r3, #4194304	; 0x400000
 8004832:	f5b3 0f80 	cmp.w	r3, #4194304	; 0x400000
 8004836:	d10b      	bne.n	8004850 <HAL_RCC_OscConfig+0x5c>
    {
      if((__HAL_RCC_GET_FLAG(RCC_FLAG_HSERDY) != RESET) && (RCC_OscInitStruct->HSEState == RCC_HSE_OFF))
 8004838:	4b7e      	ldr	r3, [pc, #504]	; (8004a34 <HAL_RCC_OscConfig+0x240>)
 800483a:	681b      	ldr	r3, [r3, #0]
 800483c:	f403 3300 	and.w	r3, r3, #131072	; 0x20000
 8004840:	2b00      	cmp	r3, #0
 8004842:	d05b      	beq.n	80048fc <HAL_RCC_OscConfig+0x108>
 8004844:	687b      	ldr	r3, [r7, #4]
 8004846:	685b      	ldr	r3, [r3, #4]
 8004848:	2b00      	cmp	r3, #0
 800484a:	d157      	bne.n	80048fc <HAL_RCC_OscConfig+0x108>
      {
        return HAL_ERROR;
 800484c:	2301      	movs	r3, #1
 800484e:	e242      	b.n	8004cd6 <HAL_RCC_OscConfig+0x4e2>
      }
    }
    else
    {
      /* Set the new HSE configuration ---------------------------------------*/
      __HAL_RCC_HSE_CONFIG(RCC_OscInitStruct->HSEState);
 8004850:	687b      	ldr	r3, [r7, #4]
 8004852:	685b      	ldr	r3, [r3, #4]
 8004854:	f5b3 3f80 	cmp.w	r3, #65536	; 0x10000
 8004858:	d106      	bne.n	8004868 <HAL_RCC_OscConfig+0x74>
 800485a:	4b76      	ldr	r3, [pc, #472]	; (8004a34 <HAL_RCC_OscConfig+0x240>)
 800485c:	681b      	ldr	r3, [r3, #0]
 800485e:	4a75      	ldr	r2, [pc, #468]	; (8004a34 <HAL_RCC_OscConfig+0x240>)
 8004860:	f443 3380 	orr.w	r3, r3, #65536	; 0x10000
 8004864:	6013      	str	r3, [r2, #0]
 8004866:	e01d      	b.n	80048a4 <HAL_RCC_OscConfig+0xb0>
 8004868:	687b      	ldr	r3, [r7, #4]
 800486a:	685b      	ldr	r3, [r3, #4]
 800486c:	f5b3 2fa0 	cmp.w	r3, #327680	; 0x50000
 8004870:	d10c      	bne.n	800488c <HAL_RCC_OscConfig+0x98>
 8004872:	4b70      	ldr	r3, [pc, #448]	; (8004a34 <HAL_RCC_OscConfig+0x240>)
 8004874:	681b      	ldr	r3, [r3, #0]
 8004876:	4a6f      	ldr	r2, [pc, #444]	; (8004a34 <HAL_RCC_OscConfig+0x240>)
 8004878:	f443 2380 	orr.w	r3, r3, #262144	; 0x40000
 800487c:	6013      	str	r3, [r2, #0]
 800487e:	4b6d      	ldr	r3, [pc, #436]	; (8004a34 <HAL_RCC_OscConfig+0x240>)
 8004880:	681b      	ldr	r3, [r3, #0]
 8004882:	4a6c      	ldr	r2, [pc, #432]	; (8004a34 <HAL_RCC_OscConfig+0x240>)
 8004884:	f443 3380 	orr.w	r3, r3, #65536	; 0x10000
 8004888:	6013      	str	r3, [r2, #0]
 800488a:	e00b      	b.n	80048a4 <HAL_RCC_OscConfig+0xb0>
 800488c:	4b69      	ldr	r3, [pc, #420]	; (8004a34 <HAL_RCC_OscConfig+0x240>)
 800488e:	681b      	ldr	r3, [r3, #0]
 8004890:	4a68      	ldr	r2, [pc, #416]	; (8004a34 <HAL_RCC_OscConfig+0x240>)
 8004892:	f423 3380 	bic.w	r3, r3, #65536	; 0x10000
 8004896:	6013      	str	r3, [r2, #0]
 8004898:	4b66      	ldr	r3, [pc, #408]	; (8004a34 <HAL_RCC_OscConfig+0x240>)
 800489a:	681b      	ldr	r3, [r3, #0]
 800489c:	4a65      	ldr	r2, [pc, #404]	; (8004a34 <HAL_RCC_OscConfig+0x240>)
 800489e:	f423 2380 	bic.w	r3, r3, #262144	; 0x40000
 80048a2:	6013      	str	r3, [r2, #0]

      /* Check the HSE State */
      if((RCC_OscInitStruct->HSEState) != RCC_HSE_OFF)
 80048a4:	687b      	ldr	r3, [r7, #4]
 80048a6:	685b      	ldr	r3, [r3, #4]
 80048a8:	2b00      	cmp	r3, #0
 80048aa:	d013      	beq.n	80048d4 <HAL_RCC_OscConfig+0xe0>
      {
        /* Get Start Tick */
        tickstart = HAL_GetTick();
 80048ac:	f7fe fe4c 	bl	8003548 <HAL_GetTick>
 80048b0:	6138      	str	r0, [r7, #16]

        /* Wait till HSE is ready */
        while(__HAL_RCC_GET_FLAG(RCC_FLAG_HSERDY) == RESET)
 80048b2:	e008      	b.n	80048c6 <HAL_RCC_OscConfig+0xd2>
        {
          if((HAL_GetTick() - tickstart ) > HSE_TIMEOUT_VALUE)
 80048b4:	f7fe fe48 	bl	8003548 <HAL_GetTick>
 80048b8:	4602      	mov	r2, r0
 80048ba:	693b      	ldr	r3, [r7, #16]
 80048bc:	1ad3      	subs	r3, r2, r3
 80048be:	2b64      	cmp	r3, #100	; 0x64
 80048c0:	d901      	bls.n	80048c6 <HAL_RCC_OscConfig+0xd2>
          {
            return HAL_TIMEOUT;
 80048c2:	2303      	movs	r3, #3
 80048c4:	e207      	b.n	8004cd6 <HAL_RCC_OscConfig+0x4e2>
        while(__HAL_RCC_GET_FLAG(RCC_FLAG_HSERDY) == RESET)
 80048c6:	4b5b      	ldr	r3, [pc, #364]	; (8004a34 <HAL_RCC_OscConfig+0x240>)
 80048c8:	681b      	ldr	r3, [r3, #0]
 80048ca:	f403 3300 	and.w	r3, r3, #131072	; 0x20000
 80048ce:	2b00      	cmp	r3, #0
 80048d0:	d0f0      	beq.n	80048b4 <HAL_RCC_OscConfig+0xc0>
 80048d2:	e014      	b.n	80048fe <HAL_RCC_OscConfig+0x10a>
        }
      }
      else
      {
        /* Get Start Tick */
        tickstart = HAL_GetTick();
 80048d4:	f7fe fe38 	bl	8003548 <HAL_GetTick>
 80048d8:	6138      	str	r0, [r7, #16]

        /* Wait till HSE is bypassed or disabled */
        while(__HAL_RCC_GET_FLAG(RCC_FLAG_HSERDY) != RESET)
 80048da:	e008      	b.n	80048ee <HAL_RCC_OscConfig+0xfa>
        {
          if((HAL_GetTick() - tickstart ) > HSE_TIMEOUT_VALUE)
 80048dc:	f7fe fe34 	bl	8003548 <HAL_GetTick>
 80048e0:	4602      	mov	r2, r0
 80048e2:	693b      	ldr	r3, [r7, #16]
 80048e4:	1ad3      	subs	r3, r2, r3
 80048e6:	2b64      	cmp	r3, #100	; 0x64
 80048e8:	d901      	bls.n	80048ee <HAL_RCC_OscConfig+0xfa>
          {
            return HAL_TIMEOUT;
 80048ea:	2303      	movs	r3, #3
 80048ec:	e1f3      	b.n	8004cd6 <HAL_RCC_OscConfig+0x4e2>
        while(__HAL_RCC_GET_FLAG(RCC_FLAG_HSERDY) != RESET)
 80048ee:	4b51      	ldr	r3, [pc, #324]	; (8004a34 <HAL_RCC_OscConfig+0x240>)
 80048f0:	681b      	ldr	r3, [r3, #0]
 80048f2:	f403 3300 	and.w	r3, r3, #131072	; 0x20000
 80048f6:	2b00      	cmp	r3, #0
 80048f8:	d1f0      	bne.n	80048dc <HAL_RCC_OscConfig+0xe8>
 80048fa:	e000      	b.n	80048fe <HAL_RCC_OscConfig+0x10a>
      if((__HAL_RCC_GET_FLAG(RCC_FLAG_HSERDY) != RESET) && (RCC_OscInitStruct->HSEState == RCC_HSE_OFF))
 80048fc:	bf00      	nop
        }
      }
    }
  }
  /*----------------------------- HSI Configuration --------------------------*/
  if(((RCC_OscInitStruct->OscillatorType) & RCC_OSCILLATORTYPE_HSI) == RCC_OSCILLATORTYPE_HSI)
 80048fe:	687b      	ldr	r3, [r7, #4]
 8004900:	681b      	ldr	r3, [r3, #0]
 8004902:	f003 0302 	and.w	r3, r3, #2
 8004906:	2b00      	cmp	r3, #0
 8004908:	d063      	beq.n	80049d2 <HAL_RCC_OscConfig+0x1de>
    /* Check the parameters */
    assert_param(IS_RCC_HSI(RCC_OscInitStruct->HSIState));
    assert_param(IS_RCC_CALIBRATION_VALUE(RCC_OscInitStruct->HSICalibrationValue));

    /* Check if HSI is used as system clock or as PLL source when PLL is selected as system clock */
    if((__HAL_RCC_GET_SYSCLK_SOURCE() == RCC_CFGR_SWS_HSI) ||\
 800490a:	4b4a      	ldr	r3, [pc, #296]	; (8004a34 <HAL_RCC_OscConfig+0x240>)
 800490c:	689b      	ldr	r3, [r3, #8]
 800490e:	f003 030c 	and.w	r3, r3, #12
 8004912:	2b00      	cmp	r3, #0
 8004914:	d00b      	beq.n	800492e <HAL_RCC_OscConfig+0x13a>
      ((__HAL_RCC_GET_SYSCLK_SOURCE() == RCC_CFGR_SWS_PLL) && ((RCC->PLLCFGR & RCC_PLLCFGR_PLLSRC) == RCC_PLLCFGR_PLLSRC_HSI)))
 8004916:	4b47      	ldr	r3, [pc, #284]	; (8004a34 <HAL_RCC_OscConfig+0x240>)
 8004918:	689b      	ldr	r3, [r3, #8]
 800491a:	f003 030c 	and.w	r3, r3, #12
    if((__HAL_RCC_GET_SYSCLK_SOURCE() == RCC_CFGR_SWS_HSI) ||\
 800491e:	2b08      	cmp	r3, #8
 8004920:	d11c      	bne.n	800495c <HAL_RCC_OscConfig+0x168>
      ((__HAL_RCC_GET_SYSCLK_SOURCE() == RCC_CFGR_SWS_PLL) && ((RCC->PLLCFGR & RCC_PLLCFGR_PLLSRC) == RCC_PLLCFGR_PLLSRC_HSI)))
 8004922:	4b44      	ldr	r3, [pc, #272]	; (8004a34 <HAL_RCC_OscConfig+0x240>)
 8004924:	685b      	ldr	r3, [r3, #4]
 8004926:	f403 0380 	and.w	r3, r3, #4194304	; 0x400000
 800492a:	2b00      	cmp	r3, #0
 800492c:	d116      	bne.n	800495c <HAL_RCC_OscConfig+0x168>
    {
      /* When HSI is used as system clock it will not disabled */
      if((__HAL_RCC_GET_FLAG(RCC_FLAG_HSIRDY) != RESET) && (RCC_OscInitStruct->HSIState != RCC_HSI_ON))
 800492e:	4b41      	ldr	r3, [pc, #260]	; (8004a34 <HAL_RCC_OscConfig+0x240>)
 8004930:	681b      	ldr	r3, [r3, #0]
 8004932:	f003 0302 	and.w	r3, r3, #2
 8004936:	2b00      	cmp	r3, #0
 8004938:	d005      	beq.n	8004946 <HAL_RCC_OscConfig+0x152>
 800493a:	687b      	ldr	r3, [r7, #4]
 800493c:	68db      	ldr	r3, [r3, #12]
 800493e:	2b01      	cmp	r3, #1
 8004940:	d001      	beq.n	8004946 <HAL_RCC_OscConfig+0x152>
      {
        return HAL_ERROR;
 8004942:	2301      	movs	r3, #1
 8004944:	e1c7      	b.n	8004cd6 <HAL_RCC_OscConfig+0x4e2>
      }
      /* Otherwise, just the calibration is allowed */
      else
      {
        /* Adjusts the Internal High Speed oscillator (HSI) calibration value.*/
        __HAL_RCC_HSI_CALIBRATIONVALUE_ADJUST(RCC_OscInitStruct->HSICalibrationValue);
 8004946:	4b3b      	ldr	r3, [pc, #236]	; (8004a34 <HAL_RCC_OscConfig+0x240>)
 8004948:	681b      	ldr	r3, [r3, #0]
 800494a:	f023 02f8 	bic.w	r2, r3, #248	; 0xf8
 800494e:	687b      	ldr	r3, [r7, #4]
 8004950:	691b      	ldr	r3, [r3, #16]
 8004952:	00db      	lsls	r3, r3, #3
 8004954:	4937      	ldr	r1, [pc, #220]	; (8004a34 <HAL_RCC_OscConfig+0x240>)
 8004956:	4313      	orrs	r3, r2
 8004958:	600b      	str	r3, [r1, #0]
      if((__HAL_RCC_GET_FLAG(RCC_FLAG_HSIRDY) != RESET) && (RCC_OscInitStruct->HSIState != RCC_HSI_ON))
 800495a:	e03a      	b.n	80049d2 <HAL_RCC_OscConfig+0x1de>
      }
    }
    else
    {
      /* Check the HSI State */
      if((RCC_OscInitStruct->HSIState)!= RCC_HSI_OFF)
 800495c:	687b      	ldr	r3, [r7, #4]
 800495e:	68db      	ldr	r3, [r3, #12]
 8004960:	2b00      	cmp	r3, #0
 8004962:	d020      	beq.n	80049a6 <HAL_RCC_OscConfig+0x1b2>
      {
        /* Enable the Internal High Speed oscillator (HSI). */
        __HAL_RCC_HSI_ENABLE();
 8004964:	4b34      	ldr	r3, [pc, #208]	; (8004a38 <HAL_RCC_OscConfig+0x244>)
 8004966:	2201      	movs	r2, #1
 8004968:	601a      	str	r2, [r3, #0]

        /* Get Start Tick*/
        tickstart = HAL_GetTick();
 800496a:	f7fe fded 	bl	8003548 <HAL_GetTick>
 800496e:	6138      	str	r0, [r7, #16]

        /* Wait till HSI is ready */
        while(__HAL_RCC_GET_FLAG(RCC_FLAG_HSIRDY) == RESET)
 8004970:	e008      	b.n	8004984 <HAL_RCC_OscConfig+0x190>
        {
          if((HAL_GetTick() - tickstart ) > HSI_TIMEOUT_VALUE)
 8004972:	f7fe fde9 	bl	8003548 <HAL_GetTick>
 8004976:	4602      	mov	r2, r0
 8004978:	693b      	ldr	r3, [r7, #16]
 800497a:	1ad3      	subs	r3, r2, r3
 800497c:	2b02      	cmp	r3, #2
 800497e:	d901      	bls.n	8004984 <HAL_RCC_OscConfig+0x190>
          {
            return HAL_TIMEOUT;
 8004980:	2303      	movs	r3, #3
 8004982:	e1a8      	b.n	8004cd6 <HAL_RCC_OscConfig+0x4e2>
        while(__HAL_RCC_GET_FLAG(RCC_FLAG_HSIRDY) == RESET)
 8004984:	4b2b      	ldr	r3, [pc, #172]	; (8004a34 <HAL_RCC_OscConfig+0x240>)
 8004986:	681b      	ldr	r3, [r3, #0]
 8004988:	f003 0302 	and.w	r3, r3, #2
 800498c:	2b00      	cmp	r3, #0
 800498e:	d0f0      	beq.n	8004972 <HAL_RCC_OscConfig+0x17e>
          }
        }

        /* Adjusts the Internal High Speed oscillator (HSI) calibration value. */
        __HAL_RCC_HSI_CALIBRATIONVALUE_ADJUST(RCC_OscInitStruct->HSICalibrationValue);
 8004990:	4b28      	ldr	r3, [pc, #160]	; (8004a34 <HAL_RCC_OscConfig+0x240>)
 8004992:	681b      	ldr	r3, [r3, #0]
 8004994:	f023 02f8 	bic.w	r2, r3, #248	; 0xf8
 8004998:	687b      	ldr	r3, [r7, #4]
 800499a:	691b      	ldr	r3, [r3, #16]
 800499c:	00db      	lsls	r3, r3, #3
 800499e:	4925      	ldr	r1, [pc, #148]	; (8004a34 <HAL_RCC_OscConfig+0x240>)
 80049a0:	4313      	orrs	r3, r2
 80049a2:	600b      	str	r3, [r1, #0]
 80049a4:	e015      	b.n	80049d2 <HAL_RCC_OscConfig+0x1de>
      }
      else
      {
        /* Disable the Internal High Speed oscillator (HSI). */
        __HAL_RCC_HSI_DISABLE();
 80049a6:	4b24      	ldr	r3, [pc, #144]	; (8004a38 <HAL_RCC_OscConfig+0x244>)
 80049a8:	2200      	movs	r2, #0
 80049aa:	601a      	str	r2, [r3, #0]

        /* Get Start Tick*/
        tickstart = HAL_GetTick();
 80049ac:	f7fe fdcc 	bl	8003548 <HAL_GetTick>
 80049b0:	6138      	str	r0, [r7, #16]

        /* Wait till HSI is ready */
        while(__HAL_RCC_GET_FLAG(RCC_FLAG_HSIRDY) != RESET)
 80049b2:	e008      	b.n	80049c6 <HAL_RCC_OscConfig+0x1d2>
        {
          if((HAL_GetTick() - tickstart ) > HSI_TIMEOUT_VALUE)
 80049b4:	f7fe fdc8 	bl	8003548 <HAL_GetTick>
 80049b8:	4602      	mov	r2, r0
 80049ba:	693b      	ldr	r3, [r7, #16]
 80049bc:	1ad3      	subs	r3, r2, r3
 80049be:	2b02      	cmp	r3, #2
 80049c0:	d901      	bls.n	80049c6 <HAL_RCC_OscConfig+0x1d2>
          {
            return HAL_TIMEOUT;
 80049c2:	2303      	movs	r3, #3
 80049c4:	e187      	b.n	8004cd6 <HAL_RCC_OscConfig+0x4e2>
        while(__HAL_RCC_GET_FLAG(RCC_FLAG_HSIRDY) != RESET)
 80049c6:	4b1b      	ldr	r3, [pc, #108]	; (8004a34 <HAL_RCC_OscConfig+0x240>)
 80049c8:	681b      	ldr	r3, [r3, #0]
 80049ca:	f003 0302 	and.w	r3, r3, #2
 80049ce:	2b00      	cmp	r3, #0
 80049d0:	d1f0      	bne.n	80049b4 <HAL_RCC_OscConfig+0x1c0>
        }
      }
    }
  }
  /*------------------------------ LSI Configuration -------------------------*/
  if(((RCC_OscInitStruct->OscillatorType) & RCC_OSCILLATORTYPE_LSI) == RCC_OSCILLATORTYPE_LSI)
 80049d2:	687b      	ldr	r3, [r7, #4]
 80049d4:	681b      	ldr	r3, [r3, #0]
 80049d6:	f003 0308 	and.w	r3, r3, #8
 80049da:	2b00      	cmp	r3, #0
 80049dc:	d036      	beq.n	8004a4c <HAL_RCC_OscConfig+0x258>
  {
    /* Check the parameters */
    assert_param(IS_RCC_LSI(RCC_OscInitStruct->LSIState));

    /* Check the LSI State */
    if((RCC_OscInitStruct->LSIState)!= RCC_LSI_OFF)
 80049de:	687b      	ldr	r3, [r7, #4]
 80049e0:	695b      	ldr	r3, [r3, #20]
 80049e2:	2b00      	cmp	r3, #0
 80049e4:	d016      	beq.n	8004a14 <HAL_RCC_OscConfig+0x220>
    {
      /* Enable the Internal Low Speed oscillator (LSI). */
      __HAL_RCC_LSI_ENABLE();
 80049e6:	4b15      	ldr	r3, [pc, #84]	; (8004a3c <HAL_RCC_OscConfig+0x248>)
 80049e8:	2201      	movs	r2, #1
 80049ea:	601a      	str	r2, [r3, #0]

      /* Get Start Tick*/
      tickstart = HAL_GetTick();
 80049ec:	f7fe fdac 	bl	8003548 <HAL_GetTick>
 80049f0:	6138      	str	r0, [r7, #16]

      /* Wait till LSI is ready */
      while(__HAL_RCC_GET_FLAG(RCC_FLAG_LSIRDY) == RESET)
 80049f2:	e008      	b.n	8004a06 <HAL_RCC_OscConfig+0x212>
      {
        if((HAL_GetTick() - tickstart ) > LSI_TIMEOUT_VALUE)
 80049f4:	f7fe fda8 	bl	8003548 <HAL_GetTick>
 80049f8:	4602      	mov	r2, r0
 80049fa:	693b      	ldr	r3, [r7, #16]
 80049fc:	1ad3      	subs	r3, r2, r3
 80049fe:	2b02      	cmp	r3, #2
 8004a00:	d901      	bls.n	8004a06 <HAL_RCC_OscConfig+0x212>
        {
          return HAL_TIMEOUT;
 8004a02:	2303      	movs	r3, #3
 8004a04:	e167      	b.n	8004cd6 <HAL_RCC_OscConfig+0x4e2>
      while(__HAL_RCC_GET_FLAG(RCC_FLAG_LSIRDY) == RESET)
 8004a06:	4b0b      	ldr	r3, [pc, #44]	; (8004a34 <HAL_RCC_OscConfig+0x240>)
 8004a08:	6f5b      	ldr	r3, [r3, #116]	; 0x74
 8004a0a:	f003 0302 	and.w	r3, r3, #2
 8004a0e:	2b00      	cmp	r3, #0
 8004a10:	d0f0      	beq.n	80049f4 <HAL_RCC_OscConfig+0x200>
 8004a12:	e01b      	b.n	8004a4c <HAL_RCC_OscConfig+0x258>
      }
    }
    else
    {
      /* Disable the Internal Low Speed oscillator (LSI). */
      __HAL_RCC_LSI_DISABLE();
 8004a14:	4b09      	ldr	r3, [pc, #36]	; (8004a3c <HAL_RCC_OscConfig+0x248>)
 8004a16:	2200      	movs	r2, #0
 8004a18:	601a      	str	r2, [r3, #0]

      /* Get Start Tick */
      tickstart = HAL_GetTick();
 8004a1a:	f7fe fd95 	bl	8003548 <HAL_GetTick>
 8004a1e:	6138      	str	r0, [r7, #16]

      /* Wait till LSI is ready */
      while(__HAL_RCC_GET_FLAG(RCC_FLAG_LSIRDY) != RESET)
 8004a20:	e00e      	b.n	8004a40 <HAL_RCC_OscConfig+0x24c>
      {
        if((HAL_GetTick() - tickstart ) > LSI_TIMEOUT_VALUE)
 8004a22:	f7fe fd91 	bl	8003548 <HAL_GetTick>
 8004a26:	4602      	mov	r2, r0
 8004a28:	693b      	ldr	r3, [r7, #16]
 8004a2a:	1ad3      	subs	r3, r2, r3
 8004a2c:	2b02      	cmp	r3, #2
 8004a2e:	d907      	bls.n	8004a40 <HAL_RCC_OscConfig+0x24c>
        {
          return HAL_TIMEOUT;
 8004a30:	2303      	movs	r3, #3
 8004a32:	e150      	b.n	8004cd6 <HAL_RCC_OscConfig+0x4e2>
 8004a34:	40023800 	.word	0x40023800
 8004a38:	42470000 	.word	0x42470000
 8004a3c:	42470e80 	.word	0x42470e80
      while(__HAL_RCC_GET_FLAG(RCC_FLAG_LSIRDY) != RESET)
 8004a40:	4b88      	ldr	r3, [pc, #544]	; (8004c64 <HAL_RCC_OscConfig+0x470>)
 8004a42:	6f5b      	ldr	r3, [r3, #116]	; 0x74
 8004a44:	f003 0302 	and.w	r3, r3, #2
 8004a48:	2b00      	cmp	r3, #0
 8004a4a:	d1ea      	bne.n	8004a22 <HAL_RCC_OscConfig+0x22e>
        }
      }
    }
  }
  /*------------------------------ LSE Configuration -------------------------*/
  if(((RCC_OscInitStruct->OscillatorType) & RCC_OSCILLATORTYPE_LSE) == RCC_OSCILLATORTYPE_LSE)
 8004a4c:	687b      	ldr	r3, [r7, #4]
 8004a4e:	681b      	ldr	r3, [r3, #0]
 8004a50:	f003 0304 	and.w	r3, r3, #4
 8004a54:	2b00      	cmp	r3, #0
 8004a56:	f000 8097 	beq.w	8004b88 <HAL_RCC_OscConfig+0x394>
  {
    FlagStatus       pwrclkchanged = RESET;
 8004a5a:	2300      	movs	r3, #0
 8004a5c:	75fb      	strb	r3, [r7, #23]
    /* Check the parameters */
    assert_param(IS_RCC_LSE(RCC_OscInitStruct->LSEState));

    /* Update LSE configuration in Backup Domain control register    */
    /* Requires to enable write access to Backup Domain of necessary */
    if(__HAL_RCC_PWR_IS_CLK_DISABLED())
 8004a5e:	4b81      	ldr	r3, [pc, #516]	; (8004c64 <HAL_RCC_OscConfig+0x470>)
 8004a60:	6c1b      	ldr	r3, [r3, #64]	; 0x40
 8004a62:	f003 5380 	and.w	r3, r3, #268435456	; 0x10000000
 8004a66:	2b00      	cmp	r3, #0
 8004a68:	d10f      	bne.n	8004a8a <HAL_RCC_OscConfig+0x296>
    {
      __HAL_RCC_PWR_CLK_ENABLE();
 8004a6a:	2300      	movs	r3, #0
 8004a6c:	60bb      	str	r3, [r7, #8]
 8004a6e:	4b7d      	ldr	r3, [pc, #500]	; (8004c64 <HAL_RCC_OscConfig+0x470>)
 8004a70:	6c1b      	ldr	r3, [r3, #64]	; 0x40
 8004a72:	4a7c      	ldr	r2, [pc, #496]	; (8004c64 <HAL_RCC_OscConfig+0x470>)
 8004a74:	f043 5380 	orr.w	r3, r3, #268435456	; 0x10000000
 8004a78:	6413      	str	r3, [r2, #64]	; 0x40
 8004a7a:	4b7a      	ldr	r3, [pc, #488]	; (8004c64 <HAL_RCC_OscConfig+0x470>)
 8004a7c:	6c1b      	ldr	r3, [r3, #64]	; 0x40
 8004a7e:	f003 5380 	and.w	r3, r3, #268435456	; 0x10000000
 8004a82:	60bb      	str	r3, [r7, #8]
 8004a84:	68bb      	ldr	r3, [r7, #8]
      pwrclkchanged = SET;
 8004a86:	2301      	movs	r3, #1
 8004a88:	75fb      	strb	r3, [r7, #23]
    }

    if(HAL_IS_BIT_CLR(PWR->CR, PWR_CR_DBP))
 8004a8a:	4b77      	ldr	r3, [pc, #476]	; (8004c68 <HAL_RCC_OscConfig+0x474>)
 8004a8c:	681b      	ldr	r3, [r3, #0]
 8004a8e:	f403 7380 	and.w	r3, r3, #256	; 0x100
 8004a92:	2b00      	cmp	r3, #0
 8004a94:	d118      	bne.n	8004ac8 <HAL_RCC_OscConfig+0x2d4>
    {
      /* Enable write access to Backup domain */
      SET_BIT(PWR->CR, PWR_CR_DBP);
 8004a96:	4b74      	ldr	r3, [pc, #464]	; (8004c68 <HAL_RCC_OscConfig+0x474>)
 8004a98:	681b      	ldr	r3, [r3, #0]
 8004a9a:	4a73      	ldr	r2, [pc, #460]	; (8004c68 <HAL_RCC_OscConfig+0x474>)
 8004a9c:	f443 7380 	orr.w	r3, r3, #256	; 0x100
 8004aa0:	6013      	str	r3, [r2, #0]

      /* Wait for Backup domain Write protection disable */
      tickstart = HAL_GetTick();
 8004aa2:	f7fe fd51 	bl	8003548 <HAL_GetTick>
 8004aa6:	6138      	str	r0, [r7, #16]

      while(HAL_IS_BIT_CLR(PWR->CR, PWR_CR_DBP))
 8004aa8:	e008      	b.n	8004abc <HAL_RCC_OscConfig+0x2c8>
      {
        if((HAL_GetTick() - tickstart) > RCC_DBP_TIMEOUT_VALUE)
 8004aaa:	f7fe fd4d 	bl	8003548 <HAL_GetTick>
 8004aae:	4602      	mov	r2, r0
 8004ab0:	693b      	ldr	r3, [r7, #16]
 8004ab2:	1ad3      	subs	r3, r2, r3
 8004ab4:	2b02      	cmp	r3, #2
 8004ab6:	d901      	bls.n	8004abc <HAL_RCC_OscConfig+0x2c8>
        {
          return HAL_TIMEOUT;
 8004ab8:	2303      	movs	r3, #3
 8004aba:	e10c      	b.n	8004cd6 <HAL_RCC_OscConfig+0x4e2>
      while(HAL_IS_BIT_CLR(PWR->CR, PWR_CR_DBP))
 8004abc:	4b6a      	ldr	r3, [pc, #424]	; (8004c68 <HAL_RCC_OscConfig+0x474>)
 8004abe:	681b      	ldr	r3, [r3, #0]
 8004ac0:	f403 7380 	and.w	r3, r3, #256	; 0x100
 8004ac4:	2b00      	cmp	r3, #0
 8004ac6:	d0f0      	beq.n	8004aaa <HAL_RCC_OscConfig+0x2b6>
        }
      }
    }

    /* Set the new LSE configuration -----------------------------------------*/
    __HAL_RCC_LSE_CONFIG(RCC_OscInitStruct->LSEState);
 8004ac8:	687b      	ldr	r3, [r7, #4]
 8004aca:	689b      	ldr	r3, [r3, #8]
 8004acc:	2b01      	cmp	r3, #1
 8004ace:	d106      	bne.n	8004ade <HAL_RCC_OscConfig+0x2ea>
 8004ad0:	4b64      	ldr	r3, [pc, #400]	; (8004c64 <HAL_RCC_OscConfig+0x470>)
 8004ad2:	6f1b      	ldr	r3, [r3, #112]	; 0x70
 8004ad4:	4a63      	ldr	r2, [pc, #396]	; (8004c64 <HAL_RCC_OscConfig+0x470>)
 8004ad6:	f043 0301 	orr.w	r3, r3, #1
 8004ada:	6713      	str	r3, [r2, #112]	; 0x70
 8004adc:	e01c      	b.n	8004b18 <HAL_RCC_OscConfig+0x324>
 8004ade:	687b      	ldr	r3, [r7, #4]
 8004ae0:	689b      	ldr	r3, [r3, #8]
 8004ae2:	2b05      	cmp	r3, #5
 8004ae4:	d10c      	bne.n	8004b00 <HAL_RCC_OscConfig+0x30c>
 8004ae6:	4b5f      	ldr	r3, [pc, #380]	; (8004c64 <HAL_RCC_OscConfig+0x470>)
 8004ae8:	6f1b      	ldr	r3, [r3, #112]	; 0x70
 8004aea:	4a5e      	ldr	r2, [pc, #376]	; (8004c64 <HAL_RCC_OscConfig+0x470>)
 8004aec:	f043 0304 	orr.w	r3, r3, #4
 8004af0:	6713      	str	r3, [r2, #112]	; 0x70
 8004af2:	4b5c      	ldr	r3, [pc, #368]	; (8004c64 <HAL_RCC_OscConfig+0x470>)
 8004af4:	6f1b      	ldr	r3, [r3, #112]	; 0x70
 8004af6:	4a5b      	ldr	r2, [pc, #364]	; (8004c64 <HAL_RCC_OscConfig+0x470>)
 8004af8:	f043 0301 	orr.w	r3, r3, #1
 8004afc:	6713      	str	r3, [r2, #112]	; 0x70
 8004afe:	e00b      	b.n	8004b18 <HAL_RCC_OscConfig+0x324>
 8004b00:	4b58      	ldr	r3, [pc, #352]	; (8004c64 <HAL_RCC_OscConfig+0x470>)
 8004b02:	6f1b      	ldr	r3, [r3, #112]	; 0x70
 8004b04:	4a57      	ldr	r2, [pc, #348]	; (8004c64 <HAL_RCC_OscConfig+0x470>)
 8004b06:	f023 0301 	bic.w	r3, r3, #1
 8004b0a:	6713      	str	r3, [r2, #112]	; 0x70
 8004b0c:	4b55      	ldr	r3, [pc, #340]	; (8004c64 <HAL_RCC_OscConfig+0x470>)
 8004b0e:	6f1b      	ldr	r3, [r3, #112]	; 0x70
 8004b10:	4a54      	ldr	r2, [pc, #336]	; (8004c64 <HAL_RCC_OscConfig+0x470>)
 8004b12:	f023 0304 	bic.w	r3, r3, #4
 8004b16:	6713      	str	r3, [r2, #112]	; 0x70
    /* Check the LSE State */
    if((RCC_OscInitStruct->LSEState) != RCC_LSE_OFF)
 8004b18:	687b      	ldr	r3, [r7, #4]
 8004b1a:	689b      	ldr	r3, [r3, #8]
 8004b1c:	2b00      	cmp	r3, #0
 8004b1e:	d015      	beq.n	8004b4c <HAL_RCC_OscConfig+0x358>
    {
      /* Get Start Tick*/
      tickstart = HAL_GetTick();
 8004b20:	f7fe fd12 	bl	8003548 <HAL_GetTick>
 8004b24:	6138      	str	r0, [r7, #16]

      /* Wait till LSE is ready */
      while(__HAL_RCC_GET_FLAG(RCC_FLAG_LSERDY) == RESET)
 8004b26:	e00a      	b.n	8004b3e <HAL_RCC_OscConfig+0x34a>
      {
        if((HAL_GetTick() - tickstart ) > RCC_LSE_TIMEOUT_VALUE)
 8004b28:	f7fe fd0e 	bl	8003548 <HAL_GetTick>
 8004b2c:	4602      	mov	r2, r0
 8004b2e:	693b      	ldr	r3, [r7, #16]
 8004b30:	1ad3      	subs	r3, r2, r3
 8004b32:	f241 3288 	movw	r2, #5000	; 0x1388
 8004b36:	4293      	cmp	r3, r2
 8004b38:	d901      	bls.n	8004b3e <HAL_RCC_OscConfig+0x34a>
        {
          return HAL_TIMEOUT;
 8004b3a:	2303      	movs	r3, #3
 8004b3c:	e0cb      	b.n	8004cd6 <HAL_RCC_OscConfig+0x4e2>
      while(__HAL_RCC_GET_FLAG(RCC_FLAG_LSERDY) == RESET)
 8004b3e:	4b49      	ldr	r3, [pc, #292]	; (8004c64 <HAL_RCC_OscConfig+0x470>)
 8004b40:	6f1b      	ldr	r3, [r3, #112]	; 0x70
 8004b42:	f003 0302 	and.w	r3, r3, #2
 8004b46:	2b00      	cmp	r3, #0
 8004b48:	d0ee      	beq.n	8004b28 <HAL_RCC_OscConfig+0x334>
 8004b4a:	e014      	b.n	8004b76 <HAL_RCC_OscConfig+0x382>
      }
    }
    else
    {
      /* Get Start Tick */
      tickstart = HAL_GetTick();
 8004b4c:	f7fe fcfc 	bl	8003548 <HAL_GetTick>
 8004b50:	6138      	str	r0, [r7, #16]

      /* Wait till LSE is ready */
      while(__HAL_RCC_GET_FLAG(RCC_FLAG_LSERDY) != RESET)
 8004b52:	e00a      	b.n	8004b6a <HAL_RCC_OscConfig+0x376>
      {
        if((HAL_GetTick() - tickstart ) > RCC_LSE_TIMEOUT_VALUE)
 8004b54:	f7fe fcf8 	bl	8003548 <HAL_GetTick>
 8004b58:	4602      	mov	r2, r0
 8004b5a:	693b      	ldr	r3, [r7, #16]
 8004b5c:	1ad3      	subs	r3, r2, r3
 8004b5e:	f241 3288 	movw	r2, #5000	; 0x1388
 8004b62:	4293      	cmp	r3, r2
 8004b64:	d901      	bls.n	8004b6a <HAL_RCC_OscConfig+0x376>
        {
          return HAL_TIMEOUT;
 8004b66:	2303      	movs	r3, #3
 8004b68:	e0b5      	b.n	8004cd6 <HAL_RCC_OscConfig+0x4e2>
      while(__HAL_RCC_GET_FLAG(RCC_FLAG_LSERDY) != RESET)
 8004b6a:	4b3e      	ldr	r3, [pc, #248]	; (8004c64 <HAL_RCC_OscConfig+0x470>)
 8004b6c:	6f1b      	ldr	r3, [r3, #112]	; 0x70
 8004b6e:	f003 0302 	and.w	r3, r3, #2
 8004b72:	2b00      	cmp	r3, #0
 8004b74:	d1ee      	bne.n	8004b54 <HAL_RCC_OscConfig+0x360>
        }
      }
    }

    /* Restore clock configuration if changed */
    if(pwrclkchanged == SET)
 8004b76:	7dfb      	ldrb	r3, [r7, #23]
 8004b78:	2b01      	cmp	r3, #1
 8004b7a:	d105      	bne.n	8004b88 <HAL_RCC_OscConfig+0x394>
    {
      __HAL_RCC_PWR_CLK_DISABLE();
 8004b7c:	4b39      	ldr	r3, [pc, #228]	; (8004c64 <HAL_RCC_OscConfig+0x470>)
 8004b7e:	6c1b      	ldr	r3, [r3, #64]	; 0x40
 8004b80:	4a38      	ldr	r2, [pc, #224]	; (8004c64 <HAL_RCC_OscConfig+0x470>)
 8004b82:	f023 5380 	bic.w	r3, r3, #268435456	; 0x10000000
 8004b86:	6413      	str	r3, [r2, #64]	; 0x40
    }
  }
  /*-------------------------------- PLL Configuration -----------------------*/
  /* Check the parameters */
  assert_param(IS_RCC_PLL(RCC_OscInitStruct->PLL.PLLState));
  if ((RCC_OscInitStruct->PLL.PLLState) != RCC_PLL_NONE)
 8004b88:	687b      	ldr	r3, [r7, #4]
 8004b8a:	699b      	ldr	r3, [r3, #24]
 8004b8c:	2b00      	cmp	r3, #0
 8004b8e:	f000 80a1 	beq.w	8004cd4 <HAL_RCC_OscConfig+0x4e0>
  {
    /* Check if the PLL is used as system clock or not */
    if(__HAL_RCC_GET_SYSCLK_SOURCE() != RCC_CFGR_SWS_PLL)
 8004b92:	4b34      	ldr	r3, [pc, #208]	; (8004c64 <HAL_RCC_OscConfig+0x470>)
 8004b94:	689b      	ldr	r3, [r3, #8]
 8004b96:	f003 030c 	and.w	r3, r3, #12
 8004b9a:	2b08      	cmp	r3, #8
 8004b9c:	d05c      	beq.n	8004c58 <HAL_RCC_OscConfig+0x464>
    {
      if((RCC_OscInitStruct->PLL.PLLState) == RCC_PLL_ON)
 8004b9e:	687b      	ldr	r3, [r7, #4]
 8004ba0:	699b      	ldr	r3, [r3, #24]
 8004ba2:	2b02      	cmp	r3, #2
 8004ba4:	d141      	bne.n	8004c2a <HAL_RCC_OscConfig+0x436>
        assert_param(IS_RCC_PLLN_VALUE(RCC_OscInitStruct->PLL.PLLN));
        assert_param(IS_RCC_PLLP_VALUE(RCC_OscInitStruct->PLL.PLLP));
        assert_param(IS_RCC_PLLQ_VALUE(RCC_OscInitStruct->PLL.PLLQ));

        /* Disable the main PLL. */
        __HAL_RCC_PLL_DISABLE();
 8004ba6:	4b31      	ldr	r3, [pc, #196]	; (8004c6c <HAL_RCC_OscConfig+0x478>)
 8004ba8:	2200      	movs	r2, #0
 8004baa:	601a      	str	r2, [r3, #0]

        /* Get Start Tick */
        tickstart = HAL_GetTick();
 8004bac:	f7fe fccc 	bl	8003548 <HAL_GetTick>
 8004bb0:	6138      	str	r0, [r7, #16]

        /* Wait till PLL is ready */
        while(__HAL_RCC_GET_FLAG(RCC_FLAG_PLLRDY) != RESET)
 8004bb2:	e008      	b.n	8004bc6 <HAL_RCC_OscConfig+0x3d2>
        {
          if((HAL_GetTick() - tickstart ) > PLL_TIMEOUT_VALUE)
 8004bb4:	f7fe fcc8 	bl	8003548 <HAL_GetTick>
 8004bb8:	4602      	mov	r2, r0
 8004bba:	693b      	ldr	r3, [r7, #16]
 8004bbc:	1ad3      	subs	r3, r2, r3
 8004bbe:	2b02      	cmp	r3, #2
 8004bc0:	d901      	bls.n	8004bc6 <HAL_RCC_OscConfig+0x3d2>
          {
            return HAL_TIMEOUT;
 8004bc2:	2303      	movs	r3, #3
 8004bc4:	e087      	b.n	8004cd6 <HAL_RCC_OscConfig+0x4e2>
        while(__HAL_RCC_GET_FLAG(RCC_FLAG_PLLRDY) != RESET)
 8004bc6:	4b27      	ldr	r3, [pc, #156]	; (8004c64 <HAL_RCC_OscConfig+0x470>)
 8004bc8:	681b      	ldr	r3, [r3, #0]
 8004bca:	f003 7300 	and.w	r3, r3, #33554432	; 0x2000000
 8004bce:	2b00      	cmp	r3, #0
 8004bd0:	d1f0      	bne.n	8004bb4 <HAL_RCC_OscConfig+0x3c0>
          }
        }

        /* Configure the main PLL clock source, multiplication and division factors. */
        WRITE_REG(RCC->PLLCFGR, (RCC_OscInitStruct->PLL.PLLSource                                            | \
 8004bd2:	687b      	ldr	r3, [r7, #4]
 8004bd4:	69da      	ldr	r2, [r3, #28]
 8004bd6:	687b      	ldr	r3, [r7, #4]
 8004bd8:	6a1b      	ldr	r3, [r3, #32]
 8004bda:	431a      	orrs	r2, r3
 8004bdc:	687b      	ldr	r3, [r7, #4]
 8004bde:	6a5b      	ldr	r3, [r3, #36]	; 0x24
 8004be0:	019b      	lsls	r3, r3, #6
 8004be2:	431a      	orrs	r2, r3
 8004be4:	687b      	ldr	r3, [r7, #4]
 8004be6:	6a9b      	ldr	r3, [r3, #40]	; 0x28
 8004be8:	085b      	lsrs	r3, r3, #1
 8004bea:	3b01      	subs	r3, #1
 8004bec:	041b      	lsls	r3, r3, #16
 8004bee:	431a      	orrs	r2, r3
 8004bf0:	687b      	ldr	r3, [r7, #4]
 8004bf2:	6adb      	ldr	r3, [r3, #44]	; 0x2c
 8004bf4:	061b      	lsls	r3, r3, #24
 8004bf6:	491b      	ldr	r1, [pc, #108]	; (8004c64 <HAL_RCC_OscConfig+0x470>)
 8004bf8:	4313      	orrs	r3, r2
 8004bfa:	604b      	str	r3, [r1, #4]
                                 RCC_OscInitStruct->PLL.PLLM                                                 | \
                                 (RCC_OscInitStruct->PLL.PLLN << RCC_PLLCFGR_PLLN_Pos)             | \
                                 (((RCC_OscInitStruct->PLL.PLLP >> 1U) - 1U) << RCC_PLLCFGR_PLLP_Pos) | \
                                 (RCC_OscInitStruct->PLL.PLLQ << RCC_PLLCFGR_PLLQ_Pos)));
        /* Enable the main PLL. */
        __HAL_RCC_PLL_ENABLE();
 8004bfc:	4b1b      	ldr	r3, [pc, #108]	; (8004c6c <HAL_RCC_OscConfig+0x478>)
 8004bfe:	2201      	movs	r2, #1
 8004c00:	601a      	str	r2, [r3, #0]

        /* Get Start Tick */
        tickstart = HAL_GetTick();
 8004c02:	f7fe fca1 	bl	8003548 <HAL_GetTick>
 8004c06:	6138      	str	r0, [r7, #16]

        /* Wait till PLL is ready */
        while(__HAL_RCC_GET_FLAG(RCC_FLAG_PLLRDY) == RESET)
 8004c08:	e008      	b.n	8004c1c <HAL_RCC_OscConfig+0x428>
        {
          if((HAL_GetTick() - tickstart ) > PLL_TIMEOUT_VALUE)
 8004c0a:	f7fe fc9d 	bl	8003548 <HAL_GetTick>
 8004c0e:	4602      	mov	r2, r0
 8004c10:	693b      	ldr	r3, [r7, #16]
 8004c12:	1ad3      	subs	r3, r2, r3
 8004c14:	2b02      	cmp	r3, #2
 8004c16:	d901      	bls.n	8004c1c <HAL_RCC_OscConfig+0x428>
          {
            return HAL_TIMEOUT;
 8004c18:	2303      	movs	r3, #3
 8004c1a:	e05c      	b.n	8004cd6 <HAL_RCC_OscConfig+0x4e2>
        while(__HAL_RCC_GET_FLAG(RCC_FLAG_PLLRDY) == RESET)
 8004c1c:	4b11      	ldr	r3, [pc, #68]	; (8004c64 <HAL_RCC_OscConfig+0x470>)
 8004c1e:	681b      	ldr	r3, [r3, #0]
 8004c20:	f003 7300 	and.w	r3, r3, #33554432	; 0x2000000
 8004c24:	2b00      	cmp	r3, #0
 8004c26:	d0f0      	beq.n	8004c0a <HAL_RCC_OscConfig+0x416>
 8004c28:	e054      	b.n	8004cd4 <HAL_RCC_OscConfig+0x4e0>
        }
      }
      else
      {
        /* Disable the main PLL. */
        __HAL_RCC_PLL_DISABLE();
 8004c2a:	4b10      	ldr	r3, [pc, #64]	; (8004c6c <HAL_RCC_OscConfig+0x478>)
 8004c2c:	2200      	movs	r2, #0
 8004c2e:	601a      	str	r2, [r3, #0]

        /* Get Start Tick */
        tickstart = HAL_GetTick();
 8004c30:	f7fe fc8a 	bl	8003548 <HAL_GetTick>
 8004c34:	6138      	str	r0, [r7, #16]

        /* Wait till PLL is ready */
        while(__HAL_RCC_GET_FLAG(RCC_FLAG_PLLRDY) != RESET)
 8004c36:	e008      	b.n	8004c4a <HAL_RCC_OscConfig+0x456>
        {
          if((HAL_GetTick() - tickstart ) > PLL_TIMEOUT_VALUE)
 8004c38:	f7fe fc86 	bl	8003548 <HAL_GetTick>
 8004c3c:	4602      	mov	r2, r0
 8004c3e:	693b      	ldr	r3, [r7, #16]
 8004c40:	1ad3      	subs	r3, r2, r3
 8004c42:	2b02      	cmp	r3, #2
 8004c44:	d901      	bls.n	8004c4a <HAL_RCC_OscConfig+0x456>
          {
            return HAL_TIMEOUT;
 8004c46:	2303      	movs	r3, #3
 8004c48:	e045      	b.n	8004cd6 <HAL_RCC_OscConfig+0x4e2>
        while(__HAL_RCC_GET_FLAG(RCC_FLAG_PLLRDY) != RESET)
 8004c4a:	4b06      	ldr	r3, [pc, #24]	; (8004c64 <HAL_RCC_OscConfig+0x470>)
 8004c4c:	681b      	ldr	r3, [r3, #0]
 8004c4e:	f003 7300 	and.w	r3, r3, #33554432	; 0x2000000
 8004c52:	2b00      	cmp	r3, #0
 8004c54:	d1f0      	bne.n	8004c38 <HAL_RCC_OscConfig+0x444>
 8004c56:	e03d      	b.n	8004cd4 <HAL_RCC_OscConfig+0x4e0>
      }
    }
    else
    {
      /* Check if there is a request to disable the PLL used as System clock source */
      if((RCC_OscInitStruct->PLL.PLLState) == RCC_PLL_OFF)
 8004c58:	687b      	ldr	r3, [r7, #4]
 8004c5a:	699b      	ldr	r3, [r3, #24]
 8004c5c:	2b01      	cmp	r3, #1
 8004c5e:	d107      	bne.n	8004c70 <HAL_RCC_OscConfig+0x47c>
      {
        return HAL_ERROR;
 8004c60:	2301      	movs	r3, #1
 8004c62:	e038      	b.n	8004cd6 <HAL_RCC_OscConfig+0x4e2>
 8004c64:	40023800 	.word	0x40023800
 8004c68:	40007000 	.word	0x40007000
 8004c6c:	42470060 	.word	0x42470060
      }
      else
      {
        /* Do not return HAL_ERROR if request repeats the current configuration */
        pll_config = RCC->PLLCFGR;
 8004c70:	4b1b      	ldr	r3, [pc, #108]	; (8004ce0 <HAL_RCC_OscConfig+0x4ec>)
 8004c72:	685b      	ldr	r3, [r3, #4]
 8004c74:	60fb      	str	r3, [r7, #12]
            (READ_BIT(pll_config, RCC_PLLCFGR_PLLN) != (RCC_OscInitStruct->PLL.PLLN) << RCC_PLLCFGR_PLLN_Pos) ||
            (READ_BIT(pll_config, RCC_PLLCFGR_PLLP) != (((RCC_OscInitStruct->PLL.PLLP >> 1U) - 1U)) << RCC_PLLCFGR_PLLP_Pos) ||
            (READ_BIT(pll_config, RCC_PLLCFGR_PLLQ) != (RCC_OscInitStruct->PLL.PLLQ << RCC_PLLCFGR_PLLQ_Pos)) ||
            (READ_BIT(pll_config, RCC_PLLCFGR_PLLR) != (RCC_OscInitStruct->PLL.PLLR << RCC_PLLCFGR_PLLR_Pos)))
#else
        if (((RCC_OscInitStruct->PLL.PLLState) == RCC_PLL_OFF) ||
 8004c76:	687b      	ldr	r3, [r7, #4]
 8004c78:	699b      	ldr	r3, [r3, #24]
 8004c7a:	2b01      	cmp	r3, #1
 8004c7c:	d028      	beq.n	8004cd0 <HAL_RCC_OscConfig+0x4dc>
            (READ_BIT(pll_config, RCC_PLLCFGR_PLLSRC) != RCC_OscInitStruct->PLL.PLLSource) ||
 8004c7e:	68fb      	ldr	r3, [r7, #12]
 8004c80:	f403 0280 	and.w	r2, r3, #4194304	; 0x400000
 8004c84:	687b      	ldr	r3, [r7, #4]
 8004c86:	69db      	ldr	r3, [r3, #28]
        if (((RCC_OscInitStruct->PLL.PLLState) == RCC_PLL_OFF) ||
 8004c88:	429a      	cmp	r2, r3
 8004c8a:	d121      	bne.n	8004cd0 <HAL_RCC_OscConfig+0x4dc>
            (READ_BIT(pll_config, RCC_PLLCFGR_PLLM) != (RCC_OscInitStruct->PLL.PLLM) << RCC_PLLCFGR_PLLM_Pos) ||
 8004c8c:	68fb      	ldr	r3, [r7, #12]
 8004c8e:	f003 023f 	and.w	r2, r3, #63	; 0x3f
 8004c92:	687b      	ldr	r3, [r7, #4]
 8004c94:	6a1b      	ldr	r3, [r3, #32]
            (READ_BIT(pll_config, RCC_PLLCFGR_PLLSRC) != RCC_OscInitStruct->PLL.PLLSource) ||
 8004c96:	429a      	cmp	r2, r3
 8004c98:	d11a      	bne.n	8004cd0 <HAL_RCC_OscConfig+0x4dc>
            (READ_BIT(pll_config, RCC_PLLCFGR_PLLN) != (RCC_OscInitStruct->PLL.PLLN) << RCC_PLLCFGR_PLLN_Pos) ||
 8004c9a:	68fa      	ldr	r2, [r7, #12]
 8004c9c:	f647 73c0 	movw	r3, #32704	; 0x7fc0
 8004ca0:	4013      	ands	r3, r2
 8004ca2:	687a      	ldr	r2, [r7, #4]
 8004ca4:	6a52      	ldr	r2, [r2, #36]	; 0x24
 8004ca6:	0192      	lsls	r2, r2, #6
            (READ_BIT(pll_config, RCC_PLLCFGR_PLLM) != (RCC_OscInitStruct->PLL.PLLM) << RCC_PLLCFGR_PLLM_Pos) ||
 8004ca8:	4293      	cmp	r3, r2
 8004caa:	d111      	bne.n	8004cd0 <HAL_RCC_OscConfig+0x4dc>
            (READ_BIT(pll_config, RCC_PLLCFGR_PLLP) != (((RCC_OscInitStruct->PLL.PLLP >> 1U) - 1U)) << RCC_PLLCFGR_PLLP_Pos) ||
 8004cac:	68fb      	ldr	r3, [r7, #12]
 8004cae:	f403 3240 	and.w	r2, r3, #196608	; 0x30000
 8004cb2:	687b      	ldr	r3, [r7, #4]
 8004cb4:	6a9b      	ldr	r3, [r3, #40]	; 0x28
 8004cb6:	085b      	lsrs	r3, r3, #1
 8004cb8:	3b01      	subs	r3, #1
 8004cba:	041b      	lsls	r3, r3, #16
            (READ_BIT(pll_config, RCC_PLLCFGR_PLLN) != (RCC_OscInitStruct->PLL.PLLN) << RCC_PLLCFGR_PLLN_Pos) ||
 8004cbc:	429a      	cmp	r2, r3
 8004cbe:	d107      	bne.n	8004cd0 <HAL_RCC_OscConfig+0x4dc>
            (READ_BIT(pll_config, RCC_PLLCFGR_PLLQ) != (RCC_OscInitStruct->PLL.PLLQ << RCC_PLLCFGR_PLLQ_Pos)))
 8004cc0:	68fb      	ldr	r3, [r7, #12]
 8004cc2:	f003 6270 	and.w	r2, r3, #251658240	; 0xf000000
 8004cc6:	687b      	ldr	r3, [r7, #4]
 8004cc8:	6adb      	ldr	r3, [r3, #44]	; 0x2c
 8004cca:	061b      	lsls	r3, r3, #24
            (READ_BIT(pll_config, RCC_PLLCFGR_PLLP) != (((RCC_OscInitStruct->PLL.PLLP >> 1U) - 1U)) << RCC_PLLCFGR_PLLP_Pos) ||
 8004ccc:	429a      	cmp	r2, r3
 8004cce:	d001      	beq.n	8004cd4 <HAL_RCC_OscConfig+0x4e0>
#endif
        {
          return HAL_ERROR;
 8004cd0:	2301      	movs	r3, #1
 8004cd2:	e000      	b.n	8004cd6 <HAL_RCC_OscConfig+0x4e2>
        }
      }
    }
  }
  return HAL_OK;
 8004cd4:	2300      	movs	r3, #0
}
 8004cd6:	4618      	mov	r0, r3
 8004cd8:	3718      	adds	r7, #24
 8004cda:	46bd      	mov	sp, r7
 8004cdc:	bd80      	pop	{r7, pc}
 8004cde:	bf00      	nop
 8004ce0:	40023800 	.word	0x40023800

08004ce4 <HAL_RCC_ClockConfig>:
  *         HPRE[3:0] bits to ensure that HCLK not exceed the maximum allowed frequency
  *         (for more details refer to section above "Initialization/de-initialization functions")
  * @retval None
  */
HAL_StatusTypeDef HAL_RCC_ClockConfig(RCC_ClkInitTypeDef  *RCC_ClkInitStruct, uint32_t FLatency)
{
 8004ce4:	b580      	push	{r7, lr}
 8004ce6:	b084      	sub	sp, #16
 8004ce8:	af00      	add	r7, sp, #0
 8004cea:	6078      	str	r0, [r7, #4]
 8004cec:	6039      	str	r1, [r7, #0]
  uint32_t tickstart;

  /* Check Null pointer */
  if(RCC_ClkInitStruct == NULL)
 8004cee:	687b      	ldr	r3, [r7, #4]
 8004cf0:	2b00      	cmp	r3, #0
 8004cf2:	d101      	bne.n	8004cf8 <HAL_RCC_ClockConfig+0x14>
  {
    return HAL_ERROR;
 8004cf4:	2301      	movs	r3, #1
 8004cf6:	e0cc      	b.n	8004e92 <HAL_RCC_ClockConfig+0x1ae>
  /* To correctly read data from FLASH memory, the number of wait states (LATENCY)
    must be correctly programmed according to the frequency of the CPU clock
    (HCLK) and the supply voltage of the device. */

  /* Increasing the number of wait states because of higher CPU frequency */
  if(FLatency > __HAL_FLASH_GET_LATENCY())
 8004cf8:	4b68      	ldr	r3, [pc, #416]	; (8004e9c <HAL_RCC_ClockConfig+0x1b8>)
 8004cfa:	681b      	ldr	r3, [r3, #0]
 8004cfc:	f003 0307 	and.w	r3, r3, #7
 8004d00:	683a      	ldr	r2, [r7, #0]
 8004d02:	429a      	cmp	r2, r3
 8004d04:	d90c      	bls.n	8004d20 <HAL_RCC_ClockConfig+0x3c>
  {
    /* Program the new number of wait states to the LATENCY bits in the FLASH_ACR register */
    __HAL_FLASH_SET_LATENCY(FLatency);
 8004d06:	4b65      	ldr	r3, [pc, #404]	; (8004e9c <HAL_RCC_ClockConfig+0x1b8>)
 8004d08:	683a      	ldr	r2, [r7, #0]
 8004d0a:	b2d2      	uxtb	r2, r2
 8004d0c:	701a      	strb	r2, [r3, #0]

    /* Check that the new number of wait states is taken into account to access the Flash
    memory by reading the FLASH_ACR register */
    if(__HAL_FLASH_GET_LATENCY() != FLatency)
 8004d0e:	4b63      	ldr	r3, [pc, #396]	; (8004e9c <HAL_RCC_ClockConfig+0x1b8>)
 8004d10:	681b      	ldr	r3, [r3, #0]
 8004d12:	f003 0307 	and.w	r3, r3, #7
 8004d16:	683a      	ldr	r2, [r7, #0]
 8004d18:	429a      	cmp	r2, r3
 8004d1a:	d001      	beq.n	8004d20 <HAL_RCC_ClockConfig+0x3c>
    {
      return HAL_ERROR;
 8004d1c:	2301      	movs	r3, #1
 8004d1e:	e0b8      	b.n	8004e92 <HAL_RCC_ClockConfig+0x1ae>
    }
  }

  /*-------------------------- HCLK Configuration --------------------------*/
  if(((RCC_ClkInitStruct->ClockType) & RCC_CLOCKTYPE_HCLK) == RCC_CLOCKTYPE_HCLK)
 8004d20:	687b      	ldr	r3, [r7, #4]
 8004d22:	681b      	ldr	r3, [r3, #0]
 8004d24:	f003 0302 	and.w	r3, r3, #2
 8004d28:	2b00      	cmp	r3, #0
 8004d2a:	d020      	beq.n	8004d6e <HAL_RCC_ClockConfig+0x8a>
  {
    /* Set the highest APBx dividers in order to ensure that we do not go through
       a non-spec phase whatever we decrease or increase HCLK. */
    if(((RCC_ClkInitStruct->ClockType) & RCC_CLOCKTYPE_PCLK1) == RCC_CLOCKTYPE_PCLK1)
 8004d2c:	687b      	ldr	r3, [r7, #4]
 8004d2e:	681b      	ldr	r3, [r3, #0]
 8004d30:	f003 0304 	and.w	r3, r3, #4
 8004d34:	2b00      	cmp	r3, #0
 8004d36:	d005      	beq.n	8004d44 <HAL_RCC_ClockConfig+0x60>
    {
      MODIFY_REG(RCC->CFGR, RCC_CFGR_PPRE1, RCC_HCLK_DIV16);
 8004d38:	4b59      	ldr	r3, [pc, #356]	; (8004ea0 <HAL_RCC_ClockConfig+0x1bc>)
 8004d3a:	689b      	ldr	r3, [r3, #8]
 8004d3c:	4a58      	ldr	r2, [pc, #352]	; (8004ea0 <HAL_RCC_ClockConfig+0x1bc>)
 8004d3e:	f443 53e0 	orr.w	r3, r3, #7168	; 0x1c00
 8004d42:	6093      	str	r3, [r2, #8]
    }

    if(((RCC_ClkInitStruct->ClockType) & RCC_CLOCKTYPE_PCLK2) == RCC_CLOCKTYPE_PCLK2)
 8004d44:	687b      	ldr	r3, [r7, #4]
 8004d46:	681b      	ldr	r3, [r3, #0]
 8004d48:	f003 0308 	and.w	r3, r3, #8
 8004d4c:	2b00      	cmp	r3, #0
 8004d4e:	d005      	beq.n	8004d5c <HAL_RCC_ClockConfig+0x78>
    {
      MODIFY_REG(RCC->CFGR, RCC_CFGR_PPRE2, (RCC_HCLK_DIV16 << 3));
 8004d50:	4b53      	ldr	r3, [pc, #332]	; (8004ea0 <HAL_RCC_ClockConfig+0x1bc>)
 8004d52:	689b      	ldr	r3, [r3, #8]
 8004d54:	4a52      	ldr	r2, [pc, #328]	; (8004ea0 <HAL_RCC_ClockConfig+0x1bc>)
 8004d56:	f443 4360 	orr.w	r3, r3, #57344	; 0xe000
 8004d5a:	6093      	str	r3, [r2, #8]
    }

    assert_param(IS_RCC_HCLK(RCC_ClkInitStruct->AHBCLKDivider));
    MODIFY_REG(RCC->CFGR, RCC_CFGR_HPRE, RCC_ClkInitStruct->AHBCLKDivider);
 8004d5c:	4b50      	ldr	r3, [pc, #320]	; (8004ea0 <HAL_RCC_ClockConfig+0x1bc>)
 8004d5e:	689b      	ldr	r3, [r3, #8]
 8004d60:	f023 02f0 	bic.w	r2, r3, #240	; 0xf0
 8004d64:	687b      	ldr	r3, [r7, #4]
 8004d66:	689b      	ldr	r3, [r3, #8]
 8004d68:	494d      	ldr	r1, [pc, #308]	; (8004ea0 <HAL_RCC_ClockConfig+0x1bc>)
 8004d6a:	4313      	orrs	r3, r2
 8004d6c:	608b      	str	r3, [r1, #8]
  }

  /*------------------------- SYSCLK Configuration ---------------------------*/
  if(((RCC_ClkInitStruct->ClockType) & RCC_CLOCKTYPE_SYSCLK) == RCC_CLOCKTYPE_SYSCLK)
 8004d6e:	687b      	ldr	r3, [r7, #4]
 8004d70:	681b      	ldr	r3, [r3, #0]
 8004d72:	f003 0301 	and.w	r3, r3, #1
 8004d76:	2b00      	cmp	r3, #0
 8004d78:	d044      	beq.n	8004e04 <HAL_RCC_ClockConfig+0x120>
  {
    assert_param(IS_RCC_SYSCLKSOURCE(RCC_ClkInitStruct->SYSCLKSource));

    /* HSE is selected as System Clock Source */
    if(RCC_ClkInitStruct->SYSCLKSource == RCC_SYSCLKSOURCE_HSE)
 8004d7a:	687b      	ldr	r3, [r7, #4]
 8004d7c:	685b      	ldr	r3, [r3, #4]
 8004d7e:	2b01      	cmp	r3, #1
 8004d80:	d107      	bne.n	8004d92 <HAL_RCC_ClockConfig+0xae>
    {
      /* Check the HSE ready flag */
      if(__HAL_RCC_GET_FLAG(RCC_FLAG_HSERDY) == RESET)
 8004d82:	4b47      	ldr	r3, [pc, #284]	; (8004ea0 <HAL_RCC_ClockConfig+0x1bc>)
 8004d84:	681b      	ldr	r3, [r3, #0]
 8004d86:	f403 3300 	and.w	r3, r3, #131072	; 0x20000
 8004d8a:	2b00      	cmp	r3, #0
 8004d8c:	d119      	bne.n	8004dc2 <HAL_RCC_ClockConfig+0xde>
      {
        return HAL_ERROR;
 8004d8e:	2301      	movs	r3, #1
 8004d90:	e07f      	b.n	8004e92 <HAL_RCC_ClockConfig+0x1ae>
      }
    }
    /* PLL is selected as System Clock Source */
    else if((RCC_ClkInitStruct->SYSCLKSource == RCC_SYSCLKSOURCE_PLLCLK)   ||
 8004d92:	687b      	ldr	r3, [r7, #4]
 8004d94:	685b      	ldr	r3, [r3, #4]
 8004d96:	2b02      	cmp	r3, #2
 8004d98:	d003      	beq.n	8004da2 <HAL_RCC_ClockConfig+0xbe>
            (RCC_ClkInitStruct->SYSCLKSource == RCC_SYSCLKSOURCE_PLLRCLK))
 8004d9a:	687b      	ldr	r3, [r7, #4]
 8004d9c:	685b      	ldr	r3, [r3, #4]
    else if((RCC_ClkInitStruct->SYSCLKSource == RCC_SYSCLKSOURCE_PLLCLK)   ||
 8004d9e:	2b03      	cmp	r3, #3
 8004da0:	d107      	bne.n	8004db2 <HAL_RCC_ClockConfig+0xce>
    {
      /* Check the PLL ready flag */
      if(__HAL_RCC_GET_FLAG(RCC_FLAG_PLLRDY) == RESET)
 8004da2:	4b3f      	ldr	r3, [pc, #252]	; (8004ea0 <HAL_RCC_ClockConfig+0x1bc>)
 8004da4:	681b      	ldr	r3, [r3, #0]
 8004da6:	f003 7300 	and.w	r3, r3, #33554432	; 0x2000000
 8004daa:	2b00      	cmp	r3, #0
 8004dac:	d109      	bne.n	8004dc2 <HAL_RCC_ClockConfig+0xde>
      {
        return HAL_ERROR;
 8004dae:	2301      	movs	r3, #1
 8004db0:	e06f      	b.n	8004e92 <HAL_RCC_ClockConfig+0x1ae>
    }
    /* HSI is selected as System Clock Source */
    else
    {
      /* Check the HSI ready flag */
      if(__HAL_RCC_GET_FLAG(RCC_FLAG_HSIRDY) == RESET)
 8004db2:	4b3b      	ldr	r3, [pc, #236]	; (8004ea0 <HAL_RCC_ClockConfig+0x1bc>)
 8004db4:	681b      	ldr	r3, [r3, #0]
 8004db6:	f003 0302 	and.w	r3, r3, #2
 8004dba:	2b00      	cmp	r3, #0
 8004dbc:	d101      	bne.n	8004dc2 <HAL_RCC_ClockConfig+0xde>
      {
        return HAL_ERROR;
 8004dbe:	2301      	movs	r3, #1
 8004dc0:	e067      	b.n	8004e92 <HAL_RCC_ClockConfig+0x1ae>
      }
    }

    __HAL_RCC_SYSCLK_CONFIG(RCC_ClkInitStruct->SYSCLKSource);
 8004dc2:	4b37      	ldr	r3, [pc, #220]	; (8004ea0 <HAL_RCC_ClockConfig+0x1bc>)
 8004dc4:	689b      	ldr	r3, [r3, #8]
 8004dc6:	f023 0203 	bic.w	r2, r3, #3
 8004dca:	687b      	ldr	r3, [r7, #4]
 8004dcc:	685b      	ldr	r3, [r3, #4]
 8004dce:	4934      	ldr	r1, [pc, #208]	; (8004ea0 <HAL_RCC_ClockConfig+0x1bc>)
 8004dd0:	4313      	orrs	r3, r2
 8004dd2:	608b      	str	r3, [r1, #8]

    /* Get Start Tick */
    tickstart = HAL_GetTick();
 8004dd4:	f7fe fbb8 	bl	8003548 <HAL_GetTick>
 8004dd8:	60f8      	str	r0, [r7, #12]

    while (__HAL_RCC_GET_SYSCLK_SOURCE() != (RCC_ClkInitStruct->SYSCLKSource << RCC_CFGR_SWS_Pos))
 8004dda:	e00a      	b.n	8004df2 <HAL_RCC_ClockConfig+0x10e>
    {
      if ((HAL_GetTick() - tickstart) > CLOCKSWITCH_TIMEOUT_VALUE)
 8004ddc:	f7fe fbb4 	bl	8003548 <HAL_GetTick>
 8004de0:	4602      	mov	r2, r0
 8004de2:	68fb      	ldr	r3, [r7, #12]
 8004de4:	1ad3      	subs	r3, r2, r3
 8004de6:	f241 3288 	movw	r2, #5000	; 0x1388
 8004dea:	4293      	cmp	r3, r2
 8004dec:	d901      	bls.n	8004df2 <HAL_RCC_ClockConfig+0x10e>
      {
        return HAL_TIMEOUT;
 8004dee:	2303      	movs	r3, #3
 8004df0:	e04f      	b.n	8004e92 <HAL_RCC_ClockConfig+0x1ae>
    while (__HAL_RCC_GET_SYSCLK_SOURCE() != (RCC_ClkInitStruct->SYSCLKSource << RCC_CFGR_SWS_Pos))
 8004df2:	4b2b      	ldr	r3, [pc, #172]	; (8004ea0 <HAL_RCC_ClockConfig+0x1bc>)
 8004df4:	689b      	ldr	r3, [r3, #8]
 8004df6:	f003 020c 	and.w	r2, r3, #12
 8004dfa:	687b      	ldr	r3, [r7, #4]
 8004dfc:	685b      	ldr	r3, [r3, #4]
 8004dfe:	009b      	lsls	r3, r3, #2
 8004e00:	429a      	cmp	r2, r3
 8004e02:	d1eb      	bne.n	8004ddc <HAL_RCC_ClockConfig+0xf8>
      }
    }
  }

  /* Decreasing the number of wait states because of lower CPU frequency */
  if(FLatency < __HAL_FLASH_GET_LATENCY())
 8004e04:	4b25      	ldr	r3, [pc, #148]	; (8004e9c <HAL_RCC_ClockConfig+0x1b8>)
 8004e06:	681b      	ldr	r3, [r3, #0]
 8004e08:	f003 0307 	and.w	r3, r3, #7
 8004e0c:	683a      	ldr	r2, [r7, #0]
 8004e0e:	429a      	cmp	r2, r3
 8004e10:	d20c      	bcs.n	8004e2c <HAL_RCC_ClockConfig+0x148>
  {
     /* Program the new number of wait states to the LATENCY bits in the FLASH_ACR register */
    __HAL_FLASH_SET_LATENCY(FLatency);
 8004e12:	4b22      	ldr	r3, [pc, #136]	; (8004e9c <HAL_RCC_ClockConfig+0x1b8>)
 8004e14:	683a      	ldr	r2, [r7, #0]
 8004e16:	b2d2      	uxtb	r2, r2
 8004e18:	701a      	strb	r2, [r3, #0]

    /* Check that the new number of wait states is taken into account to access the Flash
    memory by reading the FLASH_ACR register */
    if(__HAL_FLASH_GET_LATENCY() != FLatency)
 8004e1a:	4b20      	ldr	r3, [pc, #128]	; (8004e9c <HAL_RCC_ClockConfig+0x1b8>)
 8004e1c:	681b      	ldr	r3, [r3, #0]
 8004e1e:	f003 0307 	and.w	r3, r3, #7
 8004e22:	683a      	ldr	r2, [r7, #0]
 8004e24:	429a      	cmp	r2, r3
 8004e26:	d001      	beq.n	8004e2c <HAL_RCC_ClockConfig+0x148>
    {
      return HAL_ERROR;
 8004e28:	2301      	movs	r3, #1
 8004e2a:	e032      	b.n	8004e92 <HAL_RCC_ClockConfig+0x1ae>
    }
  }

  /*-------------------------- PCLK1 Configuration ---------------------------*/
  if(((RCC_ClkInitStruct->ClockType) & RCC_CLOCKTYPE_PCLK1) == RCC_CLOCKTYPE_PCLK1)
 8004e2c:	687b      	ldr	r3, [r7, #4]
 8004e2e:	681b      	ldr	r3, [r3, #0]
 8004e30:	f003 0304 	and.w	r3, r3, #4
 8004e34:	2b00      	cmp	r3, #0
 8004e36:	d008      	beq.n	8004e4a <HAL_RCC_ClockConfig+0x166>
  {
    assert_param(IS_RCC_PCLK(RCC_ClkInitStruct->APB1CLKDivider));
    MODIFY_REG(RCC->CFGR, RCC_CFGR_PPRE1, RCC_ClkInitStruct->APB1CLKDivider);
 8004e38:	4b19      	ldr	r3, [pc, #100]	; (8004ea0 <HAL_RCC_ClockConfig+0x1bc>)
 8004e3a:	689b      	ldr	r3, [r3, #8]
 8004e3c:	f423 52e0 	bic.w	r2, r3, #7168	; 0x1c00
 8004e40:	687b      	ldr	r3, [r7, #4]
 8004e42:	68db      	ldr	r3, [r3, #12]
 8004e44:	4916      	ldr	r1, [pc, #88]	; (8004ea0 <HAL_RCC_ClockConfig+0x1bc>)
 8004e46:	4313      	orrs	r3, r2
 8004e48:	608b      	str	r3, [r1, #8]
  }

  /*-------------------------- PCLK2 Configuration ---------------------------*/
  if(((RCC_ClkInitStruct->ClockType) & RCC_CLOCKTYPE_PCLK2) == RCC_CLOCKTYPE_PCLK2)
 8004e4a:	687b      	ldr	r3, [r7, #4]
 8004e4c:	681b      	ldr	r3, [r3, #0]
 8004e4e:	f003 0308 	and.w	r3, r3, #8
 8004e52:	2b00      	cmp	r3, #0
 8004e54:	d009      	beq.n	8004e6a <HAL_RCC_ClockConfig+0x186>
  {
    assert_param(IS_RCC_PCLK(RCC_ClkInitStruct->APB2CLKDivider));
    MODIFY_REG(RCC->CFGR, RCC_CFGR_PPRE2, ((RCC_ClkInitStruct->APB2CLKDivider) << 3U));
 8004e56:	4b12      	ldr	r3, [pc, #72]	; (8004ea0 <HAL_RCC_ClockConfig+0x1bc>)
 8004e58:	689b      	ldr	r3, [r3, #8]
 8004e5a:	f423 4260 	bic.w	r2, r3, #57344	; 0xe000
 8004e5e:	687b      	ldr	r3, [r7, #4]
 8004e60:	691b      	ldr	r3, [r3, #16]
 8004e62:	00db      	lsls	r3, r3, #3
 8004e64:	490e      	ldr	r1, [pc, #56]	; (8004ea0 <HAL_RCC_ClockConfig+0x1bc>)
 8004e66:	4313      	orrs	r3, r2
 8004e68:	608b      	str	r3, [r1, #8]
  }

  /* Update the SystemCoreClock global variable */
  SystemCoreClock = HAL_RCC_GetSysClockFreq() >> AHBPrescTable[(RCC->CFGR & RCC_CFGR_HPRE)>> RCC_CFGR_HPRE_Pos];
 8004e6a:	f000 f821 	bl	8004eb0 <HAL_RCC_GetSysClockFreq>
 8004e6e:	4602      	mov	r2, r0
 8004e70:	4b0b      	ldr	r3, [pc, #44]	; (8004ea0 <HAL_RCC_ClockConfig+0x1bc>)
 8004e72:	689b      	ldr	r3, [r3, #8]
 8004e74:	091b      	lsrs	r3, r3, #4
 8004e76:	f003 030f 	and.w	r3, r3, #15
 8004e7a:	490a      	ldr	r1, [pc, #40]	; (8004ea4 <HAL_RCC_ClockConfig+0x1c0>)
 8004e7c:	5ccb      	ldrb	r3, [r1, r3]
 8004e7e:	fa22 f303 	lsr.w	r3, r2, r3
 8004e82:	4a09      	ldr	r2, [pc, #36]	; (8004ea8 <HAL_RCC_ClockConfig+0x1c4>)
 8004e84:	6013      	str	r3, [r2, #0]

  /* Configure the source of time base considering new system clocks settings */
  HAL_InitTick (uwTickPrio);
 8004e86:	4b09      	ldr	r3, [pc, #36]	; (8004eac <HAL_RCC_ClockConfig+0x1c8>)
 8004e88:	681b      	ldr	r3, [r3, #0]
 8004e8a:	4618      	mov	r0, r3
 8004e8c:	f7fe fb18 	bl	80034c0 <HAL_InitTick>

  return HAL_OK;
 8004e90:	2300      	movs	r3, #0
}
 8004e92:	4618      	mov	r0, r3
 8004e94:	3710      	adds	r7, #16
 8004e96:	46bd      	mov	sp, r7
 8004e98:	bd80      	pop	{r7, pc}
 8004e9a:	bf00      	nop
 8004e9c:	40023c00 	.word	0x40023c00
 8004ea0:	40023800 	.word	0x40023800
 8004ea4:	0800673c 	.word	0x0800673c
 8004ea8:	20000000 	.word	0x20000000
 8004eac:	20000004 	.word	0x20000004

08004eb0 <HAL_RCC_GetSysClockFreq>:
  *
  *
  * @retval SYSCLK frequency
  */
__weak uint32_t HAL_RCC_GetSysClockFreq(void)
{
 8004eb0:	e92d 4fb0 	stmdb	sp!, {r4, r5, r7, r8, r9, sl, fp, lr}
 8004eb4:	b094      	sub	sp, #80	; 0x50
 8004eb6:	af00      	add	r7, sp, #0
  uint32_t pllm = 0U, pllvco = 0U, pllp = 0U;
 8004eb8:	2300      	movs	r3, #0
 8004eba:	647b      	str	r3, [r7, #68]	; 0x44
 8004ebc:	2300      	movs	r3, #0
 8004ebe:	64fb      	str	r3, [r7, #76]	; 0x4c
 8004ec0:	2300      	movs	r3, #0
 8004ec2:	643b      	str	r3, [r7, #64]	; 0x40
  uint32_t sysclockfreq = 0U;
 8004ec4:	2300      	movs	r3, #0
 8004ec6:	64bb      	str	r3, [r7, #72]	; 0x48

  /* Get SYSCLK source -------------------------------------------------------*/
  switch (RCC->CFGR & RCC_CFGR_SWS)
 8004ec8:	4b79      	ldr	r3, [pc, #484]	; (80050b0 <HAL_RCC_GetSysClockFreq+0x200>)
 8004eca:	689b      	ldr	r3, [r3, #8]
 8004ecc:	f003 030c 	and.w	r3, r3, #12
 8004ed0:	2b08      	cmp	r3, #8
 8004ed2:	d00d      	beq.n	8004ef0 <HAL_RCC_GetSysClockFreq+0x40>
 8004ed4:	2b08      	cmp	r3, #8
 8004ed6:	f200 80e1 	bhi.w	800509c <HAL_RCC_GetSysClockFreq+0x1ec>
 8004eda:	2b00      	cmp	r3, #0
 8004edc:	d002      	beq.n	8004ee4 <HAL_RCC_GetSysClockFreq+0x34>
 8004ede:	2b04      	cmp	r3, #4
 8004ee0:	d003      	beq.n	8004eea <HAL_RCC_GetSysClockFreq+0x3a>
 8004ee2:	e0db      	b.n	800509c <HAL_RCC_GetSysClockFreq+0x1ec>
  {
    case RCC_CFGR_SWS_HSI:  /* HSI used as system clock source */
    {
      sysclockfreq = HSI_VALUE;
 8004ee4:	4b73      	ldr	r3, [pc, #460]	; (80050b4 <HAL_RCC_GetSysClockFreq+0x204>)
 8004ee6:	64bb      	str	r3, [r7, #72]	; 0x48
       break;
 8004ee8:	e0db      	b.n	80050a2 <HAL_RCC_GetSysClockFreq+0x1f2>
    }
    case RCC_CFGR_SWS_HSE:  /* HSE used as system clock  source */
    {
      sysclockfreq = HSE_VALUE;
 8004eea:	4b73      	ldr	r3, [pc, #460]	; (80050b8 <HAL_RCC_GetSysClockFreq+0x208>)
 8004eec:	64bb      	str	r3, [r7, #72]	; 0x48
      break;
 8004eee:	e0d8      	b.n	80050a2 <HAL_RCC_GetSysClockFreq+0x1f2>
    }
    case RCC_CFGR_SWS_PLL:  /* PLL used as system clock  source */
    {
      /* PLL_VCO = (HSE_VALUE or HSI_VALUE / PLLM) * PLLN
      SYSCLK = PLL_VCO / PLLP */
      pllm = RCC->PLLCFGR & RCC_PLLCFGR_PLLM;
 8004ef0:	4b6f      	ldr	r3, [pc, #444]	; (80050b0 <HAL_RCC_GetSysClockFreq+0x200>)
 8004ef2:	685b      	ldr	r3, [r3, #4]
 8004ef4:	f003 033f 	and.w	r3, r3, #63	; 0x3f
 8004ef8:	647b      	str	r3, [r7, #68]	; 0x44
      if(__HAL_RCC_GET_PLL_OSCSOURCE() != RCC_PLLSOURCE_HSI)
 8004efa:	4b6d      	ldr	r3, [pc, #436]	; (80050b0 <HAL_RCC_GetSysClockFreq+0x200>)
 8004efc:	685b      	ldr	r3, [r3, #4]
 8004efe:	f403 0380 	and.w	r3, r3, #4194304	; 0x400000
 8004f02:	2b00      	cmp	r3, #0
 8004f04:	d063      	beq.n	8004fce <HAL_RCC_GetSysClockFreq+0x11e>
      {
        /* HSE used as PLL clock source */
        pllvco = (uint32_t) ((((uint64_t) HSE_VALUE * ((uint64_t) ((RCC->PLLCFGR & RCC_PLLCFGR_PLLN) >> RCC_PLLCFGR_PLLN_Pos)))) / (uint64_t)pllm);
 8004f06:	4b6a      	ldr	r3, [pc, #424]	; (80050b0 <HAL_RCC_GetSysClockFreq+0x200>)
 8004f08:	685b      	ldr	r3, [r3, #4]
 8004f0a:	099b      	lsrs	r3, r3, #6
 8004f0c:	2200      	movs	r2, #0
 8004f0e:	63bb      	str	r3, [r7, #56]	; 0x38
 8004f10:	63fa      	str	r2, [r7, #60]	; 0x3c
 8004f12:	6bbb      	ldr	r3, [r7, #56]	; 0x38
 8004f14:	f3c3 0308 	ubfx	r3, r3, #0, #9
 8004f18:	633b      	str	r3, [r7, #48]	; 0x30
 8004f1a:	2300      	movs	r3, #0
 8004f1c:	637b      	str	r3, [r7, #52]	; 0x34
 8004f1e:	e9d7 450c 	ldrd	r4, r5, [r7, #48]	; 0x30
 8004f22:	4622      	mov	r2, r4
 8004f24:	462b      	mov	r3, r5
 8004f26:	f04f 0000 	mov.w	r0, #0
 8004f2a:	f04f 0100 	mov.w	r1, #0
 8004f2e:	0159      	lsls	r1, r3, #5
 8004f30:	ea41 61d2 	orr.w	r1, r1, r2, lsr #27
 8004f34:	0150      	lsls	r0, r2, #5
 8004f36:	4602      	mov	r2, r0
 8004f38:	460b      	mov	r3, r1
 8004f3a:	4621      	mov	r1, r4
 8004f3c:	1a51      	subs	r1, r2, r1
 8004f3e:	6139      	str	r1, [r7, #16]
 8004f40:	4629      	mov	r1, r5
 8004f42:	eb63 0301 	sbc.w	r3, r3, r1
 8004f46:	617b      	str	r3, [r7, #20]
 8004f48:	f04f 0200 	mov.w	r2, #0
 8004f4c:	f04f 0300 	mov.w	r3, #0
 8004f50:	e9d7 ab04 	ldrd	sl, fp, [r7, #16]
 8004f54:	4659      	mov	r1, fp
 8004f56:	018b      	lsls	r3, r1, #6
 8004f58:	4651      	mov	r1, sl
 8004f5a:	ea43 6391 	orr.w	r3, r3, r1, lsr #26
 8004f5e:	4651      	mov	r1, sl
 8004f60:	018a      	lsls	r2, r1, #6
 8004f62:	4651      	mov	r1, sl
 8004f64:	ebb2 0801 	subs.w	r8, r2, r1
 8004f68:	4659      	mov	r1, fp
 8004f6a:	eb63 0901 	sbc.w	r9, r3, r1
 8004f6e:	f04f 0200 	mov.w	r2, #0
 8004f72:	f04f 0300 	mov.w	r3, #0
 8004f76:	ea4f 03c9 	mov.w	r3, r9, lsl #3
 8004f7a:	ea43 7358 	orr.w	r3, r3, r8, lsr #29
 8004f7e:	ea4f 02c8 	mov.w	r2, r8, lsl #3
 8004f82:	4690      	mov	r8, r2
 8004f84:	4699      	mov	r9, r3
 8004f86:	4623      	mov	r3, r4
 8004f88:	eb18 0303 	adds.w	r3, r8, r3
 8004f8c:	60bb      	str	r3, [r7, #8]
 8004f8e:	462b      	mov	r3, r5
 8004f90:	eb49 0303 	adc.w	r3, r9, r3
 8004f94:	60fb      	str	r3, [r7, #12]
 8004f96:	f04f 0200 	mov.w	r2, #0
 8004f9a:	f04f 0300 	mov.w	r3, #0
 8004f9e:	e9d7 4502 	ldrd	r4, r5, [r7, #8]
 8004fa2:	4629      	mov	r1, r5
 8004fa4:	024b      	lsls	r3, r1, #9
 8004fa6:	4621      	mov	r1, r4
 8004fa8:	ea43 53d1 	orr.w	r3, r3, r1, lsr #23
 8004fac:	4621      	mov	r1, r4
 8004fae:	024a      	lsls	r2, r1, #9
 8004fb0:	4610      	mov	r0, r2
 8004fb2:	4619      	mov	r1, r3
 8004fb4:	6c7b      	ldr	r3, [r7, #68]	; 0x44
 8004fb6:	2200      	movs	r2, #0
 8004fb8:	62bb      	str	r3, [r7, #40]	; 0x28
 8004fba:	62fa      	str	r2, [r7, #44]	; 0x2c
 8004fbc:	e9d7 230a 	ldrd	r2, r3, [r7, #40]	; 0x28
 8004fc0:	f7fb fd28 	bl	8000a14 <__aeabi_uldivmod>
 8004fc4:	4602      	mov	r2, r0
 8004fc6:	460b      	mov	r3, r1
 8004fc8:	4613      	mov	r3, r2
 8004fca:	64fb      	str	r3, [r7, #76]	; 0x4c
 8004fcc:	e058      	b.n	8005080 <HAL_RCC_GetSysClockFreq+0x1d0>
      }
      else
      {
        /* HSI used as PLL clock source */
        pllvco = (uint32_t) ((((uint64_t) HSI_VALUE * ((uint64_t) ((RCC->PLLCFGR & RCC_PLLCFGR_PLLN) >> RCC_PLLCFGR_PLLN_Pos)))) / (uint64_t)pllm);
 8004fce:	4b38      	ldr	r3, [pc, #224]	; (80050b0 <HAL_RCC_GetSysClockFreq+0x200>)
 8004fd0:	685b      	ldr	r3, [r3, #4]
 8004fd2:	099b      	lsrs	r3, r3, #6
 8004fd4:	2200      	movs	r2, #0
 8004fd6:	4618      	mov	r0, r3
 8004fd8:	4611      	mov	r1, r2
 8004fda:	f3c0 0308 	ubfx	r3, r0, #0, #9
 8004fde:	623b      	str	r3, [r7, #32]
 8004fe0:	2300      	movs	r3, #0
 8004fe2:	627b      	str	r3, [r7, #36]	; 0x24
 8004fe4:	e9d7 8908 	ldrd	r8, r9, [r7, #32]
 8004fe8:	4642      	mov	r2, r8
 8004fea:	464b      	mov	r3, r9
 8004fec:	f04f 0000 	mov.w	r0, #0
 8004ff0:	f04f 0100 	mov.w	r1, #0
 8004ff4:	0159      	lsls	r1, r3, #5
 8004ff6:	ea41 61d2 	orr.w	r1, r1, r2, lsr #27
 8004ffa:	0150      	lsls	r0, r2, #5
 8004ffc:	4602      	mov	r2, r0
 8004ffe:	460b      	mov	r3, r1
 8005000:	4641      	mov	r1, r8
 8005002:	ebb2 0a01 	subs.w	sl, r2, r1
 8005006:	4649      	mov	r1, r9
 8005008:	eb63 0b01 	sbc.w	fp, r3, r1
 800500c:	f04f 0200 	mov.w	r2, #0
 8005010:	f04f 0300 	mov.w	r3, #0
 8005014:	ea4f 138b 	mov.w	r3, fp, lsl #6
 8005018:	ea43 639a 	orr.w	r3, r3, sl, lsr #26
 800501c:	ea4f 128a 	mov.w	r2, sl, lsl #6
 8005020:	ebb2 040a 	subs.w	r4, r2, sl
 8005024:	eb63 050b 	sbc.w	r5, r3, fp
 8005028:	f04f 0200 	mov.w	r2, #0
 800502c:	f04f 0300 	mov.w	r3, #0
 8005030:	00eb      	lsls	r3, r5, #3
 8005032:	ea43 7354 	orr.w	r3, r3, r4, lsr #29
 8005036:	00e2      	lsls	r2, r4, #3
 8005038:	4614      	mov	r4, r2
 800503a:	461d      	mov	r5, r3
 800503c:	4643      	mov	r3, r8
 800503e:	18e3      	adds	r3, r4, r3
 8005040:	603b      	str	r3, [r7, #0]
 8005042:	464b      	mov	r3, r9
 8005044:	eb45 0303 	adc.w	r3, r5, r3
 8005048:	607b      	str	r3, [r7, #4]
 800504a:	f04f 0200 	mov.w	r2, #0
 800504e:	f04f 0300 	mov.w	r3, #0
 8005052:	e9d7 4500 	ldrd	r4, r5, [r7]
 8005056:	4629      	mov	r1, r5
 8005058:	028b      	lsls	r3, r1, #10
 800505a:	4621      	mov	r1, r4
 800505c:	ea43 5391 	orr.w	r3, r3, r1, lsr #22
 8005060:	4621      	mov	r1, r4
 8005062:	028a      	lsls	r2, r1, #10
 8005064:	4610      	mov	r0, r2
 8005066:	4619      	mov	r1, r3
 8005068:	6c7b      	ldr	r3, [r7, #68]	; 0x44
 800506a:	2200      	movs	r2, #0
 800506c:	61bb      	str	r3, [r7, #24]
 800506e:	61fa      	str	r2, [r7, #28]
 8005070:	e9d7 2306 	ldrd	r2, r3, [r7, #24]
 8005074:	f7fb fcce 	bl	8000a14 <__aeabi_uldivmod>
 8005078:	4602      	mov	r2, r0
 800507a:	460b      	mov	r3, r1
 800507c:	4613      	mov	r3, r2
 800507e:	64fb      	str	r3, [r7, #76]	; 0x4c
      }
      pllp = ((((RCC->PLLCFGR & RCC_PLLCFGR_PLLP) >> RCC_PLLCFGR_PLLP_Pos) + 1U) *2U);
 8005080:	4b0b      	ldr	r3, [pc, #44]	; (80050b0 <HAL_RCC_GetSysClockFreq+0x200>)
 8005082:	685b      	ldr	r3, [r3, #4]
 8005084:	0c1b      	lsrs	r3, r3, #16
 8005086:	f003 0303 	and.w	r3, r3, #3
 800508a:	3301      	adds	r3, #1
 800508c:	005b      	lsls	r3, r3, #1
 800508e:	643b      	str	r3, [r7, #64]	; 0x40

      sysclockfreq = pllvco/pllp;
 8005090:	6cfa      	ldr	r2, [r7, #76]	; 0x4c
 8005092:	6c3b      	ldr	r3, [r7, #64]	; 0x40
 8005094:	fbb2 f3f3 	udiv	r3, r2, r3
 8005098:	64bb      	str	r3, [r7, #72]	; 0x48
      break;
 800509a:	e002      	b.n	80050a2 <HAL_RCC_GetSysClockFreq+0x1f2>
    }
    default:
    {
      sysclockfreq = HSI_VALUE;
 800509c:	4b05      	ldr	r3, [pc, #20]	; (80050b4 <HAL_RCC_GetSysClockFreq+0x204>)
 800509e:	64bb      	str	r3, [r7, #72]	; 0x48
      break;
 80050a0:	bf00      	nop
    }
  }
  return sysclockfreq;
 80050a2:	6cbb      	ldr	r3, [r7, #72]	; 0x48
}
 80050a4:	4618      	mov	r0, r3
 80050a6:	3750      	adds	r7, #80	; 0x50
 80050a8:	46bd      	mov	sp, r7
 80050aa:	e8bd 8fb0 	ldmia.w	sp!, {r4, r5, r7, r8, r9, sl, fp, pc}
 80050ae:	bf00      	nop
 80050b0:	40023800 	.word	0x40023800
 80050b4:	00f42400 	.word	0x00f42400
 80050b8:	007a1200 	.word	0x007a1200

080050bc <HAL_RCC_GetHCLKFreq>:
  * @note   The SystemCoreClock CMSIS variable is used to store System Clock Frequency
  *         and updated within this function
  * @retval HCLK frequency
  */
uint32_t HAL_RCC_GetHCLKFreq(void)
{
 80050bc:	b480      	push	{r7}
 80050be:	af00      	add	r7, sp, #0
  return SystemCoreClock;
 80050c0:	4b03      	ldr	r3, [pc, #12]	; (80050d0 <HAL_RCC_GetHCLKFreq+0x14>)
 80050c2:	681b      	ldr	r3, [r3, #0]
}
 80050c4:	4618      	mov	r0, r3
 80050c6:	46bd      	mov	sp, r7
 80050c8:	f85d 7b04 	ldr.w	r7, [sp], #4
 80050cc:	4770      	bx	lr
 80050ce:	bf00      	nop
 80050d0:	20000000 	.word	0x20000000

080050d4 <HAL_RCC_GetPCLK1Freq>:
  * @note   Each time PCLK1 changes, this function must be called to update the
  *         right PCLK1 value. Otherwise, any configuration based on this function will be incorrect.
  * @retval PCLK1 frequency
  */
uint32_t HAL_RCC_GetPCLK1Freq(void)
{
 80050d4:	b580      	push	{r7, lr}
 80050d6:	af00      	add	r7, sp, #0
  /* Get HCLK source and Compute PCLK1 frequency ---------------------------*/
  return (HAL_RCC_GetHCLKFreq() >> APBPrescTable[(RCC->CFGR & RCC_CFGR_PPRE1)>> RCC_CFGR_PPRE1_Pos]);
 80050d8:	f7ff fff0 	bl	80050bc <HAL_RCC_GetHCLKFreq>
 80050dc:	4602      	mov	r2, r0
 80050de:	4b05      	ldr	r3, [pc, #20]	; (80050f4 <HAL_RCC_GetPCLK1Freq+0x20>)
 80050e0:	689b      	ldr	r3, [r3, #8]
 80050e2:	0a9b      	lsrs	r3, r3, #10
 80050e4:	f003 0307 	and.w	r3, r3, #7
 80050e8:	4903      	ldr	r1, [pc, #12]	; (80050f8 <HAL_RCC_GetPCLK1Freq+0x24>)
 80050ea:	5ccb      	ldrb	r3, [r1, r3]
 80050ec:	fa22 f303 	lsr.w	r3, r2, r3
}
 80050f0:	4618      	mov	r0, r3
 80050f2:	bd80      	pop	{r7, pc}
 80050f4:	40023800 	.word	0x40023800
 80050f8:	0800674c 	.word	0x0800674c

080050fc <HAL_RCC_GetPCLK2Freq>:
  * @note   Each time PCLK2 changes, this function must be called to update the
  *         right PCLK2 value. Otherwise, any configuration based on this function will be incorrect.
  * @retval PCLK2 frequency
  */
uint32_t HAL_RCC_GetPCLK2Freq(void)
{
 80050fc:	b580      	push	{r7, lr}
 80050fe:	af00      	add	r7, sp, #0
  /* Get HCLK source and Compute PCLK2 frequency ---------------------------*/
  return (HAL_RCC_GetHCLKFreq()>> APBPrescTable[(RCC->CFGR & RCC_CFGR_PPRE2)>> RCC_CFGR_PPRE2_Pos]);
 8005100:	f7ff ffdc 	bl	80050bc <HAL_RCC_GetHCLKFreq>
 8005104:	4602      	mov	r2, r0
 8005106:	4b05      	ldr	r3, [pc, #20]	; (800511c <HAL_RCC_GetPCLK2Freq+0x20>)
 8005108:	689b      	ldr	r3, [r3, #8]
 800510a:	0b5b      	lsrs	r3, r3, #13
 800510c:	f003 0307 	and.w	r3, r3, #7
 8005110:	4903      	ldr	r1, [pc, #12]	; (8005120 <HAL_RCC_GetPCLK2Freq+0x24>)
 8005112:	5ccb      	ldrb	r3, [r1, r3]
 8005114:	fa22 f303 	lsr.w	r3, r2, r3
}
 8005118:	4618      	mov	r0, r3
 800511a:	bd80      	pop	{r7, pc}
 800511c:	40023800 	.word	0x40023800
 8005120:	0800674c 	.word	0x0800674c

08005124 <HAL_RCCEx_PeriphCLKConfig>:
  *        domain (RTC and RCC_BDCR register expect BKPSRAM) will be reset
  *
  * @retval HAL status
  */
HAL_StatusTypeDef HAL_RCCEx_PeriphCLKConfig(RCC_PeriphCLKInitTypeDef  *PeriphClkInit)
{
 8005124:	b580      	push	{r7, lr}
 8005126:	b086      	sub	sp, #24
 8005128:	af00      	add	r7, sp, #0
 800512a:	6078      	str	r0, [r7, #4]
  uint32_t tickstart = 0U;
 800512c:	2300      	movs	r3, #0
 800512e:	617b      	str	r3, [r7, #20]
  uint32_t tmpreg1 = 0U;
 8005130:	2300      	movs	r3, #0
 8005132:	613b      	str	r3, [r7, #16]

  /* Check the parameters */
  assert_param(IS_RCC_PERIPHCLOCK(PeriphClkInit->PeriphClockSelection));

  /*---------------------------- I2S configuration ---------------------------*/
  if((((PeriphClkInit->PeriphClockSelection) & RCC_PERIPHCLK_I2S) == RCC_PERIPHCLK_I2S) ||
 8005134:	687b      	ldr	r3, [r7, #4]
 8005136:	681b      	ldr	r3, [r3, #0]
 8005138:	f003 0301 	and.w	r3, r3, #1
 800513c:	2b00      	cmp	r3, #0
 800513e:	d105      	bne.n	800514c <HAL_RCCEx_PeriphCLKConfig+0x28>
     (((PeriphClkInit->PeriphClockSelection) & RCC_PERIPHCLK_PLLI2S) == RCC_PERIPHCLK_PLLI2S))
 8005140:	687b      	ldr	r3, [r7, #4]
 8005142:	681b      	ldr	r3, [r3, #0]
 8005144:	f003 0304 	and.w	r3, r3, #4
  if((((PeriphClkInit->PeriphClockSelection) & RCC_PERIPHCLK_I2S) == RCC_PERIPHCLK_I2S) ||
 8005148:	2b00      	cmp	r3, #0
 800514a:	d038      	beq.n	80051be <HAL_RCCEx_PeriphCLKConfig+0x9a>
    assert_param(IS_RCC_PLLI2SN_VALUE(PeriphClkInit->PLLI2S.PLLI2SN));
#if defined(STM32F411xE)
    assert_param(IS_RCC_PLLI2SM_VALUE(PeriphClkInit->PLLI2S.PLLI2SM));
#endif /* STM32F411xE */
    /* Disable the PLLI2S */
    __HAL_RCC_PLLI2S_DISABLE();
 800514c:	4b68      	ldr	r3, [pc, #416]	; (80052f0 <HAL_RCCEx_PeriphCLKConfig+0x1cc>)
 800514e:	2200      	movs	r2, #0
 8005150:	601a      	str	r2, [r3, #0]
    /* Get tick */
    tickstart = HAL_GetTick();
 8005152:	f7fe f9f9 	bl	8003548 <HAL_GetTick>
 8005156:	6178      	str	r0, [r7, #20]
    /* Wait till PLLI2S is disabled */
    while(__HAL_RCC_GET_FLAG(RCC_FLAG_PLLI2SRDY)  != RESET)
 8005158:	e008      	b.n	800516c <HAL_RCCEx_PeriphCLKConfig+0x48>
    {
      if((HAL_GetTick() - tickstart ) > PLLI2S_TIMEOUT_VALUE)
 800515a:	f7fe f9f5 	bl	8003548 <HAL_GetTick>
 800515e:	4602      	mov	r2, r0
 8005160:	697b      	ldr	r3, [r7, #20]
 8005162:	1ad3      	subs	r3, r2, r3
 8005164:	2b02      	cmp	r3, #2
 8005166:	d901      	bls.n	800516c <HAL_RCCEx_PeriphCLKConfig+0x48>
      {
        /* return in case of Timeout detected */
        return HAL_TIMEOUT;
 8005168:	2303      	movs	r3, #3
 800516a:	e0bd      	b.n	80052e8 <HAL_RCCEx_PeriphCLKConfig+0x1c4>
    while(__HAL_RCC_GET_FLAG(RCC_FLAG_PLLI2SRDY)  != RESET)
 800516c:	4b61      	ldr	r3, [pc, #388]	; (80052f4 <HAL_RCCEx_PeriphCLKConfig+0x1d0>)
 800516e:	681b      	ldr	r3, [r3, #0]
 8005170:	f003 6300 	and.w	r3, r3, #134217728	; 0x8000000
 8005174:	2b00      	cmp	r3, #0
 8005176:	d1f0      	bne.n	800515a <HAL_RCCEx_PeriphCLKConfig+0x36>

#if defined(STM32F411xE)
    /* Configure the PLLI2S division factors */
    /* PLLI2S_VCO = f(VCO clock) = f(PLLI2S clock input) * (PLLI2SN/PLLI2SM) */
    /* I2SCLK = f(PLLI2S clock output) = f(VCO clock) / PLLI2SR */
    __HAL_RCC_PLLI2S_I2SCLK_CONFIG(PeriphClkInit->PLLI2S.PLLI2SM, PeriphClkInit->PLLI2S.PLLI2SN, PeriphClkInit->PLLI2S.PLLI2SR);
 8005178:	687b      	ldr	r3, [r7, #4]
 800517a:	685a      	ldr	r2, [r3, #4]
 800517c:	687b      	ldr	r3, [r7, #4]
 800517e:	689b      	ldr	r3, [r3, #8]
 8005180:	019b      	lsls	r3, r3, #6
 8005182:	431a      	orrs	r2, r3
 8005184:	687b      	ldr	r3, [r7, #4]
 8005186:	68db      	ldr	r3, [r3, #12]
 8005188:	071b      	lsls	r3, r3, #28
 800518a:	495a      	ldr	r1, [pc, #360]	; (80052f4 <HAL_RCCEx_PeriphCLKConfig+0x1d0>)
 800518c:	4313      	orrs	r3, r2
 800518e:	f8c1 3084 	str.w	r3, [r1, #132]	; 0x84
    /* I2SCLK = f(PLLI2S clock output) = f(VCO clock) / PLLI2SR */
    __HAL_RCC_PLLI2S_CONFIG(PeriphClkInit->PLLI2S.PLLI2SN , PeriphClkInit->PLLI2S.PLLI2SR);
#endif /* STM32F411xE */

    /* Enable the PLLI2S */
    __HAL_RCC_PLLI2S_ENABLE();
 8005192:	4b57      	ldr	r3, [pc, #348]	; (80052f0 <HAL_RCCEx_PeriphCLKConfig+0x1cc>)
 8005194:	2201      	movs	r2, #1
 8005196:	601a      	str	r2, [r3, #0]
    /* Get tick */
    tickstart = HAL_GetTick();
 8005198:	f7fe f9d6 	bl	8003548 <HAL_GetTick>
 800519c:	6178      	str	r0, [r7, #20]
    /* Wait till PLLI2S is ready */
    while(__HAL_RCC_GET_FLAG(RCC_FLAG_PLLI2SRDY)  == RESET)
 800519e:	e008      	b.n	80051b2 <HAL_RCCEx_PeriphCLKConfig+0x8e>
    {
      if((HAL_GetTick() - tickstart ) > PLLI2S_TIMEOUT_VALUE)
 80051a0:	f7fe f9d2 	bl	8003548 <HAL_GetTick>
 80051a4:	4602      	mov	r2, r0
 80051a6:	697b      	ldr	r3, [r7, #20]
 80051a8:	1ad3      	subs	r3, r2, r3
 80051aa:	2b02      	cmp	r3, #2
 80051ac:	d901      	bls.n	80051b2 <HAL_RCCEx_PeriphCLKConfig+0x8e>
      {
        /* return in case of Timeout detected */
        return HAL_TIMEOUT;
 80051ae:	2303      	movs	r3, #3
 80051b0:	e09a      	b.n	80052e8 <HAL_RCCEx_PeriphCLKConfig+0x1c4>
    while(__HAL_RCC_GET_FLAG(RCC_FLAG_PLLI2SRDY)  == RESET)
 80051b2:	4b50      	ldr	r3, [pc, #320]	; (80052f4 <HAL_RCCEx_PeriphCLKConfig+0x1d0>)
 80051b4:	681b      	ldr	r3, [r3, #0]
 80051b6:	f003 6300 	and.w	r3, r3, #134217728	; 0x8000000
 80051ba:	2b00      	cmp	r3, #0
 80051bc:	d0f0      	beq.n	80051a0 <HAL_RCCEx_PeriphCLKConfig+0x7c>
      }
    }
  }

  /*---------------------------- RTC configuration ---------------------------*/
  if(((PeriphClkInit->PeriphClockSelection) & RCC_PERIPHCLK_RTC) == (RCC_PERIPHCLK_RTC))
 80051be:	687b      	ldr	r3, [r7, #4]
 80051c0:	681b      	ldr	r3, [r3, #0]
 80051c2:	f003 0302 	and.w	r3, r3, #2
 80051c6:	2b00      	cmp	r3, #0
 80051c8:	f000 8083 	beq.w	80052d2 <HAL_RCCEx_PeriphCLKConfig+0x1ae>
  {
    /* Check for RTC Parameters used to output RTCCLK */
    assert_param(IS_RCC_RTCCLKSOURCE(PeriphClkInit->RTCClockSelection));

    /* Enable Power Clock*/
    __HAL_RCC_PWR_CLK_ENABLE();
 80051cc:	2300      	movs	r3, #0
 80051ce:	60fb      	str	r3, [r7, #12]
 80051d0:	4b48      	ldr	r3, [pc, #288]	; (80052f4 <HAL_RCCEx_PeriphCLKConfig+0x1d0>)
 80051d2:	6c1b      	ldr	r3, [r3, #64]	; 0x40
 80051d4:	4a47      	ldr	r2, [pc, #284]	; (80052f4 <HAL_RCCEx_PeriphCLKConfig+0x1d0>)
 80051d6:	f043 5380 	orr.w	r3, r3, #268435456	; 0x10000000
 80051da:	6413      	str	r3, [r2, #64]	; 0x40
 80051dc:	4b45      	ldr	r3, [pc, #276]	; (80052f4 <HAL_RCCEx_PeriphCLKConfig+0x1d0>)
 80051de:	6c1b      	ldr	r3, [r3, #64]	; 0x40
 80051e0:	f003 5380 	and.w	r3, r3, #268435456	; 0x10000000
 80051e4:	60fb      	str	r3, [r7, #12]
 80051e6:	68fb      	ldr	r3, [r7, #12]

    /* Enable write access to Backup domain */
    PWR->CR |= PWR_CR_DBP;
 80051e8:	4b43      	ldr	r3, [pc, #268]	; (80052f8 <HAL_RCCEx_PeriphCLKConfig+0x1d4>)
 80051ea:	681b      	ldr	r3, [r3, #0]
 80051ec:	4a42      	ldr	r2, [pc, #264]	; (80052f8 <HAL_RCCEx_PeriphCLKConfig+0x1d4>)
 80051ee:	f443 7380 	orr.w	r3, r3, #256	; 0x100
 80051f2:	6013      	str	r3, [r2, #0]

    /* Get tick */
    tickstart = HAL_GetTick();
 80051f4:	f7fe f9a8 	bl	8003548 <HAL_GetTick>
 80051f8:	6178      	str	r0, [r7, #20]

    while((PWR->CR & PWR_CR_DBP) == RESET)
 80051fa:	e008      	b.n	800520e <HAL_RCCEx_PeriphCLKConfig+0xea>
    {
      if((HAL_GetTick() - tickstart ) > RCC_DBP_TIMEOUT_VALUE)
 80051fc:	f7fe f9a4 	bl	8003548 <HAL_GetTick>
 8005200:	4602      	mov	r2, r0
 8005202:	697b      	ldr	r3, [r7, #20]
 8005204:	1ad3      	subs	r3, r2, r3
 8005206:	2b02      	cmp	r3, #2
 8005208:	d901      	bls.n	800520e <HAL_RCCEx_PeriphCLKConfig+0xea>
      {
        return HAL_TIMEOUT;
 800520a:	2303      	movs	r3, #3
 800520c:	e06c      	b.n	80052e8 <HAL_RCCEx_PeriphCLKConfig+0x1c4>
    while((PWR->CR & PWR_CR_DBP) == RESET)
 800520e:	4b3a      	ldr	r3, [pc, #232]	; (80052f8 <HAL_RCCEx_PeriphCLKConfig+0x1d4>)
 8005210:	681b      	ldr	r3, [r3, #0]
 8005212:	f403 7380 	and.w	r3, r3, #256	; 0x100
 8005216:	2b00      	cmp	r3, #0
 8005218:	d0f0      	beq.n	80051fc <HAL_RCCEx_PeriphCLKConfig+0xd8>
      }
    }
    /* Reset the Backup domain only if the RTC Clock source selection is modified from reset value */
    tmpreg1 = (RCC->BDCR & RCC_BDCR_RTCSEL);
 800521a:	4b36      	ldr	r3, [pc, #216]	; (80052f4 <HAL_RCCEx_PeriphCLKConfig+0x1d0>)
 800521c:	6f1b      	ldr	r3, [r3, #112]	; 0x70
 800521e:	f403 7340 	and.w	r3, r3, #768	; 0x300
 8005222:	613b      	str	r3, [r7, #16]
    if((tmpreg1 != 0x00000000U) && ((tmpreg1) != (PeriphClkInit->RTCClockSelection & RCC_BDCR_RTCSEL)))
 8005224:	693b      	ldr	r3, [r7, #16]
 8005226:	2b00      	cmp	r3, #0
 8005228:	d02f      	beq.n	800528a <HAL_RCCEx_PeriphCLKConfig+0x166>
 800522a:	687b      	ldr	r3, [r7, #4]
 800522c:	691b      	ldr	r3, [r3, #16]
 800522e:	f403 7340 	and.w	r3, r3, #768	; 0x300
 8005232:	693a      	ldr	r2, [r7, #16]
 8005234:	429a      	cmp	r2, r3
 8005236:	d028      	beq.n	800528a <HAL_RCCEx_PeriphCLKConfig+0x166>
    {
      /* Store the content of BDCR register before the reset of Backup Domain */
      tmpreg1 = (RCC->BDCR & ~(RCC_BDCR_RTCSEL));
 8005238:	4b2e      	ldr	r3, [pc, #184]	; (80052f4 <HAL_RCCEx_PeriphCLKConfig+0x1d0>)
 800523a:	6f1b      	ldr	r3, [r3, #112]	; 0x70
 800523c:	f423 7340 	bic.w	r3, r3, #768	; 0x300
 8005240:	613b      	str	r3, [r7, #16]
      /* RTC Clock selection can be changed only if the Backup Domain is reset */
      __HAL_RCC_BACKUPRESET_FORCE();
 8005242:	4b2e      	ldr	r3, [pc, #184]	; (80052fc <HAL_RCCEx_PeriphCLKConfig+0x1d8>)
 8005244:	2201      	movs	r2, #1
 8005246:	601a      	str	r2, [r3, #0]
      __HAL_RCC_BACKUPRESET_RELEASE();
 8005248:	4b2c      	ldr	r3, [pc, #176]	; (80052fc <HAL_RCCEx_PeriphCLKConfig+0x1d8>)
 800524a:	2200      	movs	r2, #0
 800524c:	601a      	str	r2, [r3, #0]
      /* Restore the Content of BDCR register */
      RCC->BDCR = tmpreg1;
 800524e:	4a29      	ldr	r2, [pc, #164]	; (80052f4 <HAL_RCCEx_PeriphCLKConfig+0x1d0>)
 8005250:	693b      	ldr	r3, [r7, #16]
 8005252:	6713      	str	r3, [r2, #112]	; 0x70

      /* Wait for LSE reactivation if LSE was enable prior to Backup Domain reset */
      if(HAL_IS_BIT_SET(RCC->BDCR, RCC_BDCR_LSEON))
 8005254:	4b27      	ldr	r3, [pc, #156]	; (80052f4 <HAL_RCCEx_PeriphCLKConfig+0x1d0>)
 8005256:	6f1b      	ldr	r3, [r3, #112]	; 0x70
 8005258:	f003 0301 	and.w	r3, r3, #1
 800525c:	2b01      	cmp	r3, #1
 800525e:	d114      	bne.n	800528a <HAL_RCCEx_PeriphCLKConfig+0x166>
      {
        /* Get tick */
        tickstart = HAL_GetTick();
 8005260:	f7fe f972 	bl	8003548 <HAL_GetTick>
 8005264:	6178      	str	r0, [r7, #20]

        /* Wait till LSE is ready */
        while(__HAL_RCC_GET_FLAG(RCC_FLAG_LSERDY) == RESET)
 8005266:	e00a      	b.n	800527e <HAL_RCCEx_PeriphCLKConfig+0x15a>
        {
          if((HAL_GetTick() - tickstart ) > RCC_LSE_TIMEOUT_VALUE)
 8005268:	f7fe f96e 	bl	8003548 <HAL_GetTick>
 800526c:	4602      	mov	r2, r0
 800526e:	697b      	ldr	r3, [r7, #20]
 8005270:	1ad3      	subs	r3, r2, r3
 8005272:	f241 3288 	movw	r2, #5000	; 0x1388
 8005276:	4293      	cmp	r3, r2
 8005278:	d901      	bls.n	800527e <HAL_RCCEx_PeriphCLKConfig+0x15a>
          {
            return HAL_TIMEOUT;
 800527a:	2303      	movs	r3, #3
 800527c:	e034      	b.n	80052e8 <HAL_RCCEx_PeriphCLKConfig+0x1c4>
        while(__HAL_RCC_GET_FLAG(RCC_FLAG_LSERDY) == RESET)
 800527e:	4b1d      	ldr	r3, [pc, #116]	; (80052f4 <HAL_RCCEx_PeriphCLKConfig+0x1d0>)
 8005280:	6f1b      	ldr	r3, [r3, #112]	; 0x70
 8005282:	f003 0302 	and.w	r3, r3, #2
 8005286:	2b00      	cmp	r3, #0
 8005288:	d0ee      	beq.n	8005268 <HAL_RCCEx_PeriphCLKConfig+0x144>
          }
        }
      }
    }
    __HAL_RCC_RTC_CONFIG(PeriphClkInit->RTCClockSelection);
 800528a:	687b      	ldr	r3, [r7, #4]
 800528c:	691b      	ldr	r3, [r3, #16]
 800528e:	f403 7340 	and.w	r3, r3, #768	; 0x300
 8005292:	f5b3 7f40 	cmp.w	r3, #768	; 0x300
 8005296:	d10d      	bne.n	80052b4 <HAL_RCCEx_PeriphCLKConfig+0x190>
 8005298:	4b16      	ldr	r3, [pc, #88]	; (80052f4 <HAL_RCCEx_PeriphCLKConfig+0x1d0>)
 800529a:	689b      	ldr	r3, [r3, #8]
 800529c:	f423 12f8 	bic.w	r2, r3, #2031616	; 0x1f0000
 80052a0:	687b      	ldr	r3, [r7, #4]
 80052a2:	691b      	ldr	r3, [r3, #16]
 80052a4:	f023 4370 	bic.w	r3, r3, #4026531840	; 0xf0000000
 80052a8:	f423 7340 	bic.w	r3, r3, #768	; 0x300
 80052ac:	4911      	ldr	r1, [pc, #68]	; (80052f4 <HAL_RCCEx_PeriphCLKConfig+0x1d0>)
 80052ae:	4313      	orrs	r3, r2
 80052b0:	608b      	str	r3, [r1, #8]
 80052b2:	e005      	b.n	80052c0 <HAL_RCCEx_PeriphCLKConfig+0x19c>
 80052b4:	4b0f      	ldr	r3, [pc, #60]	; (80052f4 <HAL_RCCEx_PeriphCLKConfig+0x1d0>)
 80052b6:	689b      	ldr	r3, [r3, #8]
 80052b8:	4a0e      	ldr	r2, [pc, #56]	; (80052f4 <HAL_RCCEx_PeriphCLKConfig+0x1d0>)
 80052ba:	f423 13f8 	bic.w	r3, r3, #2031616	; 0x1f0000
 80052be:	6093      	str	r3, [r2, #8]
 80052c0:	4b0c      	ldr	r3, [pc, #48]	; (80052f4 <HAL_RCCEx_PeriphCLKConfig+0x1d0>)
 80052c2:	6f1a      	ldr	r2, [r3, #112]	; 0x70
 80052c4:	687b      	ldr	r3, [r7, #4]
 80052c6:	691b      	ldr	r3, [r3, #16]
 80052c8:	f3c3 030b 	ubfx	r3, r3, #0, #12
 80052cc:	4909      	ldr	r1, [pc, #36]	; (80052f4 <HAL_RCCEx_PeriphCLKConfig+0x1d0>)
 80052ce:	4313      	orrs	r3, r2
 80052d0:	670b      	str	r3, [r1, #112]	; 0x70
  }
#if defined(STM32F401xC) || defined(STM32F401xE) || defined(STM32F411xE)
  /*---------------------------- TIM configuration ---------------------------*/
  if(((PeriphClkInit->PeriphClockSelection) & RCC_PERIPHCLK_TIM) == (RCC_PERIPHCLK_TIM))
 80052d2:	687b      	ldr	r3, [r7, #4]
 80052d4:	681b      	ldr	r3, [r3, #0]
 80052d6:	f003 0308 	and.w	r3, r3, #8
 80052da:	2b00      	cmp	r3, #0
 80052dc:	d003      	beq.n	80052e6 <HAL_RCCEx_PeriphCLKConfig+0x1c2>
  {
    __HAL_RCC_TIMCLKPRESCALER(PeriphClkInit->TIMPresSelection);
 80052de:	687b      	ldr	r3, [r7, #4]
 80052e0:	7d1a      	ldrb	r2, [r3, #20]
 80052e2:	4b07      	ldr	r3, [pc, #28]	; (8005300 <HAL_RCCEx_PeriphCLKConfig+0x1dc>)
 80052e4:	601a      	str	r2, [r3, #0]
  }
#endif /* STM32F401xC || STM32F401xE || STM32F411xE */
  return HAL_OK;
 80052e6:	2300      	movs	r3, #0
}
 80052e8:	4618      	mov	r0, r3
 80052ea:	3718      	adds	r7, #24
 80052ec:	46bd      	mov	sp, r7
 80052ee:	bd80      	pop	{r7, pc}
 80052f0:	42470068 	.word	0x42470068
 80052f4:	40023800 	.word	0x40023800
 80052f8:	40007000 	.word	0x40007000
 80052fc:	42470e40 	.word	0x42470e40
 8005300:	424711e0 	.word	0x424711e0

08005304 <HAL_RCCEx_GetPeriphCLKFreq>:
  *         This parameter can be one of the following values:
  *            @arg RCC_PERIPHCLK_I2S: I2S peripheral clock
  * @retval Frequency in KHz
  */
uint32_t HAL_RCCEx_GetPeriphCLKFreq(uint32_t PeriphClk)
{
 8005304:	b480      	push	{r7}
 8005306:	b087      	sub	sp, #28
 8005308:	af00      	add	r7, sp, #0
 800530a:	6078      	str	r0, [r7, #4]
  /* This variable used to store the I2S clock frequency (value in Hz) */
  uint32_t frequency = 0U;
 800530c:	2300      	movs	r3, #0
 800530e:	617b      	str	r3, [r7, #20]
  /* This variable used to store the VCO Input (value in Hz) */
  uint32_t vcoinput = 0U;
 8005310:	2300      	movs	r3, #0
 8005312:	613b      	str	r3, [r7, #16]
  uint32_t srcclk = 0U;
 8005314:	2300      	movs	r3, #0
 8005316:	60fb      	str	r3, [r7, #12]
  /* This variable used to store the VCO Output (value in Hz) */
  uint32_t vcooutput = 0U;
 8005318:	2300      	movs	r3, #0
 800531a:	60bb      	str	r3, [r7, #8]
  switch (PeriphClk)
 800531c:	687b      	ldr	r3, [r7, #4]
 800531e:	2b01      	cmp	r3, #1
 8005320:	d140      	bne.n	80053a4 <HAL_RCCEx_GetPeriphCLKFreq+0xa0>
  {
  case RCC_PERIPHCLK_I2S:
    {
      /* Get the current I2S source */
      srcclk = __HAL_RCC_GET_I2S_SOURCE();
 8005322:	4b24      	ldr	r3, [pc, #144]	; (80053b4 <HAL_RCCEx_GetPeriphCLKFreq+0xb0>)
 8005324:	689b      	ldr	r3, [r3, #8]
 8005326:	f403 0300 	and.w	r3, r3, #8388608	; 0x800000
 800532a:	60fb      	str	r3, [r7, #12]
 800532c:	68fb      	ldr	r3, [r7, #12]
 800532e:	2b00      	cmp	r3, #0
 8005330:	d005      	beq.n	800533e <HAL_RCCEx_GetPeriphCLKFreq+0x3a>
 8005332:	68fb      	ldr	r3, [r7, #12]
 8005334:	2b01      	cmp	r3, #1
 8005336:	d131      	bne.n	800539c <HAL_RCCEx_GetPeriphCLKFreq+0x98>
      {
      /* Check if I2S clock selection is External clock mapped on the I2S_CKIN pin used as I2S clock */
      case RCC_I2SCLKSOURCE_EXT:
        {
          /* Set the I2S clock to the external clock  value */
          frequency = EXTERNAL_CLOCK_VALUE;
 8005338:	4b1f      	ldr	r3, [pc, #124]	; (80053b8 <HAL_RCCEx_GetPeriphCLKFreq+0xb4>)
 800533a:	617b      	str	r3, [r7, #20]
          break;
 800533c:	e031      	b.n	80053a2 <HAL_RCCEx_GetPeriphCLKFreq+0x9e>
      case RCC_I2SCLKSOURCE_PLLI2S:
        {
#if defined(STM32F411xE)
          /* Configure the PLLI2S division factor */
          /* PLLI2S_VCO Input  = PLL_SOURCE/PLLI2SM */
          if((RCC->PLLCFGR & RCC_PLLCFGR_PLLSRC) == RCC_PLLSOURCE_HSE)
 800533e:	4b1d      	ldr	r3, [pc, #116]	; (80053b4 <HAL_RCCEx_GetPeriphCLKFreq+0xb0>)
 8005340:	685b      	ldr	r3, [r3, #4]
 8005342:	f403 0380 	and.w	r3, r3, #4194304	; 0x400000
 8005346:	f5b3 0f80 	cmp.w	r3, #4194304	; 0x400000
 800534a:	d109      	bne.n	8005360 <HAL_RCCEx_GetPeriphCLKFreq+0x5c>
          {
            /* Get the I2S source clock value */
            vcoinput = (uint32_t)(HSE_VALUE / (uint32_t)(RCC->PLLI2SCFGR & RCC_PLLI2SCFGR_PLLI2SM));
 800534c:	4b19      	ldr	r3, [pc, #100]	; (80053b4 <HAL_RCCEx_GetPeriphCLKFreq+0xb0>)
 800534e:	f8d3 3084 	ldr.w	r3, [r3, #132]	; 0x84
 8005352:	f003 033f 	and.w	r3, r3, #63	; 0x3f
 8005356:	4a19      	ldr	r2, [pc, #100]	; (80053bc <HAL_RCCEx_GetPeriphCLKFreq+0xb8>)
 8005358:	fbb2 f3f3 	udiv	r3, r2, r3
 800535c:	613b      	str	r3, [r7, #16]
 800535e:	e008      	b.n	8005372 <HAL_RCCEx_GetPeriphCLKFreq+0x6e>
          }
          else
          {
            /* Get the I2S source clock value */
            vcoinput = (uint32_t)(HSI_VALUE / (uint32_t)(RCC->PLLI2SCFGR & RCC_PLLI2SCFGR_PLLI2SM));
 8005360:	4b14      	ldr	r3, [pc, #80]	; (80053b4 <HAL_RCCEx_GetPeriphCLKFreq+0xb0>)
 8005362:	f8d3 3084 	ldr.w	r3, [r3, #132]	; 0x84
 8005366:	f003 033f 	and.w	r3, r3, #63	; 0x3f
 800536a:	4a15      	ldr	r2, [pc, #84]	; (80053c0 <HAL_RCCEx_GetPeriphCLKFreq+0xbc>)
 800536c:	fbb2 f3f3 	udiv	r3, r2, r3
 8005370:	613b      	str	r3, [r7, #16]
            /* Get the I2S source clock value */
            vcoinput = (uint32_t)(HSI_VALUE / (uint32_t)(RCC->PLLCFGR & RCC_PLLCFGR_PLLM));
          }
#endif /* STM32F411xE */
          /* PLLI2S_VCO Output = PLLI2S_VCO Input * PLLI2SN */
          vcooutput = (uint32_t)(vcoinput * (((RCC->PLLI2SCFGR & RCC_PLLI2SCFGR_PLLI2SN) >> 6U) & (RCC_PLLI2SCFGR_PLLI2SN >> 6U)));
 8005372:	4b10      	ldr	r3, [pc, #64]	; (80053b4 <HAL_RCCEx_GetPeriphCLKFreq+0xb0>)
 8005374:	f8d3 3084 	ldr.w	r3, [r3, #132]	; 0x84
 8005378:	099b      	lsrs	r3, r3, #6
 800537a:	f3c3 0208 	ubfx	r2, r3, #0, #9
 800537e:	693b      	ldr	r3, [r7, #16]
 8005380:	fb02 f303 	mul.w	r3, r2, r3
 8005384:	60bb      	str	r3, [r7, #8]
          /* I2S_CLK = PLLI2S_VCO Output/PLLI2SR */
          frequency = (uint32_t)(vcooutput /(((RCC->PLLI2SCFGR & RCC_PLLI2SCFGR_PLLI2SR) >> 28U) & (RCC_PLLI2SCFGR_PLLI2SR >> 28U)));
 8005386:	4b0b      	ldr	r3, [pc, #44]	; (80053b4 <HAL_RCCEx_GetPeriphCLKFreq+0xb0>)
 8005388:	f8d3 3084 	ldr.w	r3, [r3, #132]	; 0x84
 800538c:	0f1b      	lsrs	r3, r3, #28
 800538e:	f003 0307 	and.w	r3, r3, #7
 8005392:	68ba      	ldr	r2, [r7, #8]
 8005394:	fbb2 f3f3 	udiv	r3, r2, r3
 8005398:	617b      	str	r3, [r7, #20]
          break;
 800539a:	e002      	b.n	80053a2 <HAL_RCCEx_GetPeriphCLKFreq+0x9e>
        }
        /* Clock not enabled for I2S*/
      default:
        {
          frequency = 0U;
 800539c:	2300      	movs	r3, #0
 800539e:	617b      	str	r3, [r7, #20]
          break;
 80053a0:	bf00      	nop
        }
      }
      break;
 80053a2:	bf00      	nop
    }
  }
  return frequency;
 80053a4:	697b      	ldr	r3, [r7, #20]
}
 80053a6:	4618      	mov	r0, r3
 80053a8:	371c      	adds	r7, #28
 80053aa:	46bd      	mov	sp, r7
 80053ac:	f85d 7b04 	ldr.w	r7, [sp], #4
 80053b0:	4770      	bx	lr
 80053b2:	bf00      	nop
 80053b4:	40023800 	.word	0x40023800
 80053b8:	00bb8000 	.word	0x00bb8000
 80053bc:	007a1200 	.word	0x007a1200
 80053c0:	00f42400 	.word	0x00f42400

080053c4 <HAL_SPI_Init>:
  * @param  hspi pointer to a SPI_HandleTypeDef structure that contains
  *               the configuration information for SPI module.
  * @retval HAL status
  */
HAL_StatusTypeDef HAL_SPI_Init(SPI_HandleTypeDef *hspi)
{
 80053c4:	b580      	push	{r7, lr}
 80053c6:	b082      	sub	sp, #8
 80053c8:	af00      	add	r7, sp, #0
 80053ca:	6078      	str	r0, [r7, #4]
  /* Check the SPI handle allocation */
  if (hspi == NULL)
 80053cc:	687b      	ldr	r3, [r7, #4]
 80053ce:	2b00      	cmp	r3, #0
 80053d0:	d101      	bne.n	80053d6 <HAL_SPI_Init+0x12>
  {
    return HAL_ERROR;
 80053d2:	2301      	movs	r3, #1
 80053d4:	e07b      	b.n	80054ce <HAL_SPI_Init+0x10a>
  assert_param(IS_SPI_DATASIZE(hspi->Init.DataSize));
  assert_param(IS_SPI_NSS(hspi->Init.NSS));
  assert_param(IS_SPI_BAUDRATE_PRESCALER(hspi->Init.BaudRatePrescaler));
  assert_param(IS_SPI_FIRST_BIT(hspi->Init.FirstBit));
  assert_param(IS_SPI_TIMODE(hspi->Init.TIMode));
  if (hspi->Init.TIMode == SPI_TIMODE_DISABLE)
 80053d6:	687b      	ldr	r3, [r7, #4]
 80053d8:	6a5b      	ldr	r3, [r3, #36]	; 0x24
 80053da:	2b00      	cmp	r3, #0
 80053dc:	d108      	bne.n	80053f0 <HAL_SPI_Init+0x2c>
  {
    assert_param(IS_SPI_CPOL(hspi->Init.CLKPolarity));
    assert_param(IS_SPI_CPHA(hspi->Init.CLKPhase));

    if (hspi->Init.Mode == SPI_MODE_MASTER)
 80053de:	687b      	ldr	r3, [r7, #4]
 80053e0:	685b      	ldr	r3, [r3, #4]
 80053e2:	f5b3 7f82 	cmp.w	r3, #260	; 0x104
 80053e6:	d009      	beq.n	80053fc <HAL_SPI_Init+0x38>
      assert_param(IS_SPI_BAUDRATE_PRESCALER(hspi->Init.BaudRatePrescaler));
    }
    else
    {
      /* Baudrate prescaler not use in Motoraola Slave mode. force to default value */
      hspi->Init.BaudRatePrescaler = SPI_BAUDRATEPRESCALER_2;
 80053e8:	687b      	ldr	r3, [r7, #4]
 80053ea:	2200      	movs	r2, #0
 80053ec:	61da      	str	r2, [r3, #28]
 80053ee:	e005      	b.n	80053fc <HAL_SPI_Init+0x38>
  else
  {
    assert_param(IS_SPI_BAUDRATE_PRESCALER(hspi->Init.BaudRatePrescaler));

    /* Force polarity and phase to TI protocaol requirements */
    hspi->Init.CLKPolarity = SPI_POLARITY_LOW;
 80053f0:	687b      	ldr	r3, [r7, #4]
 80053f2:	2200      	movs	r2, #0
 80053f4:	611a      	str	r2, [r3, #16]
    hspi->Init.CLKPhase    = SPI_PHASE_1EDGE;
 80053f6:	687b      	ldr	r3, [r7, #4]
 80053f8:	2200      	movs	r2, #0
 80053fa:	615a      	str	r2, [r3, #20]
  if (hspi->Init.CRCCalculation == SPI_CRCCALCULATION_ENABLE)
  {
    assert_param(IS_SPI_CRC_POLYNOMIAL(hspi->Init.CRCPolynomial));
  }
#else
  hspi->Init.CRCCalculation = SPI_CRCCALCULATION_DISABLE;
 80053fc:	687b      	ldr	r3, [r7, #4]
 80053fe:	2200      	movs	r2, #0
 8005400:	629a      	str	r2, [r3, #40]	; 0x28
#endif /* USE_SPI_CRC */

  if (hspi->State == HAL_SPI_STATE_RESET)
 8005402:	687b      	ldr	r3, [r7, #4]
 8005404:	f893 3051 	ldrb.w	r3, [r3, #81]	; 0x51
 8005408:	b2db      	uxtb	r3, r3
 800540a:	2b00      	cmp	r3, #0
 800540c:	d106      	bne.n	800541c <HAL_SPI_Init+0x58>
  {
    /* Allocate lock resource and initialize it */
    hspi->Lock = HAL_UNLOCKED;
 800540e:	687b      	ldr	r3, [r7, #4]
 8005410:	2200      	movs	r2, #0
 8005412:	f883 2050 	strb.w	r2, [r3, #80]	; 0x50

    /* Init the low level hardware : GPIO, CLOCK, NVIC... */
    hspi->MspInitCallback(hspi);
#else
    /* Init the low level hardware : GPIO, CLOCK, NVIC... */
    HAL_SPI_MspInit(hspi);
 8005416:	6878      	ldr	r0, [r7, #4]
 8005418:	f7fd fed0 	bl	80031bc <HAL_SPI_MspInit>
#endif /* USE_HAL_SPI_REGISTER_CALLBACKS */
  }

  hspi->State = HAL_SPI_STATE_BUSY;
 800541c:	687b      	ldr	r3, [r7, #4]
 800541e:	2202      	movs	r2, #2
 8005420:	f883 2051 	strb.w	r2, [r3, #81]	; 0x51

  /* Disable the selected SPI peripheral */
  __HAL_SPI_DISABLE(hspi);
 8005424:	687b      	ldr	r3, [r7, #4]
 8005426:	681b      	ldr	r3, [r3, #0]
 8005428:	681a      	ldr	r2, [r3, #0]
 800542a:	687b      	ldr	r3, [r7, #4]
 800542c:	681b      	ldr	r3, [r3, #0]
 800542e:	f022 0240 	bic.w	r2, r2, #64	; 0x40
 8005432:	601a      	str	r2, [r3, #0]

  /*----------------------- SPIx CR1 & CR2 Configuration ---------------------*/
  /* Configure : SPI Mode, Communication Mode, Data size, Clock polarity and phase, NSS management,
  Communication speed, First bit and CRC calculation state */
  WRITE_REG(hspi->Instance->CR1, ((hspi->Init.Mode & (SPI_CR1_MSTR | SPI_CR1_SSI)) |
 8005434:	687b      	ldr	r3, [r7, #4]
 8005436:	685b      	ldr	r3, [r3, #4]
 8005438:	f403 7282 	and.w	r2, r3, #260	; 0x104
 800543c:	687b      	ldr	r3, [r7, #4]
 800543e:	689b      	ldr	r3, [r3, #8]
 8005440:	f403 4304 	and.w	r3, r3, #33792	; 0x8400
 8005444:	431a      	orrs	r2, r3
 8005446:	687b      	ldr	r3, [r7, #4]
 8005448:	68db      	ldr	r3, [r3, #12]
 800544a:	f403 6300 	and.w	r3, r3, #2048	; 0x800
 800544e:	431a      	orrs	r2, r3
 8005450:	687b      	ldr	r3, [r7, #4]
 8005452:	691b      	ldr	r3, [r3, #16]
 8005454:	f003 0302 	and.w	r3, r3, #2
 8005458:	431a      	orrs	r2, r3
 800545a:	687b      	ldr	r3, [r7, #4]
 800545c:	695b      	ldr	r3, [r3, #20]
 800545e:	f003 0301 	and.w	r3, r3, #1
 8005462:	431a      	orrs	r2, r3
 8005464:	687b      	ldr	r3, [r7, #4]
 8005466:	699b      	ldr	r3, [r3, #24]
 8005468:	f403 7300 	and.w	r3, r3, #512	; 0x200
 800546c:	431a      	orrs	r2, r3
 800546e:	687b      	ldr	r3, [r7, #4]
 8005470:	69db      	ldr	r3, [r3, #28]
 8005472:	f003 0338 	and.w	r3, r3, #56	; 0x38
 8005476:	431a      	orrs	r2, r3
 8005478:	687b      	ldr	r3, [r7, #4]
 800547a:	6a1b      	ldr	r3, [r3, #32]
 800547c:	f003 0380 	and.w	r3, r3, #128	; 0x80
 8005480:	ea42 0103 	orr.w	r1, r2, r3
 8005484:	687b      	ldr	r3, [r7, #4]
 8005486:	6a9b      	ldr	r3, [r3, #40]	; 0x28
 8005488:	f403 5200 	and.w	r2, r3, #8192	; 0x2000
 800548c:	687b      	ldr	r3, [r7, #4]
 800548e:	681b      	ldr	r3, [r3, #0]
 8005490:	430a      	orrs	r2, r1
 8005492:	601a      	str	r2, [r3, #0]
                                  (hspi->Init.BaudRatePrescaler & SPI_CR1_BR_Msk) |
                                  (hspi->Init.FirstBit  & SPI_CR1_LSBFIRST) |
                                  (hspi->Init.CRCCalculation & SPI_CR1_CRCEN)));

  /* Configure : NSS management, TI Mode */
  WRITE_REG(hspi->Instance->CR2, (((hspi->Init.NSS >> 16U) & SPI_CR2_SSOE) | (hspi->Init.TIMode & SPI_CR2_FRF)));
 8005494:	687b      	ldr	r3, [r7, #4]
 8005496:	699b      	ldr	r3, [r3, #24]
 8005498:	0c1b      	lsrs	r3, r3, #16
 800549a:	f003 0104 	and.w	r1, r3, #4
 800549e:	687b      	ldr	r3, [r7, #4]
 80054a0:	6a5b      	ldr	r3, [r3, #36]	; 0x24
 80054a2:	f003 0210 	and.w	r2, r3, #16
 80054a6:	687b      	ldr	r3, [r7, #4]
 80054a8:	681b      	ldr	r3, [r3, #0]
 80054aa:	430a      	orrs	r2, r1
 80054ac:	605a      	str	r2, [r3, #4]
  }
#endif /* USE_SPI_CRC */

#if defined(SPI_I2SCFGR_I2SMOD)
  /* Activate the SPI mode (Make sure that I2SMOD bit in I2SCFGR register is reset) */
  CLEAR_BIT(hspi->Instance->I2SCFGR, SPI_I2SCFGR_I2SMOD);
 80054ae:	687b      	ldr	r3, [r7, #4]
 80054b0:	681b      	ldr	r3, [r3, #0]
 80054b2:	69da      	ldr	r2, [r3, #28]
 80054b4:	687b      	ldr	r3, [r7, #4]
 80054b6:	681b      	ldr	r3, [r3, #0]
 80054b8:	f422 6200 	bic.w	r2, r2, #2048	; 0x800
 80054bc:	61da      	str	r2, [r3, #28]
#endif /* SPI_I2SCFGR_I2SMOD */

  hspi->ErrorCode = HAL_SPI_ERROR_NONE;
 80054be:	687b      	ldr	r3, [r7, #4]
 80054c0:	2200      	movs	r2, #0
 80054c2:	655a      	str	r2, [r3, #84]	; 0x54
  hspi->State     = HAL_SPI_STATE_READY;
 80054c4:	687b      	ldr	r3, [r7, #4]
 80054c6:	2201      	movs	r2, #1
 80054c8:	f883 2051 	strb.w	r2, [r3, #81]	; 0x51

  return HAL_OK;
 80054cc:	2300      	movs	r3, #0
}
 80054ce:	4618      	mov	r0, r3
 80054d0:	3708      	adds	r7, #8
 80054d2:	46bd      	mov	sp, r7
 80054d4:	bd80      	pop	{r7, pc}

080054d6 <HAL_UART_Init>:
  * @param  huart  Pointer to a UART_HandleTypeDef structure that contains
  *                the configuration information for the specified UART module.
  * @retval HAL status
  */
HAL_StatusTypeDef HAL_UART_Init(UART_HandleTypeDef *huart)
{
 80054d6:	b580      	push	{r7, lr}
 80054d8:	b082      	sub	sp, #8
 80054da:	af00      	add	r7, sp, #0
 80054dc:	6078      	str	r0, [r7, #4]
  /* Check the UART handle allocation */
  if (huart == NULL)
 80054de:	687b      	ldr	r3, [r7, #4]
 80054e0:	2b00      	cmp	r3, #0
 80054e2:	d101      	bne.n	80054e8 <HAL_UART_Init+0x12>
  {
    return HAL_ERROR;
 80054e4:	2301      	movs	r3, #1
 80054e6:	e03f      	b.n	8005568 <HAL_UART_Init+0x92>
    assert_param(IS_UART_INSTANCE(huart->Instance));
  }
  assert_param(IS_UART_WORD_LENGTH(huart->Init.WordLength));
  assert_param(IS_UART_OVERSAMPLING(huart->Init.OverSampling));

  if (huart->gState == HAL_UART_STATE_RESET)
 80054e8:	687b      	ldr	r3, [r7, #4]
 80054ea:	f893 303d 	ldrb.w	r3, [r3, #61]	; 0x3d
 80054ee:	b2db      	uxtb	r3, r3
 80054f0:	2b00      	cmp	r3, #0
 80054f2:	d106      	bne.n	8005502 <HAL_UART_Init+0x2c>
  {
    /* Allocate lock resource and initialize it */
    huart->Lock = HAL_UNLOCKED;
 80054f4:	687b      	ldr	r3, [r7, #4]
 80054f6:	2200      	movs	r2, #0
 80054f8:	f883 203c 	strb.w	r2, [r3, #60]	; 0x3c

    /* Init the low level hardware */
    huart->MspInitCallback(huart);
#else
    /* Init the low level hardware : GPIO, CLOCK */
    HAL_UART_MspInit(huart);
 80054fc:	6878      	ldr	r0, [r7, #4]
 80054fe:	f7fd fea5 	bl	800324c <HAL_UART_MspInit>
#endif /* (USE_HAL_UART_REGISTER_CALLBACKS) */
  }

  huart->gState = HAL_UART_STATE_BUSY;
 8005502:	687b      	ldr	r3, [r7, #4]
 8005504:	2224      	movs	r2, #36	; 0x24
 8005506:	f883 203d 	strb.w	r2, [r3, #61]	; 0x3d

  /* Disable the peripheral */
  __HAL_UART_DISABLE(huart);
 800550a:	687b      	ldr	r3, [r7, #4]
 800550c:	681b      	ldr	r3, [r3, #0]
 800550e:	68da      	ldr	r2, [r3, #12]
 8005510:	687b      	ldr	r3, [r7, #4]
 8005512:	681b      	ldr	r3, [r3, #0]
 8005514:	f422 5200 	bic.w	r2, r2, #8192	; 0x2000
 8005518:	60da      	str	r2, [r3, #12]

  /* Set the UART Communication parameters */
  UART_SetConfig(huart);
 800551a:	6878      	ldr	r0, [r7, #4]
 800551c:	f000 fc7a 	bl	8005e14 <UART_SetConfig>

  /* In asynchronous mode, the following bits must be kept cleared:
     - LINEN and CLKEN bits in the USART_CR2 register,
     - SCEN, HDSEL and IREN  bits in the USART_CR3 register.*/
  CLEAR_BIT(huart->Instance->CR2, (USART_CR2_LINEN | USART_CR2_CLKEN));
 8005520:	687b      	ldr	r3, [r7, #4]
 8005522:	681b      	ldr	r3, [r3, #0]
 8005524:	691a      	ldr	r2, [r3, #16]
 8005526:	687b      	ldr	r3, [r7, #4]
 8005528:	681b      	ldr	r3, [r3, #0]
 800552a:	f422 4290 	bic.w	r2, r2, #18432	; 0x4800
 800552e:	611a      	str	r2, [r3, #16]
  CLEAR_BIT(huart->Instance->CR3, (USART_CR3_SCEN | USART_CR3_HDSEL | USART_CR3_IREN));
 8005530:	687b      	ldr	r3, [r7, #4]
 8005532:	681b      	ldr	r3, [r3, #0]
 8005534:	695a      	ldr	r2, [r3, #20]
 8005536:	687b      	ldr	r3, [r7, #4]
 8005538:	681b      	ldr	r3, [r3, #0]
 800553a:	f022 022a 	bic.w	r2, r2, #42	; 0x2a
 800553e:	615a      	str	r2, [r3, #20]

  /* Enable the peripheral */
  __HAL_UART_ENABLE(huart);
 8005540:	687b      	ldr	r3, [r7, #4]
 8005542:	681b      	ldr	r3, [r3, #0]
 8005544:	68da      	ldr	r2, [r3, #12]
 8005546:	687b      	ldr	r3, [r7, #4]
 8005548:	681b      	ldr	r3, [r3, #0]
 800554a:	f442 5200 	orr.w	r2, r2, #8192	; 0x2000
 800554e:	60da      	str	r2, [r3, #12]

  /* Initialize the UART state */
  huart->ErrorCode = HAL_UART_ERROR_NONE;
 8005550:	687b      	ldr	r3, [r7, #4]
 8005552:	2200      	movs	r2, #0
 8005554:	641a      	str	r2, [r3, #64]	; 0x40
  huart->gState = HAL_UART_STATE_READY;
 8005556:	687b      	ldr	r3, [r7, #4]
 8005558:	2220      	movs	r2, #32
 800555a:	f883 203d 	strb.w	r2, [r3, #61]	; 0x3d
  huart->RxState = HAL_UART_STATE_READY;
 800555e:	687b      	ldr	r3, [r7, #4]
 8005560:	2220      	movs	r2, #32
 8005562:	f883 203e 	strb.w	r2, [r3, #62]	; 0x3e

  return HAL_OK;
 8005566:	2300      	movs	r3, #0
}
 8005568:	4618      	mov	r0, r3
 800556a:	3708      	adds	r7, #8
 800556c:	46bd      	mov	sp, r7
 800556e:	bd80      	pop	{r7, pc}

08005570 <HAL_UART_IRQHandler>:
  * @param  huart  Pointer to a UART_HandleTypeDef structure that contains
  *                the configuration information for the specified UART module.
  * @retval None
  */
void HAL_UART_IRQHandler(UART_HandleTypeDef *huart)
{
 8005570:	b580      	push	{r7, lr}
 8005572:	b0ba      	sub	sp, #232	; 0xe8
 8005574:	af00      	add	r7, sp, #0
 8005576:	6078      	str	r0, [r7, #4]
  uint32_t isrflags   = READ_REG(huart->Instance->SR);
 8005578:	687b      	ldr	r3, [r7, #4]
 800557a:	681b      	ldr	r3, [r3, #0]
 800557c:	681b      	ldr	r3, [r3, #0]
 800557e:	f8c7 30e4 	str.w	r3, [r7, #228]	; 0xe4
  uint32_t cr1its     = READ_REG(huart->Instance->CR1);
 8005582:	687b      	ldr	r3, [r7, #4]
 8005584:	681b      	ldr	r3, [r3, #0]
 8005586:	68db      	ldr	r3, [r3, #12]
 8005588:	f8c7 30e0 	str.w	r3, [r7, #224]	; 0xe0
  uint32_t cr3its     = READ_REG(huart->Instance->CR3);
 800558c:	687b      	ldr	r3, [r7, #4]
 800558e:	681b      	ldr	r3, [r3, #0]
 8005590:	695b      	ldr	r3, [r3, #20]
 8005592:	f8c7 30dc 	str.w	r3, [r7, #220]	; 0xdc
  uint32_t errorflags = 0x00U;
 8005596:	2300      	movs	r3, #0
 8005598:	f8c7 30d8 	str.w	r3, [r7, #216]	; 0xd8
  uint32_t dmarequest = 0x00U;
 800559c:	2300      	movs	r3, #0
 800559e:	f8c7 30d4 	str.w	r3, [r7, #212]	; 0xd4

  /* If no error occurs */
  errorflags = (isrflags & (uint32_t)(USART_SR_PE | USART_SR_FE | USART_SR_ORE | USART_SR_NE));
 80055a2:	f8d7 30e4 	ldr.w	r3, [r7, #228]	; 0xe4
 80055a6:	f003 030f 	and.w	r3, r3, #15
 80055aa:	f8c7 30d8 	str.w	r3, [r7, #216]	; 0xd8
  if (errorflags == RESET)
 80055ae:	f8d7 30d8 	ldr.w	r3, [r7, #216]	; 0xd8
 80055b2:	2b00      	cmp	r3, #0
 80055b4:	d10f      	bne.n	80055d6 <HAL_UART_IRQHandler+0x66>
  {
    /* UART in mode Receiver -------------------------------------------------*/
    if (((isrflags & USART_SR_RXNE) != RESET) && ((cr1its & USART_CR1_RXNEIE) != RESET))
 80055b6:	f8d7 30e4 	ldr.w	r3, [r7, #228]	; 0xe4
 80055ba:	f003 0320 	and.w	r3, r3, #32
 80055be:	2b00      	cmp	r3, #0
 80055c0:	d009      	beq.n	80055d6 <HAL_UART_IRQHandler+0x66>
 80055c2:	f8d7 30e0 	ldr.w	r3, [r7, #224]	; 0xe0
 80055c6:	f003 0320 	and.w	r3, r3, #32
 80055ca:	2b00      	cmp	r3, #0
 80055cc:	d003      	beq.n	80055d6 <HAL_UART_IRQHandler+0x66>
    {
      UART_Receive_IT(huart);
 80055ce:	6878      	ldr	r0, [r7, #4]
 80055d0:	f000 fb65 	bl	8005c9e <UART_Receive_IT>
      return;
 80055d4:	e256      	b.n	8005a84 <HAL_UART_IRQHandler+0x514>
    }
  }

  /* If some errors occur */
  if ((errorflags != RESET) && (((cr3its & USART_CR3_EIE) != RESET)
 80055d6:	f8d7 30d8 	ldr.w	r3, [r7, #216]	; 0xd8
 80055da:	2b00      	cmp	r3, #0
 80055dc:	f000 80de 	beq.w	800579c <HAL_UART_IRQHandler+0x22c>
 80055e0:	f8d7 30dc 	ldr.w	r3, [r7, #220]	; 0xdc
 80055e4:	f003 0301 	and.w	r3, r3, #1
 80055e8:	2b00      	cmp	r3, #0
 80055ea:	d106      	bne.n	80055fa <HAL_UART_IRQHandler+0x8a>
                                || ((cr1its & (USART_CR1_RXNEIE | USART_CR1_PEIE)) != RESET)))
 80055ec:	f8d7 30e0 	ldr.w	r3, [r7, #224]	; 0xe0
 80055f0:	f403 7390 	and.w	r3, r3, #288	; 0x120
 80055f4:	2b00      	cmp	r3, #0
 80055f6:	f000 80d1 	beq.w	800579c <HAL_UART_IRQHandler+0x22c>
  {
    /* UART parity error interrupt occurred ----------------------------------*/
    if (((isrflags & USART_SR_PE) != RESET) && ((cr1its & USART_CR1_PEIE) != RESET))
 80055fa:	f8d7 30e4 	ldr.w	r3, [r7, #228]	; 0xe4
 80055fe:	f003 0301 	and.w	r3, r3, #1
 8005602:	2b00      	cmp	r3, #0
 8005604:	d00b      	beq.n	800561e <HAL_UART_IRQHandler+0xae>
 8005606:	f8d7 30e0 	ldr.w	r3, [r7, #224]	; 0xe0
 800560a:	f403 7380 	and.w	r3, r3, #256	; 0x100
 800560e:	2b00      	cmp	r3, #0
 8005610:	d005      	beq.n	800561e <HAL_UART_IRQHandler+0xae>
    {
      huart->ErrorCode |= HAL_UART_ERROR_PE;
 8005612:	687b      	ldr	r3, [r7, #4]
 8005614:	6c1b      	ldr	r3, [r3, #64]	; 0x40
 8005616:	f043 0201 	orr.w	r2, r3, #1
 800561a:	687b      	ldr	r3, [r7, #4]
 800561c:	641a      	str	r2, [r3, #64]	; 0x40
    }

    /* UART noise error interrupt occurred -----------------------------------*/
    if (((isrflags & USART_SR_NE) != RESET) && ((cr3its & USART_CR3_EIE) != RESET))
 800561e:	f8d7 30e4 	ldr.w	r3, [r7, #228]	; 0xe4
 8005622:	f003 0304 	and.w	r3, r3, #4
 8005626:	2b00      	cmp	r3, #0
 8005628:	d00b      	beq.n	8005642 <HAL_UART_IRQHandler+0xd2>
 800562a:	f8d7 30dc 	ldr.w	r3, [r7, #220]	; 0xdc
 800562e:	f003 0301 	and.w	r3, r3, #1
 8005632:	2b00      	cmp	r3, #0
 8005634:	d005      	beq.n	8005642 <HAL_UART_IRQHandler+0xd2>
    {
      huart->ErrorCode |= HAL_UART_ERROR_NE;
 8005636:	687b      	ldr	r3, [r7, #4]
 8005638:	6c1b      	ldr	r3, [r3, #64]	; 0x40
 800563a:	f043 0202 	orr.w	r2, r3, #2
 800563e:	687b      	ldr	r3, [r7, #4]
 8005640:	641a      	str	r2, [r3, #64]	; 0x40
    }

    /* UART frame error interrupt occurred -----------------------------------*/
    if (((isrflags & USART_SR_FE) != RESET) && ((cr3its & USART_CR3_EIE) != RESET))
 8005642:	f8d7 30e4 	ldr.w	r3, [r7, #228]	; 0xe4
 8005646:	f003 0302 	and.w	r3, r3, #2
 800564a:	2b00      	cmp	r3, #0
 800564c:	d00b      	beq.n	8005666 <HAL_UART_IRQHandler+0xf6>
 800564e:	f8d7 30dc 	ldr.w	r3, [r7, #220]	; 0xdc
 8005652:	f003 0301 	and.w	r3, r3, #1
 8005656:	2b00      	cmp	r3, #0
 8005658:	d005      	beq.n	8005666 <HAL_UART_IRQHandler+0xf6>
    {
      huart->ErrorCode |= HAL_UART_ERROR_FE;
 800565a:	687b      	ldr	r3, [r7, #4]
 800565c:	6c1b      	ldr	r3, [r3, #64]	; 0x40
 800565e:	f043 0204 	orr.w	r2, r3, #4
 8005662:	687b      	ldr	r3, [r7, #4]
 8005664:	641a      	str	r2, [r3, #64]	; 0x40
    }

    /* UART Over-Run interrupt occurred --------------------------------------*/
    if (((isrflags & USART_SR_ORE) != RESET) && (((cr1its & USART_CR1_RXNEIE) != RESET)
 8005666:	f8d7 30e4 	ldr.w	r3, [r7, #228]	; 0xe4
 800566a:	f003 0308 	and.w	r3, r3, #8
 800566e:	2b00      	cmp	r3, #0
 8005670:	d011      	beq.n	8005696 <HAL_UART_IRQHandler+0x126>
 8005672:	f8d7 30e0 	ldr.w	r3, [r7, #224]	; 0xe0
 8005676:	f003 0320 	and.w	r3, r3, #32
 800567a:	2b00      	cmp	r3, #0
 800567c:	d105      	bne.n	800568a <HAL_UART_IRQHandler+0x11a>
                                                 || ((cr3its & USART_CR3_EIE) != RESET)))
 800567e:	f8d7 30dc 	ldr.w	r3, [r7, #220]	; 0xdc
 8005682:	f003 0301 	and.w	r3, r3, #1
 8005686:	2b00      	cmp	r3, #0
 8005688:	d005      	beq.n	8005696 <HAL_UART_IRQHandler+0x126>
    {
      huart->ErrorCode |= HAL_UART_ERROR_ORE;
 800568a:	687b      	ldr	r3, [r7, #4]
 800568c:	6c1b      	ldr	r3, [r3, #64]	; 0x40
 800568e:	f043 0208 	orr.w	r2, r3, #8
 8005692:	687b      	ldr	r3, [r7, #4]
 8005694:	641a      	str	r2, [r3, #64]	; 0x40
    }

    /* Call UART Error Call back function if need be --------------------------*/
    if (huart->ErrorCode != HAL_UART_ERROR_NONE)
 8005696:	687b      	ldr	r3, [r7, #4]
 8005698:	6c1b      	ldr	r3, [r3, #64]	; 0x40
 800569a:	2b00      	cmp	r3, #0
 800569c:	f000 81ed 	beq.w	8005a7a <HAL_UART_IRQHandler+0x50a>
    {
      /* UART in mode Receiver -----------------------------------------------*/
      if (((isrflags & USART_SR_RXNE) != RESET) && ((cr1its & USART_CR1_RXNEIE) != RESET))
 80056a0:	f8d7 30e4 	ldr.w	r3, [r7, #228]	; 0xe4
 80056a4:	f003 0320 	and.w	r3, r3, #32
 80056a8:	2b00      	cmp	r3, #0
 80056aa:	d008      	beq.n	80056be <HAL_UART_IRQHandler+0x14e>
 80056ac:	f8d7 30e0 	ldr.w	r3, [r7, #224]	; 0xe0
 80056b0:	f003 0320 	and.w	r3, r3, #32
 80056b4:	2b00      	cmp	r3, #0
 80056b6:	d002      	beq.n	80056be <HAL_UART_IRQHandler+0x14e>
      {
        UART_Receive_IT(huart);
 80056b8:	6878      	ldr	r0, [r7, #4]
 80056ba:	f000 faf0 	bl	8005c9e <UART_Receive_IT>
      }

      /* If Overrun error occurs, or if any error occurs in DMA mode reception,
         consider error as blocking */
      dmarequest = HAL_IS_BIT_SET(huart->Instance->CR3, USART_CR3_DMAR);
 80056be:	687b      	ldr	r3, [r7, #4]
 80056c0:	681b      	ldr	r3, [r3, #0]
 80056c2:	695b      	ldr	r3, [r3, #20]
 80056c4:	f003 0340 	and.w	r3, r3, #64	; 0x40
 80056c8:	2b40      	cmp	r3, #64	; 0x40
 80056ca:	bf0c      	ite	eq
 80056cc:	2301      	moveq	r3, #1
 80056ce:	2300      	movne	r3, #0
 80056d0:	b2db      	uxtb	r3, r3
 80056d2:	f8c7 30d4 	str.w	r3, [r7, #212]	; 0xd4
      if (((huart->ErrorCode & HAL_UART_ERROR_ORE) != RESET) || dmarequest)
 80056d6:	687b      	ldr	r3, [r7, #4]
 80056d8:	6c1b      	ldr	r3, [r3, #64]	; 0x40
 80056da:	f003 0308 	and.w	r3, r3, #8
 80056de:	2b00      	cmp	r3, #0
 80056e0:	d103      	bne.n	80056ea <HAL_UART_IRQHandler+0x17a>
 80056e2:	f8d7 30d4 	ldr.w	r3, [r7, #212]	; 0xd4
 80056e6:	2b00      	cmp	r3, #0
 80056e8:	d04f      	beq.n	800578a <HAL_UART_IRQHandler+0x21a>
      {
        /* Blocking error : transfer is aborted
           Set the UART state ready to be able to start again the process,
           Disable Rx Interrupts, and disable Rx DMA request, if ongoing */
        UART_EndRxTransfer(huart);
 80056ea:	6878      	ldr	r0, [r7, #4]
 80056ec:	f000 f9f8 	bl	8005ae0 <UART_EndRxTransfer>

        /* Disable the UART DMA Rx request if enabled */
        if (HAL_IS_BIT_SET(huart->Instance->CR3, USART_CR3_DMAR))
 80056f0:	687b      	ldr	r3, [r7, #4]
 80056f2:	681b      	ldr	r3, [r3, #0]
 80056f4:	695b      	ldr	r3, [r3, #20]
 80056f6:	f003 0340 	and.w	r3, r3, #64	; 0x40
 80056fa:	2b40      	cmp	r3, #64	; 0x40
 80056fc:	d141      	bne.n	8005782 <HAL_UART_IRQHandler+0x212>
        {
          ATOMIC_CLEAR_BIT(huart->Instance->CR3, USART_CR3_DMAR);
 80056fe:	687b      	ldr	r3, [r7, #4]
 8005700:	681b      	ldr	r3, [r3, #0]
 8005702:	3314      	adds	r3, #20
 8005704:	f8c7 309c 	str.w	r3, [r7, #156]	; 0x9c
 */
__STATIC_FORCEINLINE uint32_t __LDREXW(volatile uint32_t *addr)
{
    uint32_t result;

   __ASM volatile ("ldrex %0, %1" : "=r" (result) : "Q" (*addr) );
 8005708:	f8d7 309c 	ldr.w	r3, [r7, #156]	; 0x9c
 800570c:	e853 3f00 	ldrex	r3, [r3]
 8005710:	f8c7 3098 	str.w	r3, [r7, #152]	; 0x98
   return(result);
 8005714:	f8d7 3098 	ldr.w	r3, [r7, #152]	; 0x98
 8005718:	f023 0340 	bic.w	r3, r3, #64	; 0x40
 800571c:	f8c7 30d0 	str.w	r3, [r7, #208]	; 0xd0
 8005720:	687b      	ldr	r3, [r7, #4]
 8005722:	681b      	ldr	r3, [r3, #0]
 8005724:	3314      	adds	r3, #20
 8005726:	f8d7 20d0 	ldr.w	r2, [r7, #208]	; 0xd0
 800572a:	f8c7 20a8 	str.w	r2, [r7, #168]	; 0xa8
 800572e:	f8c7 30a4 	str.w	r3, [r7, #164]	; 0xa4
 */
__STATIC_FORCEINLINE uint32_t __STREXW(uint32_t value, volatile uint32_t *addr)
{
   uint32_t result;

   __ASM volatile ("strex %0, %2, %1" : "=&r" (result), "=Q" (*addr) : "r" (value) );
 8005732:	f8d7 10a4 	ldr.w	r1, [r7, #164]	; 0xa4
 8005736:	f8d7 20a8 	ldr.w	r2, [r7, #168]	; 0xa8
 800573a:	e841 2300 	strex	r3, r2, [r1]
 800573e:	f8c7 30a0 	str.w	r3, [r7, #160]	; 0xa0
   return(result);
 8005742:	f8d7 30a0 	ldr.w	r3, [r7, #160]	; 0xa0
 8005746:	2b00      	cmp	r3, #0
 8005748:	d1d9      	bne.n	80056fe <HAL_UART_IRQHandler+0x18e>

          /* Abort the UART DMA Rx stream */
          if (huart->hdmarx != NULL)
 800574a:	687b      	ldr	r3, [r7, #4]
 800574c:	6b9b      	ldr	r3, [r3, #56]	; 0x38
 800574e:	2b00      	cmp	r3, #0
 8005750:	d013      	beq.n	800577a <HAL_UART_IRQHandler+0x20a>
          {
            /* Set the UART DMA Abort callback :
               will lead to call HAL_UART_ErrorCallback() at end of DMA abort procedure */
            huart->hdmarx->XferAbortCallback = UART_DMAAbortOnError;
 8005752:	687b      	ldr	r3, [r7, #4]
 8005754:	6b9b      	ldr	r3, [r3, #56]	; 0x38
 8005756:	4a7d      	ldr	r2, [pc, #500]	; (800594c <HAL_UART_IRQHandler+0x3dc>)
 8005758:	651a      	str	r2, [r3, #80]	; 0x50
            if (HAL_DMA_Abort_IT(huart->hdmarx) != HAL_OK)
 800575a:	687b      	ldr	r3, [r7, #4]
 800575c:	6b9b      	ldr	r3, [r3, #56]	; 0x38
 800575e:	4618      	mov	r0, r3
 8005760:	f7fe f8a3 	bl	80038aa <HAL_DMA_Abort_IT>
 8005764:	4603      	mov	r3, r0
 8005766:	2b00      	cmp	r3, #0
 8005768:	d016      	beq.n	8005798 <HAL_UART_IRQHandler+0x228>
            {
              /* Call Directly XferAbortCallback function in case of error */
              huart->hdmarx->XferAbortCallback(huart->hdmarx);
 800576a:	687b      	ldr	r3, [r7, #4]
 800576c:	6b9b      	ldr	r3, [r3, #56]	; 0x38
 800576e:	6d1b      	ldr	r3, [r3, #80]	; 0x50
 8005770:	687a      	ldr	r2, [r7, #4]
 8005772:	6b92      	ldr	r2, [r2, #56]	; 0x38
 8005774:	4610      	mov	r0, r2
 8005776:	4798      	blx	r3
        if (HAL_IS_BIT_SET(huart->Instance->CR3, USART_CR3_DMAR))
 8005778:	e00e      	b.n	8005798 <HAL_UART_IRQHandler+0x228>
#if (USE_HAL_UART_REGISTER_CALLBACKS == 1)
            /*Call registered error callback*/
            huart->ErrorCallback(huart);
#else
            /*Call legacy weak error callback*/
            HAL_UART_ErrorCallback(huart);
 800577a:	6878      	ldr	r0, [r7, #4]
 800577c:	f000 f99a 	bl	8005ab4 <HAL_UART_ErrorCallback>
        if (HAL_IS_BIT_SET(huart->Instance->CR3, USART_CR3_DMAR))
 8005780:	e00a      	b.n	8005798 <HAL_UART_IRQHandler+0x228>
#if (USE_HAL_UART_REGISTER_CALLBACKS == 1)
          /*Call registered error callback*/
          huart->ErrorCallback(huart);
#else
          /*Call legacy weak error callback*/
          HAL_UART_ErrorCallback(huart);
 8005782:	6878      	ldr	r0, [r7, #4]
 8005784:	f000 f996 	bl	8005ab4 <HAL_UART_ErrorCallback>
        if (HAL_IS_BIT_SET(huart->Instance->CR3, USART_CR3_DMAR))
 8005788:	e006      	b.n	8005798 <HAL_UART_IRQHandler+0x228>
#if (USE_HAL_UART_REGISTER_CALLBACKS == 1)
        /*Call registered error callback*/
        huart->ErrorCallback(huart);
#else
        /*Call legacy weak error callback*/
        HAL_UART_ErrorCallback(huart);
 800578a:	6878      	ldr	r0, [r7, #4]
 800578c:	f000 f992 	bl	8005ab4 <HAL_UART_ErrorCallback>
#endif /* USE_HAL_UART_REGISTER_CALLBACKS */

        huart->ErrorCode = HAL_UART_ERROR_NONE;
 8005790:	687b      	ldr	r3, [r7, #4]
 8005792:	2200      	movs	r2, #0
 8005794:	641a      	str	r2, [r3, #64]	; 0x40
      }
    }
    return;
 8005796:	e170      	b.n	8005a7a <HAL_UART_IRQHandler+0x50a>
        if (HAL_IS_BIT_SET(huart->Instance->CR3, USART_CR3_DMAR))
 8005798:	bf00      	nop
    return;
 800579a:	e16e      	b.n	8005a7a <HAL_UART_IRQHandler+0x50a>
  } /* End if some error occurs */

  /* Check current reception Mode :
     If Reception till IDLE event has been selected : */
  if ((huart->ReceptionType == HAL_UART_RECEPTION_TOIDLE)
 800579c:	687b      	ldr	r3, [r7, #4]
 800579e:	6b1b      	ldr	r3, [r3, #48]	; 0x30
 80057a0:	2b01      	cmp	r3, #1
 80057a2:	f040 814a 	bne.w	8005a3a <HAL_UART_IRQHandler+0x4ca>
      && ((isrflags & USART_SR_IDLE) != 0U)
 80057a6:	f8d7 30e4 	ldr.w	r3, [r7, #228]	; 0xe4
 80057aa:	f003 0310 	and.w	r3, r3, #16
 80057ae:	2b00      	cmp	r3, #0
 80057b0:	f000 8143 	beq.w	8005a3a <HAL_UART_IRQHandler+0x4ca>
      && ((cr1its & USART_SR_IDLE) != 0U))
 80057b4:	f8d7 30e0 	ldr.w	r3, [r7, #224]	; 0xe0
 80057b8:	f003 0310 	and.w	r3, r3, #16
 80057bc:	2b00      	cmp	r3, #0
 80057be:	f000 813c 	beq.w	8005a3a <HAL_UART_IRQHandler+0x4ca>
  {
    __HAL_UART_CLEAR_IDLEFLAG(huart);
 80057c2:	2300      	movs	r3, #0
 80057c4:	60bb      	str	r3, [r7, #8]
 80057c6:	687b      	ldr	r3, [r7, #4]
 80057c8:	681b      	ldr	r3, [r3, #0]
 80057ca:	681b      	ldr	r3, [r3, #0]
 80057cc:	60bb      	str	r3, [r7, #8]
 80057ce:	687b      	ldr	r3, [r7, #4]
 80057d0:	681b      	ldr	r3, [r3, #0]
 80057d2:	685b      	ldr	r3, [r3, #4]
 80057d4:	60bb      	str	r3, [r7, #8]
 80057d6:	68bb      	ldr	r3, [r7, #8]

    /* Check if DMA mode is enabled in UART */
    if (HAL_IS_BIT_SET(huart->Instance->CR3, USART_CR3_DMAR))
 80057d8:	687b      	ldr	r3, [r7, #4]
 80057da:	681b      	ldr	r3, [r3, #0]
 80057dc:	695b      	ldr	r3, [r3, #20]
 80057de:	f003 0340 	and.w	r3, r3, #64	; 0x40
 80057e2:	2b40      	cmp	r3, #64	; 0x40
 80057e4:	f040 80b4 	bne.w	8005950 <HAL_UART_IRQHandler+0x3e0>
    {
      /* DMA mode enabled */
      /* Check received length : If all expected data are received, do nothing,
         (DMA cplt callback will be called).
         Otherwise, if at least one data has already been received, IDLE event is to be notified to user */
      uint16_t nb_remaining_rx_data = (uint16_t) __HAL_DMA_GET_COUNTER(huart->hdmarx);
 80057e8:	687b      	ldr	r3, [r7, #4]
 80057ea:	6b9b      	ldr	r3, [r3, #56]	; 0x38
 80057ec:	681b      	ldr	r3, [r3, #0]
 80057ee:	685b      	ldr	r3, [r3, #4]
 80057f0:	f8a7 30be 	strh.w	r3, [r7, #190]	; 0xbe
      if ((nb_remaining_rx_data > 0U)
 80057f4:	f8b7 30be 	ldrh.w	r3, [r7, #190]	; 0xbe
 80057f8:	2b00      	cmp	r3, #0
 80057fa:	f000 8140 	beq.w	8005a7e <HAL_UART_IRQHandler+0x50e>
          && (nb_remaining_rx_data < huart->RxXferSize))
 80057fe:	687b      	ldr	r3, [r7, #4]
 8005800:	8d9b      	ldrh	r3, [r3, #44]	; 0x2c
 8005802:	f8b7 20be 	ldrh.w	r2, [r7, #190]	; 0xbe
 8005806:	429a      	cmp	r2, r3
 8005808:	f080 8139 	bcs.w	8005a7e <HAL_UART_IRQHandler+0x50e>
      {
        /* Reception is not complete */
        huart->RxXferCount = nb_remaining_rx_data;
 800580c:	687b      	ldr	r3, [r7, #4]
 800580e:	f8b7 20be 	ldrh.w	r2, [r7, #190]	; 0xbe
 8005812:	85da      	strh	r2, [r3, #46]	; 0x2e

        /* In Normal mode, end DMA xfer and HAL UART Rx process*/
        if (huart->hdmarx->Init.Mode != DMA_CIRCULAR)
 8005814:	687b      	ldr	r3, [r7, #4]
 8005816:	6b9b      	ldr	r3, [r3, #56]	; 0x38
 8005818:	69db      	ldr	r3, [r3, #28]
 800581a:	f5b3 7f80 	cmp.w	r3, #256	; 0x100
 800581e:	f000 8088 	beq.w	8005932 <HAL_UART_IRQHandler+0x3c2>
        {
          /* Disable PE and ERR (Frame error, noise error, overrun error) interrupts */
          ATOMIC_CLEAR_BIT(huart->Instance->CR1, USART_CR1_PEIE);
 8005822:	687b      	ldr	r3, [r7, #4]
 8005824:	681b      	ldr	r3, [r3, #0]
 8005826:	330c      	adds	r3, #12
 8005828:	f8c7 3088 	str.w	r3, [r7, #136]	; 0x88
   __ASM volatile ("ldrex %0, %1" : "=r" (result) : "Q" (*addr) );
 800582c:	f8d7 3088 	ldr.w	r3, [r7, #136]	; 0x88
 8005830:	e853 3f00 	ldrex	r3, [r3]
 8005834:	f8c7 3084 	str.w	r3, [r7, #132]	; 0x84
   return(result);
 8005838:	f8d7 3084 	ldr.w	r3, [r7, #132]	; 0x84
 800583c:	f423 7380 	bic.w	r3, r3, #256	; 0x100
 8005840:	f8c7 30b8 	str.w	r3, [r7, #184]	; 0xb8
 8005844:	687b      	ldr	r3, [r7, #4]
 8005846:	681b      	ldr	r3, [r3, #0]
 8005848:	330c      	adds	r3, #12
 800584a:	f8d7 20b8 	ldr.w	r2, [r7, #184]	; 0xb8
 800584e:	f8c7 2094 	str.w	r2, [r7, #148]	; 0x94
 8005852:	f8c7 3090 	str.w	r3, [r7, #144]	; 0x90
   __ASM volatile ("strex %0, %2, %1" : "=&r" (result), "=Q" (*addr) : "r" (value) );
 8005856:	f8d7 1090 	ldr.w	r1, [r7, #144]	; 0x90
 800585a:	f8d7 2094 	ldr.w	r2, [r7, #148]	; 0x94
 800585e:	e841 2300 	strex	r3, r2, [r1]
 8005862:	f8c7 308c 	str.w	r3, [r7, #140]	; 0x8c
   return(result);
 8005866:	f8d7 308c 	ldr.w	r3, [r7, #140]	; 0x8c
 800586a:	2b00      	cmp	r3, #0
 800586c:	d1d9      	bne.n	8005822 <HAL_UART_IRQHandler+0x2b2>
          ATOMIC_CLEAR_BIT(huart->Instance->CR3, USART_CR3_EIE);
 800586e:	687b      	ldr	r3, [r7, #4]
 8005870:	681b      	ldr	r3, [r3, #0]
 8005872:	3314      	adds	r3, #20
 8005874:	677b      	str	r3, [r7, #116]	; 0x74
   __ASM volatile ("ldrex %0, %1" : "=r" (result) : "Q" (*addr) );
 8005876:	6f7b      	ldr	r3, [r7, #116]	; 0x74
 8005878:	e853 3f00 	ldrex	r3, [r3]
 800587c:	673b      	str	r3, [r7, #112]	; 0x70
   return(result);
 800587e:	6f3b      	ldr	r3, [r7, #112]	; 0x70
 8005880:	f023 0301 	bic.w	r3, r3, #1
 8005884:	f8c7 30b4 	str.w	r3, [r7, #180]	; 0xb4
 8005888:	687b      	ldr	r3, [r7, #4]
 800588a:	681b      	ldr	r3, [r3, #0]
 800588c:	3314      	adds	r3, #20
 800588e:	f8d7 20b4 	ldr.w	r2, [r7, #180]	; 0xb4
 8005892:	f8c7 2080 	str.w	r2, [r7, #128]	; 0x80
 8005896:	67fb      	str	r3, [r7, #124]	; 0x7c
   __ASM volatile ("strex %0, %2, %1" : "=&r" (result), "=Q" (*addr) : "r" (value) );
 8005898:	6ff9      	ldr	r1, [r7, #124]	; 0x7c
 800589a:	f8d7 2080 	ldr.w	r2, [r7, #128]	; 0x80
 800589e:	e841 2300 	strex	r3, r2, [r1]
 80058a2:	67bb      	str	r3, [r7, #120]	; 0x78
   return(result);
 80058a4:	6fbb      	ldr	r3, [r7, #120]	; 0x78
 80058a6:	2b00      	cmp	r3, #0
 80058a8:	d1e1      	bne.n	800586e <HAL_UART_IRQHandler+0x2fe>

          /* Disable the DMA transfer for the receiver request by resetting the DMAR bit
             in the UART CR3 register */
          ATOMIC_CLEAR_BIT(huart->Instance->CR3, USART_CR3_DMAR);
 80058aa:	687b      	ldr	r3, [r7, #4]
 80058ac:	681b      	ldr	r3, [r3, #0]
 80058ae:	3314      	adds	r3, #20
 80058b0:	663b      	str	r3, [r7, #96]	; 0x60
   __ASM volatile ("ldrex %0, %1" : "=r" (result) : "Q" (*addr) );
 80058b2:	6e3b      	ldr	r3, [r7, #96]	; 0x60
 80058b4:	e853 3f00 	ldrex	r3, [r3]
 80058b8:	65fb      	str	r3, [r7, #92]	; 0x5c
   return(result);
 80058ba:	6dfb      	ldr	r3, [r7, #92]	; 0x5c
 80058bc:	f023 0340 	bic.w	r3, r3, #64	; 0x40
 80058c0:	f8c7 30b0 	str.w	r3, [r7, #176]	; 0xb0
 80058c4:	687b      	ldr	r3, [r7, #4]
 80058c6:	681b      	ldr	r3, [r3, #0]
 80058c8:	3314      	adds	r3, #20
 80058ca:	f8d7 20b0 	ldr.w	r2, [r7, #176]	; 0xb0
 80058ce:	66fa      	str	r2, [r7, #108]	; 0x6c
 80058d0:	66bb      	str	r3, [r7, #104]	; 0x68
   __ASM volatile ("strex %0, %2, %1" : "=&r" (result), "=Q" (*addr) : "r" (value) );
 80058d2:	6eb9      	ldr	r1, [r7, #104]	; 0x68
 80058d4:	6efa      	ldr	r2, [r7, #108]	; 0x6c
 80058d6:	e841 2300 	strex	r3, r2, [r1]
 80058da:	667b      	str	r3, [r7, #100]	; 0x64
   return(result);
 80058dc:	6e7b      	ldr	r3, [r7, #100]	; 0x64
 80058de:	2b00      	cmp	r3, #0
 80058e0:	d1e3      	bne.n	80058aa <HAL_UART_IRQHandler+0x33a>

          /* At end of Rx process, restore huart->RxState to Ready */
          huart->RxState = HAL_UART_STATE_READY;
 80058e2:	687b      	ldr	r3, [r7, #4]
 80058e4:	2220      	movs	r2, #32
 80058e6:	f883 203e 	strb.w	r2, [r3, #62]	; 0x3e
          huart->ReceptionType = HAL_UART_RECEPTION_STANDARD;
 80058ea:	687b      	ldr	r3, [r7, #4]
 80058ec:	2200      	movs	r2, #0
 80058ee:	631a      	str	r2, [r3, #48]	; 0x30

          ATOMIC_CLEAR_BIT(huart->Instance->CR1, USART_CR1_IDLEIE);
 80058f0:	687b      	ldr	r3, [r7, #4]
 80058f2:	681b      	ldr	r3, [r3, #0]
 80058f4:	330c      	adds	r3, #12
 80058f6:	64fb      	str	r3, [r7, #76]	; 0x4c
   __ASM volatile ("ldrex %0, %1" : "=r" (result) : "Q" (*addr) );
 80058f8:	6cfb      	ldr	r3, [r7, #76]	; 0x4c
 80058fa:	e853 3f00 	ldrex	r3, [r3]
 80058fe:	64bb      	str	r3, [r7, #72]	; 0x48
   return(result);
 8005900:	6cbb      	ldr	r3, [r7, #72]	; 0x48
 8005902:	f023 0310 	bic.w	r3, r3, #16
 8005906:	f8c7 30ac 	str.w	r3, [r7, #172]	; 0xac
 800590a:	687b      	ldr	r3, [r7, #4]
 800590c:	681b      	ldr	r3, [r3, #0]
 800590e:	330c      	adds	r3, #12
 8005910:	f8d7 20ac 	ldr.w	r2, [r7, #172]	; 0xac
 8005914:	65ba      	str	r2, [r7, #88]	; 0x58
 8005916:	657b      	str	r3, [r7, #84]	; 0x54
   __ASM volatile ("strex %0, %2, %1" : "=&r" (result), "=Q" (*addr) : "r" (value) );
 8005918:	6d79      	ldr	r1, [r7, #84]	; 0x54
 800591a:	6dba      	ldr	r2, [r7, #88]	; 0x58
 800591c:	e841 2300 	strex	r3, r2, [r1]
 8005920:	653b      	str	r3, [r7, #80]	; 0x50
   return(result);
 8005922:	6d3b      	ldr	r3, [r7, #80]	; 0x50
 8005924:	2b00      	cmp	r3, #0
 8005926:	d1e3      	bne.n	80058f0 <HAL_UART_IRQHandler+0x380>

          /* Last bytes received, so no need as the abort is immediate */
          (void)HAL_DMA_Abort(huart->hdmarx);
 8005928:	687b      	ldr	r3, [r7, #4]
 800592a:	6b9b      	ldr	r3, [r3, #56]	; 0x38
 800592c:	4618      	mov	r0, r3
 800592e:	f7fd ff4c 	bl	80037ca <HAL_DMA_Abort>
#if (USE_HAL_UART_REGISTER_CALLBACKS == 1)
        /*Call registered Rx Event callback*/
        huart->RxEventCallback(huart, (huart->RxXferSize - huart->RxXferCount));
#else
        /*Call legacy weak Rx Event callback*/
        HAL_UARTEx_RxEventCallback(huart, (huart->RxXferSize - huart->RxXferCount));
 8005932:	687b      	ldr	r3, [r7, #4]
 8005934:	8d9a      	ldrh	r2, [r3, #44]	; 0x2c
 8005936:	687b      	ldr	r3, [r7, #4]
 8005938:	8ddb      	ldrh	r3, [r3, #46]	; 0x2e
 800593a:	b29b      	uxth	r3, r3
 800593c:	1ad3      	subs	r3, r2, r3
 800593e:	b29b      	uxth	r3, r3
 8005940:	4619      	mov	r1, r3
 8005942:	6878      	ldr	r0, [r7, #4]
 8005944:	f000 f8c0 	bl	8005ac8 <HAL_UARTEx_RxEventCallback>
#endif /* USE_HAL_UART_REGISTER_CALLBACKS */
      }
      return;
 8005948:	e099      	b.n	8005a7e <HAL_UART_IRQHandler+0x50e>
 800594a:	bf00      	nop
 800594c:	08005ba7 	.word	0x08005ba7
    else
    {
      /* DMA mode not enabled */
      /* Check received length : If all expected data are received, do nothing.
         Otherwise, if at least one data has already been received, IDLE event is to be notified to user */
      uint16_t nb_rx_data = huart->RxXferSize - huart->RxXferCount;
 8005950:	687b      	ldr	r3, [r7, #4]
 8005952:	8d9a      	ldrh	r2, [r3, #44]	; 0x2c
 8005954:	687b      	ldr	r3, [r7, #4]
 8005956:	8ddb      	ldrh	r3, [r3, #46]	; 0x2e
 8005958:	b29b      	uxth	r3, r3
 800595a:	1ad3      	subs	r3, r2, r3
 800595c:	f8a7 30ce 	strh.w	r3, [r7, #206]	; 0xce
      if ((huart->RxXferCount > 0U)
 8005960:	687b      	ldr	r3, [r7, #4]
 8005962:	8ddb      	ldrh	r3, [r3, #46]	; 0x2e
 8005964:	b29b      	uxth	r3, r3
 8005966:	2b00      	cmp	r3, #0
 8005968:	f000 808b 	beq.w	8005a82 <HAL_UART_IRQHandler+0x512>
          && (nb_rx_data > 0U))
 800596c:	f8b7 30ce 	ldrh.w	r3, [r7, #206]	; 0xce
 8005970:	2b00      	cmp	r3, #0
 8005972:	f000 8086 	beq.w	8005a82 <HAL_UART_IRQHandler+0x512>
      {
        /* Disable the UART Parity Error Interrupt and RXNE interrupts */
        ATOMIC_CLEAR_BIT(huart->Instance->CR1, (USART_CR1_RXNEIE | USART_CR1_PEIE));
 8005976:	687b      	ldr	r3, [r7, #4]
 8005978:	681b      	ldr	r3, [r3, #0]
 800597a:	330c      	adds	r3, #12
 800597c:	63bb      	str	r3, [r7, #56]	; 0x38
   __ASM volatile ("ldrex %0, %1" : "=r" (result) : "Q" (*addr) );
 800597e:	6bbb      	ldr	r3, [r7, #56]	; 0x38
 8005980:	e853 3f00 	ldrex	r3, [r3]
 8005984:	637b      	str	r3, [r7, #52]	; 0x34
   return(result);
 8005986:	6b7b      	ldr	r3, [r7, #52]	; 0x34
 8005988:	f423 7390 	bic.w	r3, r3, #288	; 0x120
 800598c:	f8c7 30c8 	str.w	r3, [r7, #200]	; 0xc8
 8005990:	687b      	ldr	r3, [r7, #4]
 8005992:	681b      	ldr	r3, [r3, #0]
 8005994:	330c      	adds	r3, #12
 8005996:	f8d7 20c8 	ldr.w	r2, [r7, #200]	; 0xc8
 800599a:	647a      	str	r2, [r7, #68]	; 0x44
 800599c:	643b      	str	r3, [r7, #64]	; 0x40
   __ASM volatile ("strex %0, %2, %1" : "=&r" (result), "=Q" (*addr) : "r" (value) );
 800599e:	6c39      	ldr	r1, [r7, #64]	; 0x40
 80059a0:	6c7a      	ldr	r2, [r7, #68]	; 0x44
 80059a2:	e841 2300 	strex	r3, r2, [r1]
 80059a6:	63fb      	str	r3, [r7, #60]	; 0x3c
   return(result);
 80059a8:	6bfb      	ldr	r3, [r7, #60]	; 0x3c
 80059aa:	2b00      	cmp	r3, #0
 80059ac:	d1e3      	bne.n	8005976 <HAL_UART_IRQHandler+0x406>

        /* Disable the UART Error Interrupt: (Frame error, noise error, overrun error) */
        ATOMIC_CLEAR_BIT(huart->Instance->CR3, USART_CR3_EIE);
 80059ae:	687b      	ldr	r3, [r7, #4]
 80059b0:	681b      	ldr	r3, [r3, #0]
 80059b2:	3314      	adds	r3, #20
 80059b4:	627b      	str	r3, [r7, #36]	; 0x24
   __ASM volatile ("ldrex %0, %1" : "=r" (result) : "Q" (*addr) );
 80059b6:	6a7b      	ldr	r3, [r7, #36]	; 0x24
 80059b8:	e853 3f00 	ldrex	r3, [r3]
 80059bc:	623b      	str	r3, [r7, #32]
   return(result);
 80059be:	6a3b      	ldr	r3, [r7, #32]
 80059c0:	f023 0301 	bic.w	r3, r3, #1
 80059c4:	f8c7 30c4 	str.w	r3, [r7, #196]	; 0xc4
 80059c8:	687b      	ldr	r3, [r7, #4]
 80059ca:	681b      	ldr	r3, [r3, #0]
 80059cc:	3314      	adds	r3, #20
 80059ce:	f8d7 20c4 	ldr.w	r2, [r7, #196]	; 0xc4
 80059d2:	633a      	str	r2, [r7, #48]	; 0x30
 80059d4:	62fb      	str	r3, [r7, #44]	; 0x2c
   __ASM volatile ("strex %0, %2, %1" : "=&r" (result), "=Q" (*addr) : "r" (value) );
 80059d6:	6af9      	ldr	r1, [r7, #44]	; 0x2c
 80059d8:	6b3a      	ldr	r2, [r7, #48]	; 0x30
 80059da:	e841 2300 	strex	r3, r2, [r1]
 80059de:	62bb      	str	r3, [r7, #40]	; 0x28
   return(result);
 80059e0:	6abb      	ldr	r3, [r7, #40]	; 0x28
 80059e2:	2b00      	cmp	r3, #0
 80059e4:	d1e3      	bne.n	80059ae <HAL_UART_IRQHandler+0x43e>

        /* Rx process is completed, restore huart->RxState to Ready */
        huart->RxState = HAL_UART_STATE_READY;
 80059e6:	687b      	ldr	r3, [r7, #4]
 80059e8:	2220      	movs	r2, #32
 80059ea:	f883 203e 	strb.w	r2, [r3, #62]	; 0x3e
        huart->ReceptionType = HAL_UART_RECEPTION_STANDARD;
 80059ee:	687b      	ldr	r3, [r7, #4]
 80059f0:	2200      	movs	r2, #0
 80059f2:	631a      	str	r2, [r3, #48]	; 0x30

        ATOMIC_CLEAR_BIT(huart->Instance->CR1, USART_CR1_IDLEIE);
 80059f4:	687b      	ldr	r3, [r7, #4]
 80059f6:	681b      	ldr	r3, [r3, #0]
 80059f8:	330c      	adds	r3, #12
 80059fa:	613b      	str	r3, [r7, #16]
   __ASM volatile ("ldrex %0, %1" : "=r" (result) : "Q" (*addr) );
 80059fc:	693b      	ldr	r3, [r7, #16]
 80059fe:	e853 3f00 	ldrex	r3, [r3]
 8005a02:	60fb      	str	r3, [r7, #12]
   return(result);
 8005a04:	68fb      	ldr	r3, [r7, #12]
 8005a06:	f023 0310 	bic.w	r3, r3, #16
 8005a0a:	f8c7 30c0 	str.w	r3, [r7, #192]	; 0xc0
 8005a0e:	687b      	ldr	r3, [r7, #4]
 8005a10:	681b      	ldr	r3, [r3, #0]
 8005a12:	330c      	adds	r3, #12
 8005a14:	f8d7 20c0 	ldr.w	r2, [r7, #192]	; 0xc0
 8005a18:	61fa      	str	r2, [r7, #28]
 8005a1a:	61bb      	str	r3, [r7, #24]
   __ASM volatile ("strex %0, %2, %1" : "=&r" (result), "=Q" (*addr) : "r" (value) );
 8005a1c:	69b9      	ldr	r1, [r7, #24]
 8005a1e:	69fa      	ldr	r2, [r7, #28]
 8005a20:	e841 2300 	strex	r3, r2, [r1]
 8005a24:	617b      	str	r3, [r7, #20]
   return(result);
 8005a26:	697b      	ldr	r3, [r7, #20]
 8005a28:	2b00      	cmp	r3, #0
 8005a2a:	d1e3      	bne.n	80059f4 <HAL_UART_IRQHandler+0x484>
#if (USE_HAL_UART_REGISTER_CALLBACKS == 1)
        /*Call registered Rx complete callback*/
        huart->RxEventCallback(huart, nb_rx_data);
#else
        /*Call legacy weak Rx Event callback*/
        HAL_UARTEx_RxEventCallback(huart, nb_rx_data);
 8005a2c:	f8b7 30ce 	ldrh.w	r3, [r7, #206]	; 0xce
 8005a30:	4619      	mov	r1, r3
 8005a32:	6878      	ldr	r0, [r7, #4]
 8005a34:	f000 f848 	bl	8005ac8 <HAL_UARTEx_RxEventCallback>
#endif /* USE_HAL_UART_REGISTER_CALLBACKS */
      }
      return;
 8005a38:	e023      	b.n	8005a82 <HAL_UART_IRQHandler+0x512>
    }
  }

  /* UART in mode Transmitter ------------------------------------------------*/
  if (((isrflags & USART_SR_TXE) != RESET) && ((cr1its & USART_CR1_TXEIE) != RESET))
 8005a3a:	f8d7 30e4 	ldr.w	r3, [r7, #228]	; 0xe4
 8005a3e:	f003 0380 	and.w	r3, r3, #128	; 0x80
 8005a42:	2b00      	cmp	r3, #0
 8005a44:	d009      	beq.n	8005a5a <HAL_UART_IRQHandler+0x4ea>
 8005a46:	f8d7 30e0 	ldr.w	r3, [r7, #224]	; 0xe0
 8005a4a:	f003 0380 	and.w	r3, r3, #128	; 0x80
 8005a4e:	2b00      	cmp	r3, #0
 8005a50:	d003      	beq.n	8005a5a <HAL_UART_IRQHandler+0x4ea>
  {
    UART_Transmit_IT(huart);
 8005a52:	6878      	ldr	r0, [r7, #4]
 8005a54:	f000 f8bb 	bl	8005bce <UART_Transmit_IT>
    return;
 8005a58:	e014      	b.n	8005a84 <HAL_UART_IRQHandler+0x514>
  }

  /* UART in mode Transmitter end --------------------------------------------*/
  if (((isrflags & USART_SR_TC) != RESET) && ((cr1its & USART_CR1_TCIE) != RESET))
 8005a5a:	f8d7 30e4 	ldr.w	r3, [r7, #228]	; 0xe4
 8005a5e:	f003 0340 	and.w	r3, r3, #64	; 0x40
 8005a62:	2b00      	cmp	r3, #0
 8005a64:	d00e      	beq.n	8005a84 <HAL_UART_IRQHandler+0x514>
 8005a66:	f8d7 30e0 	ldr.w	r3, [r7, #224]	; 0xe0
 8005a6a:	f003 0340 	and.w	r3, r3, #64	; 0x40
 8005a6e:	2b00      	cmp	r3, #0
 8005a70:	d008      	beq.n	8005a84 <HAL_UART_IRQHandler+0x514>
  {
    UART_EndTransmit_IT(huart);
 8005a72:	6878      	ldr	r0, [r7, #4]
 8005a74:	f000 f8fb 	bl	8005c6e <UART_EndTransmit_IT>
    return;
 8005a78:	e004      	b.n	8005a84 <HAL_UART_IRQHandler+0x514>
    return;
 8005a7a:	bf00      	nop
 8005a7c:	e002      	b.n	8005a84 <HAL_UART_IRQHandler+0x514>
      return;
 8005a7e:	bf00      	nop
 8005a80:	e000      	b.n	8005a84 <HAL_UART_IRQHandler+0x514>
      return;
 8005a82:	bf00      	nop
  }
}
 8005a84:	37e8      	adds	r7, #232	; 0xe8
 8005a86:	46bd      	mov	sp, r7
 8005a88:	bd80      	pop	{r7, pc}
 8005a8a:	bf00      	nop

08005a8c <HAL_UART_TxCpltCallback>:
  * @param  huart  Pointer to a UART_HandleTypeDef structure that contains
  *                the configuration information for the specified UART module.
  * @retval None
  */
__weak void HAL_UART_TxCpltCallback(UART_HandleTypeDef *huart)
{
 8005a8c:	b480      	push	{r7}
 8005a8e:	b083      	sub	sp, #12
 8005a90:	af00      	add	r7, sp, #0
 8005a92:	6078      	str	r0, [r7, #4]
  /* Prevent unused argument(s) compilation warning */
  UNUSED(huart);
  /* NOTE: This function should not be modified, when the callback is needed,
           the HAL_UART_TxCpltCallback could be implemented in the user file
   */
}
 8005a94:	bf00      	nop
 8005a96:	370c      	adds	r7, #12
 8005a98:	46bd      	mov	sp, r7
 8005a9a:	f85d 7b04 	ldr.w	r7, [sp], #4
 8005a9e:	4770      	bx	lr

08005aa0 <HAL_UART_RxCpltCallback>:
  * @param  huart  Pointer to a UART_HandleTypeDef structure that contains
  *                the configuration information for the specified UART module.
  * @retval None
  */
__weak void HAL_UART_RxCpltCallback(UART_HandleTypeDef *huart)
{
 8005aa0:	b480      	push	{r7}
 8005aa2:	b083      	sub	sp, #12
 8005aa4:	af00      	add	r7, sp, #0
 8005aa6:	6078      	str	r0, [r7, #4]
  /* Prevent unused argument(s) compilation warning */
  UNUSED(huart);
  /* NOTE: This function should not be modified, when the callback is needed,
           the HAL_UART_RxCpltCallback could be implemented in the user file
   */
}
 8005aa8:	bf00      	nop
 8005aaa:	370c      	adds	r7, #12
 8005aac:	46bd      	mov	sp, r7
 8005aae:	f85d 7b04 	ldr.w	r7, [sp], #4
 8005ab2:	4770      	bx	lr

08005ab4 <HAL_UART_ErrorCallback>:
  * @param  huart  Pointer to a UART_HandleTypeDef structure that contains
  *                the configuration information for the specified UART module.
  * @retval None
  */
__weak void HAL_UART_ErrorCallback(UART_HandleTypeDef *huart)
{
 8005ab4:	b480      	push	{r7}
 8005ab6:	b083      	sub	sp, #12
 8005ab8:	af00      	add	r7, sp, #0
 8005aba:	6078      	str	r0, [r7, #4]
  /* Prevent unused argument(s) compilation warning */
  UNUSED(huart);
  /* NOTE: This function should not be modified, when the callback is needed,
           the HAL_UART_ErrorCallback could be implemented in the user file
   */
}
 8005abc:	bf00      	nop
 8005abe:	370c      	adds	r7, #12
 8005ac0:	46bd      	mov	sp, r7
 8005ac2:	f85d 7b04 	ldr.w	r7, [sp], #4
 8005ac6:	4770      	bx	lr

08005ac8 <HAL_UARTEx_RxEventCallback>:
  * @param  Size  Number of data available in application reception buffer (indicates a position in
  *               reception buffer until which, data are available)
  * @retval None
  */
__weak void HAL_UARTEx_RxEventCallback(UART_HandleTypeDef *huart, uint16_t Size)
{
 8005ac8:	b480      	push	{r7}
 8005aca:	b083      	sub	sp, #12
 8005acc:	af00      	add	r7, sp, #0
 8005ace:	6078      	str	r0, [r7, #4]
 8005ad0:	460b      	mov	r3, r1
 8005ad2:	807b      	strh	r3, [r7, #2]
  UNUSED(Size);

  /* NOTE : This function should not be modified, when the callback is needed,
            the HAL_UARTEx_RxEventCallback can be implemented in the user file.
   */
}
 8005ad4:	bf00      	nop
 8005ad6:	370c      	adds	r7, #12
 8005ad8:	46bd      	mov	sp, r7
 8005ada:	f85d 7b04 	ldr.w	r7, [sp], #4
 8005ade:	4770      	bx	lr

08005ae0 <UART_EndRxTransfer>:
  * @brief  End ongoing Rx transfer on UART peripheral (following error detection or Reception completion).
  * @param  huart UART handle.
  * @retval None
  */
static void UART_EndRxTransfer(UART_HandleTypeDef *huart)
{
 8005ae0:	b480      	push	{r7}
 8005ae2:	b095      	sub	sp, #84	; 0x54
 8005ae4:	af00      	add	r7, sp, #0
 8005ae6:	6078      	str	r0, [r7, #4]
  /* Disable RXNE, PE and ERR (Frame error, noise error, overrun error) interrupts */
  ATOMIC_CLEAR_BIT(huart->Instance->CR1, (USART_CR1_RXNEIE | USART_CR1_PEIE));
 8005ae8:	687b      	ldr	r3, [r7, #4]
 8005aea:	681b      	ldr	r3, [r3, #0]
 8005aec:	330c      	adds	r3, #12
 8005aee:	637b      	str	r3, [r7, #52]	; 0x34
   __ASM volatile ("ldrex %0, %1" : "=r" (result) : "Q" (*addr) );
 8005af0:	6b7b      	ldr	r3, [r7, #52]	; 0x34
 8005af2:	e853 3f00 	ldrex	r3, [r3]
 8005af6:	633b      	str	r3, [r7, #48]	; 0x30
   return(result);
 8005af8:	6b3b      	ldr	r3, [r7, #48]	; 0x30
 8005afa:	f423 7390 	bic.w	r3, r3, #288	; 0x120
 8005afe:	64fb      	str	r3, [r7, #76]	; 0x4c
 8005b00:	687b      	ldr	r3, [r7, #4]
 8005b02:	681b      	ldr	r3, [r3, #0]
 8005b04:	330c      	adds	r3, #12
 8005b06:	6cfa      	ldr	r2, [r7, #76]	; 0x4c
 8005b08:	643a      	str	r2, [r7, #64]	; 0x40
 8005b0a:	63fb      	str	r3, [r7, #60]	; 0x3c
   __ASM volatile ("strex %0, %2, %1" : "=&r" (result), "=Q" (*addr) : "r" (value) );
 8005b0c:	6bf9      	ldr	r1, [r7, #60]	; 0x3c
 8005b0e:	6c3a      	ldr	r2, [r7, #64]	; 0x40
 8005b10:	e841 2300 	strex	r3, r2, [r1]
 8005b14:	63bb      	str	r3, [r7, #56]	; 0x38
   return(result);
 8005b16:	6bbb      	ldr	r3, [r7, #56]	; 0x38
 8005b18:	2b00      	cmp	r3, #0
 8005b1a:	d1e5      	bne.n	8005ae8 <UART_EndRxTransfer+0x8>
  ATOMIC_CLEAR_BIT(huart->Instance->CR3, USART_CR3_EIE);
 8005b1c:	687b      	ldr	r3, [r7, #4]
 8005b1e:	681b      	ldr	r3, [r3, #0]
 8005b20:	3314      	adds	r3, #20
 8005b22:	623b      	str	r3, [r7, #32]
   __ASM volatile ("ldrex %0, %1" : "=r" (result) : "Q" (*addr) );
 8005b24:	6a3b      	ldr	r3, [r7, #32]
 8005b26:	e853 3f00 	ldrex	r3, [r3]
 8005b2a:	61fb      	str	r3, [r7, #28]
   return(result);
 8005b2c:	69fb      	ldr	r3, [r7, #28]
 8005b2e:	f023 0301 	bic.w	r3, r3, #1
 8005b32:	64bb      	str	r3, [r7, #72]	; 0x48
 8005b34:	687b      	ldr	r3, [r7, #4]
 8005b36:	681b      	ldr	r3, [r3, #0]
 8005b38:	3314      	adds	r3, #20
 8005b3a:	6cba      	ldr	r2, [r7, #72]	; 0x48
 8005b3c:	62fa      	str	r2, [r7, #44]	; 0x2c
 8005b3e:	62bb      	str	r3, [r7, #40]	; 0x28
   __ASM volatile ("strex %0, %2, %1" : "=&r" (result), "=Q" (*addr) : "r" (value) );
 8005b40:	6ab9      	ldr	r1, [r7, #40]	; 0x28
 8005b42:	6afa      	ldr	r2, [r7, #44]	; 0x2c
 8005b44:	e841 2300 	strex	r3, r2, [r1]
 8005b48:	627b      	str	r3, [r7, #36]	; 0x24
   return(result);
 8005b4a:	6a7b      	ldr	r3, [r7, #36]	; 0x24
 8005b4c:	2b00      	cmp	r3, #0
 8005b4e:	d1e5      	bne.n	8005b1c <UART_EndRxTransfer+0x3c>

  /* In case of reception waiting for IDLE event, disable also the IDLE IE interrupt source */
  if (huart->ReceptionType == HAL_UART_RECEPTION_TOIDLE)
 8005b50:	687b      	ldr	r3, [r7, #4]
 8005b52:	6b1b      	ldr	r3, [r3, #48]	; 0x30
 8005b54:	2b01      	cmp	r3, #1
 8005b56:	d119      	bne.n	8005b8c <UART_EndRxTransfer+0xac>
  {
    ATOMIC_CLEAR_BIT(huart->Instance->CR1, USART_CR1_IDLEIE);
 8005b58:	687b      	ldr	r3, [r7, #4]
 8005b5a:	681b      	ldr	r3, [r3, #0]
 8005b5c:	330c      	adds	r3, #12
 8005b5e:	60fb      	str	r3, [r7, #12]
   __ASM volatile ("ldrex %0, %1" : "=r" (result) : "Q" (*addr) );
 8005b60:	68fb      	ldr	r3, [r7, #12]
 8005b62:	e853 3f00 	ldrex	r3, [r3]
 8005b66:	60bb      	str	r3, [r7, #8]
   return(result);
 8005b68:	68bb      	ldr	r3, [r7, #8]
 8005b6a:	f023 0310 	bic.w	r3, r3, #16
 8005b6e:	647b      	str	r3, [r7, #68]	; 0x44
 8005b70:	687b      	ldr	r3, [r7, #4]
 8005b72:	681b      	ldr	r3, [r3, #0]
 8005b74:	330c      	adds	r3, #12
 8005b76:	6c7a      	ldr	r2, [r7, #68]	; 0x44
 8005b78:	61ba      	str	r2, [r7, #24]
 8005b7a:	617b      	str	r3, [r7, #20]
   __ASM volatile ("strex %0, %2, %1" : "=&r" (result), "=Q" (*addr) : "r" (value) );
 8005b7c:	6979      	ldr	r1, [r7, #20]
 8005b7e:	69ba      	ldr	r2, [r7, #24]
 8005b80:	e841 2300 	strex	r3, r2, [r1]
 8005b84:	613b      	str	r3, [r7, #16]
   return(result);
 8005b86:	693b      	ldr	r3, [r7, #16]
 8005b88:	2b00      	cmp	r3, #0
 8005b8a:	d1e5      	bne.n	8005b58 <UART_EndRxTransfer+0x78>
  }

  /* At end of Rx process, restore huart->RxState to Ready */
  huart->RxState = HAL_UART_STATE_READY;
 8005b8c:	687b      	ldr	r3, [r7, #4]
 8005b8e:	2220      	movs	r2, #32
 8005b90:	f883 203e 	strb.w	r2, [r3, #62]	; 0x3e
  huart->ReceptionType = HAL_UART_RECEPTION_STANDARD;
 8005b94:	687b      	ldr	r3, [r7, #4]
 8005b96:	2200      	movs	r2, #0
 8005b98:	631a      	str	r2, [r3, #48]	; 0x30
}
 8005b9a:	bf00      	nop
 8005b9c:	3754      	adds	r7, #84	; 0x54
 8005b9e:	46bd      	mov	sp, r7
 8005ba0:	f85d 7b04 	ldr.w	r7, [sp], #4
 8005ba4:	4770      	bx	lr

08005ba6 <UART_DMAAbortOnError>:
  * @param  hdma  Pointer to a DMA_HandleTypeDef structure that contains
  *               the configuration information for the specified DMA module.
  * @retval None
  */
static void UART_DMAAbortOnError(DMA_HandleTypeDef *hdma)
{
 8005ba6:	b580      	push	{r7, lr}
 8005ba8:	b084      	sub	sp, #16
 8005baa:	af00      	add	r7, sp, #0
 8005bac:	6078      	str	r0, [r7, #4]
  UART_HandleTypeDef *huart = (UART_HandleTypeDef *)((DMA_HandleTypeDef *)hdma)->Parent;
 8005bae:	687b      	ldr	r3, [r7, #4]
 8005bb0:	6b9b      	ldr	r3, [r3, #56]	; 0x38
 8005bb2:	60fb      	str	r3, [r7, #12]
  huart->RxXferCount = 0x00U;
 8005bb4:	68fb      	ldr	r3, [r7, #12]
 8005bb6:	2200      	movs	r2, #0
 8005bb8:	85da      	strh	r2, [r3, #46]	; 0x2e
  huart->TxXferCount = 0x00U;
 8005bba:	68fb      	ldr	r3, [r7, #12]
 8005bbc:	2200      	movs	r2, #0
 8005bbe:	84da      	strh	r2, [r3, #38]	; 0x26
#if (USE_HAL_UART_REGISTER_CALLBACKS == 1)
  /*Call registered error callback*/
  huart->ErrorCallback(huart);
#else
  /*Call legacy weak error callback*/
  HAL_UART_ErrorCallback(huart);
 8005bc0:	68f8      	ldr	r0, [r7, #12]
 8005bc2:	f7ff ff77 	bl	8005ab4 <HAL_UART_ErrorCallback>
#endif /* USE_HAL_UART_REGISTER_CALLBACKS */
}
 8005bc6:	bf00      	nop
 8005bc8:	3710      	adds	r7, #16
 8005bca:	46bd      	mov	sp, r7
 8005bcc:	bd80      	pop	{r7, pc}

08005bce <UART_Transmit_IT>:
  * @param  huart  Pointer to a UART_HandleTypeDef structure that contains
  *                the configuration information for the specified UART module.
  * @retval HAL status
  */
static HAL_StatusTypeDef UART_Transmit_IT(UART_HandleTypeDef *huart)
{
 8005bce:	b480      	push	{r7}
 8005bd0:	b085      	sub	sp, #20
 8005bd2:	af00      	add	r7, sp, #0
 8005bd4:	6078      	str	r0, [r7, #4]
  const uint16_t *tmp;

  /* Check that a Tx process is ongoing */
  if (huart->gState == HAL_UART_STATE_BUSY_TX)
 8005bd6:	687b      	ldr	r3, [r7, #4]
 8005bd8:	f893 303d 	ldrb.w	r3, [r3, #61]	; 0x3d
 8005bdc:	b2db      	uxtb	r3, r3
 8005bde:	2b21      	cmp	r3, #33	; 0x21
 8005be0:	d13e      	bne.n	8005c60 <UART_Transmit_IT+0x92>
  {
    if ((huart->Init.WordLength == UART_WORDLENGTH_9B) && (huart->Init.Parity == UART_PARITY_NONE))
 8005be2:	687b      	ldr	r3, [r7, #4]
 8005be4:	689b      	ldr	r3, [r3, #8]
 8005be6:	f5b3 5f80 	cmp.w	r3, #4096	; 0x1000
 8005bea:	d114      	bne.n	8005c16 <UART_Transmit_IT+0x48>
 8005bec:	687b      	ldr	r3, [r7, #4]
 8005bee:	691b      	ldr	r3, [r3, #16]
 8005bf0:	2b00      	cmp	r3, #0
 8005bf2:	d110      	bne.n	8005c16 <UART_Transmit_IT+0x48>
    {
      tmp = (const uint16_t *) huart->pTxBuffPtr;
 8005bf4:	687b      	ldr	r3, [r7, #4]
 8005bf6:	6a1b      	ldr	r3, [r3, #32]
 8005bf8:	60fb      	str	r3, [r7, #12]
      huart->Instance->DR = (uint16_t)(*tmp & (uint16_t)0x01FF);
 8005bfa:	68fb      	ldr	r3, [r7, #12]
 8005bfc:	881b      	ldrh	r3, [r3, #0]
 8005bfe:	461a      	mov	r2, r3
 8005c00:	687b      	ldr	r3, [r7, #4]
 8005c02:	681b      	ldr	r3, [r3, #0]
 8005c04:	f3c2 0208 	ubfx	r2, r2, #0, #9
 8005c08:	605a      	str	r2, [r3, #4]
      huart->pTxBuffPtr += 2U;
 8005c0a:	687b      	ldr	r3, [r7, #4]
 8005c0c:	6a1b      	ldr	r3, [r3, #32]
 8005c0e:	1c9a      	adds	r2, r3, #2
 8005c10:	687b      	ldr	r3, [r7, #4]
 8005c12:	621a      	str	r2, [r3, #32]
 8005c14:	e008      	b.n	8005c28 <UART_Transmit_IT+0x5a>
    }
    else
    {
      huart->Instance->DR = (uint8_t)(*huart->pTxBuffPtr++ & (uint8_t)0x00FF);
 8005c16:	687b      	ldr	r3, [r7, #4]
 8005c18:	6a1b      	ldr	r3, [r3, #32]
 8005c1a:	1c59      	adds	r1, r3, #1
 8005c1c:	687a      	ldr	r2, [r7, #4]
 8005c1e:	6211      	str	r1, [r2, #32]
 8005c20:	781a      	ldrb	r2, [r3, #0]
 8005c22:	687b      	ldr	r3, [r7, #4]
 8005c24:	681b      	ldr	r3, [r3, #0]
 8005c26:	605a      	str	r2, [r3, #4]
    }

    if (--huart->TxXferCount == 0U)
 8005c28:	687b      	ldr	r3, [r7, #4]
 8005c2a:	8cdb      	ldrh	r3, [r3, #38]	; 0x26
 8005c2c:	b29b      	uxth	r3, r3
 8005c2e:	3b01      	subs	r3, #1
 8005c30:	b29b      	uxth	r3, r3
 8005c32:	687a      	ldr	r2, [r7, #4]
 8005c34:	4619      	mov	r1, r3
 8005c36:	84d1      	strh	r1, [r2, #38]	; 0x26
 8005c38:	2b00      	cmp	r3, #0
 8005c3a:	d10f      	bne.n	8005c5c <UART_Transmit_IT+0x8e>
    {
      /* Disable the UART Transmit Data Register Empty Interrupt */
      __HAL_UART_DISABLE_IT(huart, UART_IT_TXE);
 8005c3c:	687b      	ldr	r3, [r7, #4]
 8005c3e:	681b      	ldr	r3, [r3, #0]
 8005c40:	68da      	ldr	r2, [r3, #12]
 8005c42:	687b      	ldr	r3, [r7, #4]
 8005c44:	681b      	ldr	r3, [r3, #0]
 8005c46:	f022 0280 	bic.w	r2, r2, #128	; 0x80
 8005c4a:	60da      	str	r2, [r3, #12]

      /* Enable the UART Transmit Complete Interrupt */
      __HAL_UART_ENABLE_IT(huart, UART_IT_TC);
 8005c4c:	687b      	ldr	r3, [r7, #4]
 8005c4e:	681b      	ldr	r3, [r3, #0]
 8005c50:	68da      	ldr	r2, [r3, #12]
 8005c52:	687b      	ldr	r3, [r7, #4]
 8005c54:	681b      	ldr	r3, [r3, #0]
 8005c56:	f042 0240 	orr.w	r2, r2, #64	; 0x40
 8005c5a:	60da      	str	r2, [r3, #12]
    }
    return HAL_OK;
 8005c5c:	2300      	movs	r3, #0
 8005c5e:	e000      	b.n	8005c62 <UART_Transmit_IT+0x94>
  }
  else
  {
    return HAL_BUSY;
 8005c60:	2302      	movs	r3, #2
  }
}
 8005c62:	4618      	mov	r0, r3
 8005c64:	3714      	adds	r7, #20
 8005c66:	46bd      	mov	sp, r7
 8005c68:	f85d 7b04 	ldr.w	r7, [sp], #4
 8005c6c:	4770      	bx	lr

08005c6e <UART_EndTransmit_IT>:
  * @param  huart  Pointer to a UART_HandleTypeDef structure that contains
  *                the configuration information for the specified UART module.
  * @retval HAL status
  */
static HAL_StatusTypeDef UART_EndTransmit_IT(UART_HandleTypeDef *huart)
{
 8005c6e:	b580      	push	{r7, lr}
 8005c70:	b082      	sub	sp, #8
 8005c72:	af00      	add	r7, sp, #0
 8005c74:	6078      	str	r0, [r7, #4]
  /* Disable the UART Transmit Complete Interrupt */
  __HAL_UART_DISABLE_IT(huart, UART_IT_TC);
 8005c76:	687b      	ldr	r3, [r7, #4]
 8005c78:	681b      	ldr	r3, [r3, #0]
 8005c7a:	68da      	ldr	r2, [r3, #12]
 8005c7c:	687b      	ldr	r3, [r7, #4]
 8005c7e:	681b      	ldr	r3, [r3, #0]
 8005c80:	f022 0240 	bic.w	r2, r2, #64	; 0x40
 8005c84:	60da      	str	r2, [r3, #12]

  /* Tx process is ended, restore huart->gState to Ready */
  huart->gState = HAL_UART_STATE_READY;
 8005c86:	687b      	ldr	r3, [r7, #4]
 8005c88:	2220      	movs	r2, #32
 8005c8a:	f883 203d 	strb.w	r2, [r3, #61]	; 0x3d
#if (USE_HAL_UART_REGISTER_CALLBACKS == 1)
  /*Call registered Tx complete callback*/
  huart->TxCpltCallback(huart);
#else
  /*Call legacy weak Tx complete callback*/
  HAL_UART_TxCpltCallback(huart);
 8005c8e:	6878      	ldr	r0, [r7, #4]
 8005c90:	f7ff fefc 	bl	8005a8c <HAL_UART_TxCpltCallback>
#endif /* USE_HAL_UART_REGISTER_CALLBACKS */

  return HAL_OK;
 8005c94:	2300      	movs	r3, #0
}
 8005c96:	4618      	mov	r0, r3
 8005c98:	3708      	adds	r7, #8
 8005c9a:	46bd      	mov	sp, r7
 8005c9c:	bd80      	pop	{r7, pc}

08005c9e <UART_Receive_IT>:
  * @param  huart  Pointer to a UART_HandleTypeDef structure that contains
  *                the configuration information for the specified UART module.
  * @retval HAL status
  */
static HAL_StatusTypeDef UART_Receive_IT(UART_HandleTypeDef *huart)
{
 8005c9e:	b580      	push	{r7, lr}
 8005ca0:	b08c      	sub	sp, #48	; 0x30
 8005ca2:	af00      	add	r7, sp, #0
 8005ca4:	6078      	str	r0, [r7, #4]
  uint8_t  *pdata8bits;
  uint16_t *pdata16bits;

  /* Check that a Rx process is ongoing */
  if (huart->RxState == HAL_UART_STATE_BUSY_RX)
 8005ca6:	687b      	ldr	r3, [r7, #4]
 8005ca8:	f893 303e 	ldrb.w	r3, [r3, #62]	; 0x3e
 8005cac:	b2db      	uxtb	r3, r3
 8005cae:	2b22      	cmp	r3, #34	; 0x22
 8005cb0:	f040 80ab 	bne.w	8005e0a <UART_Receive_IT+0x16c>
  {
    if ((huart->Init.WordLength == UART_WORDLENGTH_9B) && (huart->Init.Parity == UART_PARITY_NONE))
 8005cb4:	687b      	ldr	r3, [r7, #4]
 8005cb6:	689b      	ldr	r3, [r3, #8]
 8005cb8:	f5b3 5f80 	cmp.w	r3, #4096	; 0x1000
 8005cbc:	d117      	bne.n	8005cee <UART_Receive_IT+0x50>
 8005cbe:	687b      	ldr	r3, [r7, #4]
 8005cc0:	691b      	ldr	r3, [r3, #16]
 8005cc2:	2b00      	cmp	r3, #0
 8005cc4:	d113      	bne.n	8005cee <UART_Receive_IT+0x50>
    {
      pdata8bits  = NULL;
 8005cc6:	2300      	movs	r3, #0
 8005cc8:	62fb      	str	r3, [r7, #44]	; 0x2c
      pdata16bits = (uint16_t *) huart->pRxBuffPtr;
 8005cca:	687b      	ldr	r3, [r7, #4]
 8005ccc:	6a9b      	ldr	r3, [r3, #40]	; 0x28
 8005cce:	62bb      	str	r3, [r7, #40]	; 0x28
      *pdata16bits = (uint16_t)(huart->Instance->DR & (uint16_t)0x01FF);
 8005cd0:	687b      	ldr	r3, [r7, #4]
 8005cd2:	681b      	ldr	r3, [r3, #0]
 8005cd4:	685b      	ldr	r3, [r3, #4]
 8005cd6:	b29b      	uxth	r3, r3
 8005cd8:	f3c3 0308 	ubfx	r3, r3, #0, #9
 8005cdc:	b29a      	uxth	r2, r3
 8005cde:	6abb      	ldr	r3, [r7, #40]	; 0x28
 8005ce0:	801a      	strh	r2, [r3, #0]
      huart->pRxBuffPtr += 2U;
 8005ce2:	687b      	ldr	r3, [r7, #4]
 8005ce4:	6a9b      	ldr	r3, [r3, #40]	; 0x28
 8005ce6:	1c9a      	adds	r2, r3, #2
 8005ce8:	687b      	ldr	r3, [r7, #4]
 8005cea:	629a      	str	r2, [r3, #40]	; 0x28
 8005cec:	e026      	b.n	8005d3c <UART_Receive_IT+0x9e>
    }
    else
    {
      pdata8bits = (uint8_t *) huart->pRxBuffPtr;
 8005cee:	687b      	ldr	r3, [r7, #4]
 8005cf0:	6a9b      	ldr	r3, [r3, #40]	; 0x28
 8005cf2:	62fb      	str	r3, [r7, #44]	; 0x2c
      pdata16bits  = NULL;
 8005cf4:	2300      	movs	r3, #0
 8005cf6:	62bb      	str	r3, [r7, #40]	; 0x28

      if ((huart->Init.WordLength == UART_WORDLENGTH_9B) || ((huart->Init.WordLength == UART_WORDLENGTH_8B) && (huart->Init.Parity == UART_PARITY_NONE)))
 8005cf8:	687b      	ldr	r3, [r7, #4]
 8005cfa:	689b      	ldr	r3, [r3, #8]
 8005cfc:	f5b3 5f80 	cmp.w	r3, #4096	; 0x1000
 8005d00:	d007      	beq.n	8005d12 <UART_Receive_IT+0x74>
 8005d02:	687b      	ldr	r3, [r7, #4]
 8005d04:	689b      	ldr	r3, [r3, #8]
 8005d06:	2b00      	cmp	r3, #0
 8005d08:	d10a      	bne.n	8005d20 <UART_Receive_IT+0x82>
 8005d0a:	687b      	ldr	r3, [r7, #4]
 8005d0c:	691b      	ldr	r3, [r3, #16]
 8005d0e:	2b00      	cmp	r3, #0
 8005d10:	d106      	bne.n	8005d20 <UART_Receive_IT+0x82>
      {
        *pdata8bits = (uint8_t)(huart->Instance->DR & (uint8_t)0x00FF);
 8005d12:	687b      	ldr	r3, [r7, #4]
 8005d14:	681b      	ldr	r3, [r3, #0]
 8005d16:	685b      	ldr	r3, [r3, #4]
 8005d18:	b2da      	uxtb	r2, r3
 8005d1a:	6afb      	ldr	r3, [r7, #44]	; 0x2c
 8005d1c:	701a      	strb	r2, [r3, #0]
 8005d1e:	e008      	b.n	8005d32 <UART_Receive_IT+0x94>
      }
      else
      {
        *pdata8bits = (uint8_t)(huart->Instance->DR & (uint8_t)0x007F);
 8005d20:	687b      	ldr	r3, [r7, #4]
 8005d22:	681b      	ldr	r3, [r3, #0]
 8005d24:	685b      	ldr	r3, [r3, #4]
 8005d26:	b2db      	uxtb	r3, r3
 8005d28:	f003 037f 	and.w	r3, r3, #127	; 0x7f
 8005d2c:	b2da      	uxtb	r2, r3
 8005d2e:	6afb      	ldr	r3, [r7, #44]	; 0x2c
 8005d30:	701a      	strb	r2, [r3, #0]
      }
      huart->pRxBuffPtr += 1U;
 8005d32:	687b      	ldr	r3, [r7, #4]
 8005d34:	6a9b      	ldr	r3, [r3, #40]	; 0x28
 8005d36:	1c5a      	adds	r2, r3, #1
 8005d38:	687b      	ldr	r3, [r7, #4]
 8005d3a:	629a      	str	r2, [r3, #40]	; 0x28
    }

    if (--huart->RxXferCount == 0U)
 8005d3c:	687b      	ldr	r3, [r7, #4]
 8005d3e:	8ddb      	ldrh	r3, [r3, #46]	; 0x2e
 8005d40:	b29b      	uxth	r3, r3
 8005d42:	3b01      	subs	r3, #1
 8005d44:	b29b      	uxth	r3, r3
 8005d46:	687a      	ldr	r2, [r7, #4]
 8005d48:	4619      	mov	r1, r3
 8005d4a:	85d1      	strh	r1, [r2, #46]	; 0x2e
 8005d4c:	2b00      	cmp	r3, #0
 8005d4e:	d15a      	bne.n	8005e06 <UART_Receive_IT+0x168>
    {
      /* Disable the UART Data Register not empty Interrupt */
      __HAL_UART_DISABLE_IT(huart, UART_IT_RXNE);
 8005d50:	687b      	ldr	r3, [r7, #4]
 8005d52:	681b      	ldr	r3, [r3, #0]
 8005d54:	68da      	ldr	r2, [r3, #12]
 8005d56:	687b      	ldr	r3, [r7, #4]
 8005d58:	681b      	ldr	r3, [r3, #0]
 8005d5a:	f022 0220 	bic.w	r2, r2, #32
 8005d5e:	60da      	str	r2, [r3, #12]

      /* Disable the UART Parity Error Interrupt */
      __HAL_UART_DISABLE_IT(huart, UART_IT_PE);
 8005d60:	687b      	ldr	r3, [r7, #4]
 8005d62:	681b      	ldr	r3, [r3, #0]
 8005d64:	68da      	ldr	r2, [r3, #12]
 8005d66:	687b      	ldr	r3, [r7, #4]
 8005d68:	681b      	ldr	r3, [r3, #0]
 8005d6a:	f422 7280 	bic.w	r2, r2, #256	; 0x100
 8005d6e:	60da      	str	r2, [r3, #12]

      /* Disable the UART Error Interrupt: (Frame error, noise error, overrun error) */
      __HAL_UART_DISABLE_IT(huart, UART_IT_ERR);
 8005d70:	687b      	ldr	r3, [r7, #4]
 8005d72:	681b      	ldr	r3, [r3, #0]
 8005d74:	695a      	ldr	r2, [r3, #20]
 8005d76:	687b      	ldr	r3, [r7, #4]
 8005d78:	681b      	ldr	r3, [r3, #0]
 8005d7a:	f022 0201 	bic.w	r2, r2, #1
 8005d7e:	615a      	str	r2, [r3, #20]

      /* Rx process is completed, restore huart->RxState to Ready */
      huart->RxState = HAL_UART_STATE_READY;
 8005d80:	687b      	ldr	r3, [r7, #4]
 8005d82:	2220      	movs	r2, #32
 8005d84:	f883 203e 	strb.w	r2, [r3, #62]	; 0x3e

      /* Check current reception Mode :
         If Reception till IDLE event has been selected : */
      if (huart->ReceptionType == HAL_UART_RECEPTION_TOIDLE)
 8005d88:	687b      	ldr	r3, [r7, #4]
 8005d8a:	6b1b      	ldr	r3, [r3, #48]	; 0x30
 8005d8c:	2b01      	cmp	r3, #1
 8005d8e:	d135      	bne.n	8005dfc <UART_Receive_IT+0x15e>
      {
        /* Set reception type to Standard */
        huart->ReceptionType = HAL_UART_RECEPTION_STANDARD;
 8005d90:	687b      	ldr	r3, [r7, #4]
 8005d92:	2200      	movs	r2, #0
 8005d94:	631a      	str	r2, [r3, #48]	; 0x30

        /* Disable IDLE interrupt */
        ATOMIC_CLEAR_BIT(huart->Instance->CR1, USART_CR1_IDLEIE);
 8005d96:	687b      	ldr	r3, [r7, #4]
 8005d98:	681b      	ldr	r3, [r3, #0]
 8005d9a:	330c      	adds	r3, #12
 8005d9c:	617b      	str	r3, [r7, #20]
   __ASM volatile ("ldrex %0, %1" : "=r" (result) : "Q" (*addr) );
 8005d9e:	697b      	ldr	r3, [r7, #20]
 8005da0:	e853 3f00 	ldrex	r3, [r3]
 8005da4:	613b      	str	r3, [r7, #16]
   return(result);
 8005da6:	693b      	ldr	r3, [r7, #16]
 8005da8:	f023 0310 	bic.w	r3, r3, #16
 8005dac:	627b      	str	r3, [r7, #36]	; 0x24
 8005dae:	687b      	ldr	r3, [r7, #4]
 8005db0:	681b      	ldr	r3, [r3, #0]
 8005db2:	330c      	adds	r3, #12
 8005db4:	6a7a      	ldr	r2, [r7, #36]	; 0x24
 8005db6:	623a      	str	r2, [r7, #32]
 8005db8:	61fb      	str	r3, [r7, #28]
   __ASM volatile ("strex %0, %2, %1" : "=&r" (result), "=Q" (*addr) : "r" (value) );
 8005dba:	69f9      	ldr	r1, [r7, #28]
 8005dbc:	6a3a      	ldr	r2, [r7, #32]
 8005dbe:	e841 2300 	strex	r3, r2, [r1]
 8005dc2:	61bb      	str	r3, [r7, #24]
   return(result);
 8005dc4:	69bb      	ldr	r3, [r7, #24]
 8005dc6:	2b00      	cmp	r3, #0
 8005dc8:	d1e5      	bne.n	8005d96 <UART_Receive_IT+0xf8>

        /* Check if IDLE flag is set */
        if (__HAL_UART_GET_FLAG(huart, UART_FLAG_IDLE))
 8005dca:	687b      	ldr	r3, [r7, #4]
 8005dcc:	681b      	ldr	r3, [r3, #0]
 8005dce:	681b      	ldr	r3, [r3, #0]
 8005dd0:	f003 0310 	and.w	r3, r3, #16
 8005dd4:	2b10      	cmp	r3, #16
 8005dd6:	d10a      	bne.n	8005dee <UART_Receive_IT+0x150>
        {
          /* Clear IDLE flag in ISR */
          __HAL_UART_CLEAR_IDLEFLAG(huart);
 8005dd8:	2300      	movs	r3, #0
 8005dda:	60fb      	str	r3, [r7, #12]
 8005ddc:	687b      	ldr	r3, [r7, #4]
 8005dde:	681b      	ldr	r3, [r3, #0]
 8005de0:	681b      	ldr	r3, [r3, #0]
 8005de2:	60fb      	str	r3, [r7, #12]
 8005de4:	687b      	ldr	r3, [r7, #4]
 8005de6:	681b      	ldr	r3, [r3, #0]
 8005de8:	685b      	ldr	r3, [r3, #4]
 8005dea:	60fb      	str	r3, [r7, #12]
 8005dec:	68fb      	ldr	r3, [r7, #12]
#if (USE_HAL_UART_REGISTER_CALLBACKS == 1)
        /*Call registered Rx Event callback*/
        huart->RxEventCallback(huart, huart->RxXferSize);
#else
        /*Call legacy weak Rx Event callback*/
        HAL_UARTEx_RxEventCallback(huart, huart->RxXferSize);
 8005dee:	687b      	ldr	r3, [r7, #4]
 8005df0:	8d9b      	ldrh	r3, [r3, #44]	; 0x2c
 8005df2:	4619      	mov	r1, r3
 8005df4:	6878      	ldr	r0, [r7, #4]
 8005df6:	f7ff fe67 	bl	8005ac8 <HAL_UARTEx_RxEventCallback>
 8005dfa:	e002      	b.n	8005e02 <UART_Receive_IT+0x164>
#if (USE_HAL_UART_REGISTER_CALLBACKS == 1)
        /*Call registered Rx complete callback*/
        huart->RxCpltCallback(huart);
#else
        /*Call legacy weak Rx complete callback*/
        HAL_UART_RxCpltCallback(huart);
 8005dfc:	6878      	ldr	r0, [r7, #4]
 8005dfe:	f7ff fe4f 	bl	8005aa0 <HAL_UART_RxCpltCallback>
#endif /* USE_HAL_UART_REGISTER_CALLBACKS */
      }

      return HAL_OK;
 8005e02:	2300      	movs	r3, #0
 8005e04:	e002      	b.n	8005e0c <UART_Receive_IT+0x16e>
    }
    return HAL_OK;
 8005e06:	2300      	movs	r3, #0
 8005e08:	e000      	b.n	8005e0c <UART_Receive_IT+0x16e>
  }
  else
  {
    return HAL_BUSY;
 8005e0a:	2302      	movs	r3, #2
  }
}
 8005e0c:	4618      	mov	r0, r3
 8005e0e:	3730      	adds	r7, #48	; 0x30
 8005e10:	46bd      	mov	sp, r7
 8005e12:	bd80      	pop	{r7, pc}

08005e14 <UART_SetConfig>:
  * @param  huart  Pointer to a UART_HandleTypeDef structure that contains
  *                the configuration information for the specified UART module.
  * @retval None
  */
static void UART_SetConfig(UART_HandleTypeDef *huart)
{
 8005e14:	e92d 4fb0 	stmdb	sp!, {r4, r5, r7, r8, r9, sl, fp, lr}
 8005e18:	b0c0      	sub	sp, #256	; 0x100
 8005e1a:	af00      	add	r7, sp, #0
 8005e1c:	f8c7 00f4 	str.w	r0, [r7, #244]	; 0xf4
  assert_param(IS_UART_MODE(huart->Init.Mode));

  /*-------------------------- USART CR2 Configuration -----------------------*/
  /* Configure the UART Stop Bits: Set STOP[13:12] bits
     according to huart->Init.StopBits value */
  MODIFY_REG(huart->Instance->CR2, USART_CR2_STOP, huart->Init.StopBits);
 8005e20:	f8d7 30f4 	ldr.w	r3, [r7, #244]	; 0xf4
 8005e24:	681b      	ldr	r3, [r3, #0]
 8005e26:	691b      	ldr	r3, [r3, #16]
 8005e28:	f423 5040 	bic.w	r0, r3, #12288	; 0x3000
 8005e2c:	f8d7 30f4 	ldr.w	r3, [r7, #244]	; 0xf4
 8005e30:	68d9      	ldr	r1, [r3, #12]
 8005e32:	f8d7 30f4 	ldr.w	r3, [r7, #244]	; 0xf4
 8005e36:	681a      	ldr	r2, [r3, #0]
 8005e38:	ea40 0301 	orr.w	r3, r0, r1
 8005e3c:	6113      	str	r3, [r2, #16]
     Set the M bits according to huart->Init.WordLength value
     Set PCE and PS bits according to huart->Init.Parity value
     Set TE and RE bits according to huart->Init.Mode value
     Set OVER8 bit according to huart->Init.OverSampling value */

  tmpreg = (uint32_t)huart->Init.WordLength | huart->Init.Parity | huart->Init.Mode | huart->Init.OverSampling;
 8005e3e:	f8d7 30f4 	ldr.w	r3, [r7, #244]	; 0xf4
 8005e42:	689a      	ldr	r2, [r3, #8]
 8005e44:	f8d7 30f4 	ldr.w	r3, [r7, #244]	; 0xf4
 8005e48:	691b      	ldr	r3, [r3, #16]
 8005e4a:	431a      	orrs	r2, r3
 8005e4c:	f8d7 30f4 	ldr.w	r3, [r7, #244]	; 0xf4
 8005e50:	695b      	ldr	r3, [r3, #20]
 8005e52:	431a      	orrs	r2, r3
 8005e54:	f8d7 30f4 	ldr.w	r3, [r7, #244]	; 0xf4
 8005e58:	69db      	ldr	r3, [r3, #28]
 8005e5a:	4313      	orrs	r3, r2
 8005e5c:	f8c7 30f8 	str.w	r3, [r7, #248]	; 0xf8
  MODIFY_REG(huart->Instance->CR1,
 8005e60:	f8d7 30f4 	ldr.w	r3, [r7, #244]	; 0xf4
 8005e64:	681b      	ldr	r3, [r3, #0]
 8005e66:	68db      	ldr	r3, [r3, #12]
 8005e68:	f423 4116 	bic.w	r1, r3, #38400	; 0x9600
 8005e6c:	f021 010c 	bic.w	r1, r1, #12
 8005e70:	f8d7 30f4 	ldr.w	r3, [r7, #244]	; 0xf4
 8005e74:	681a      	ldr	r2, [r3, #0]
 8005e76:	f8d7 30f8 	ldr.w	r3, [r7, #248]	; 0xf8
 8005e7a:	430b      	orrs	r3, r1
 8005e7c:	60d3      	str	r3, [r2, #12]
             (uint32_t)(USART_CR1_M | USART_CR1_PCE | USART_CR1_PS | USART_CR1_TE | USART_CR1_RE | USART_CR1_OVER8),
             tmpreg);

  /*-------------------------- USART CR3 Configuration -----------------------*/
  /* Configure the UART HFC: Set CTSE and RTSE bits according to huart->Init.HwFlowCtl value */
  MODIFY_REG(huart->Instance->CR3, (USART_CR3_RTSE | USART_CR3_CTSE), huart->Init.HwFlowCtl);
 8005e7e:	f8d7 30f4 	ldr.w	r3, [r7, #244]	; 0xf4
 8005e82:	681b      	ldr	r3, [r3, #0]
 8005e84:	695b      	ldr	r3, [r3, #20]
 8005e86:	f423 7040 	bic.w	r0, r3, #768	; 0x300
 8005e8a:	f8d7 30f4 	ldr.w	r3, [r7, #244]	; 0xf4
 8005e8e:	6999      	ldr	r1, [r3, #24]
 8005e90:	f8d7 30f4 	ldr.w	r3, [r7, #244]	; 0xf4
 8005e94:	681a      	ldr	r2, [r3, #0]
 8005e96:	ea40 0301 	orr.w	r3, r0, r1
 8005e9a:	6153      	str	r3, [r2, #20]
    if ((huart->Instance == USART1) || (huart->Instance == USART6) || (huart->Instance == UART9) || (huart->Instance == UART10))
    {
      pclk = HAL_RCC_GetPCLK2Freq();
    }
#elif defined(USART6)
    if ((huart->Instance == USART1) || (huart->Instance == USART6))
 8005e9c:	f8d7 30f4 	ldr.w	r3, [r7, #244]	; 0xf4
 8005ea0:	681a      	ldr	r2, [r3, #0]
 8005ea2:	4b8f      	ldr	r3, [pc, #572]	; (80060e0 <UART_SetConfig+0x2cc>)
 8005ea4:	429a      	cmp	r2, r3
 8005ea6:	d005      	beq.n	8005eb4 <UART_SetConfig+0xa0>
 8005ea8:	f8d7 30f4 	ldr.w	r3, [r7, #244]	; 0xf4
 8005eac:	681a      	ldr	r2, [r3, #0]
 8005eae:	4b8d      	ldr	r3, [pc, #564]	; (80060e4 <UART_SetConfig+0x2d0>)
 8005eb0:	429a      	cmp	r2, r3
 8005eb2:	d104      	bne.n	8005ebe <UART_SetConfig+0xaa>
    {
      pclk = HAL_RCC_GetPCLK2Freq();
 8005eb4:	f7ff f922 	bl	80050fc <HAL_RCC_GetPCLK2Freq>
 8005eb8:	f8c7 00fc 	str.w	r0, [r7, #252]	; 0xfc
 8005ebc:	e003      	b.n	8005ec6 <UART_SetConfig+0xb2>
      pclk = HAL_RCC_GetPCLK2Freq();
    }
#endif /* USART6 */
    else
    {
      pclk = HAL_RCC_GetPCLK1Freq();
 8005ebe:	f7ff f909 	bl	80050d4 <HAL_RCC_GetPCLK1Freq>
 8005ec2:	f8c7 00fc 	str.w	r0, [r7, #252]	; 0xfc
    }
  /*-------------------------- USART BRR Configuration ---------------------*/
  if (huart->Init.OverSampling == UART_OVERSAMPLING_8)
 8005ec6:	f8d7 30f4 	ldr.w	r3, [r7, #244]	; 0xf4
 8005eca:	69db      	ldr	r3, [r3, #28]
 8005ecc:	f5b3 4f00 	cmp.w	r3, #32768	; 0x8000
 8005ed0:	f040 810c 	bne.w	80060ec <UART_SetConfig+0x2d8>
  {
    huart->Instance->BRR = UART_BRR_SAMPLING8(pclk, huart->Init.BaudRate);
 8005ed4:	f8d7 30fc 	ldr.w	r3, [r7, #252]	; 0xfc
 8005ed8:	2200      	movs	r2, #0
 8005eda:	f8c7 30e8 	str.w	r3, [r7, #232]	; 0xe8
 8005ede:	f8c7 20ec 	str.w	r2, [r7, #236]	; 0xec
 8005ee2:	e9d7 453a 	ldrd	r4, r5, [r7, #232]	; 0xe8
 8005ee6:	4622      	mov	r2, r4
 8005ee8:	462b      	mov	r3, r5
 8005eea:	1891      	adds	r1, r2, r2
 8005eec:	65b9      	str	r1, [r7, #88]	; 0x58
 8005eee:	415b      	adcs	r3, r3
 8005ef0:	65fb      	str	r3, [r7, #92]	; 0x5c
 8005ef2:	e9d7 2316 	ldrd	r2, r3, [r7, #88]	; 0x58
 8005ef6:	4621      	mov	r1, r4
 8005ef8:	eb12 0801 	adds.w	r8, r2, r1
 8005efc:	4629      	mov	r1, r5
 8005efe:	eb43 0901 	adc.w	r9, r3, r1
 8005f02:	f04f 0200 	mov.w	r2, #0
 8005f06:	f04f 0300 	mov.w	r3, #0
 8005f0a:	ea4f 03c9 	mov.w	r3, r9, lsl #3
 8005f0e:	ea43 7358 	orr.w	r3, r3, r8, lsr #29
 8005f12:	ea4f 02c8 	mov.w	r2, r8, lsl #3
 8005f16:	4690      	mov	r8, r2
 8005f18:	4699      	mov	r9, r3
 8005f1a:	4623      	mov	r3, r4
 8005f1c:	eb18 0303 	adds.w	r3, r8, r3
 8005f20:	f8c7 30e0 	str.w	r3, [r7, #224]	; 0xe0
 8005f24:	462b      	mov	r3, r5
 8005f26:	eb49 0303 	adc.w	r3, r9, r3
 8005f2a:	f8c7 30e4 	str.w	r3, [r7, #228]	; 0xe4
 8005f2e:	f8d7 30f4 	ldr.w	r3, [r7, #244]	; 0xf4
 8005f32:	685b      	ldr	r3, [r3, #4]
 8005f34:	2200      	movs	r2, #0
 8005f36:	f8c7 30d8 	str.w	r3, [r7, #216]	; 0xd8
 8005f3a:	f8c7 20dc 	str.w	r2, [r7, #220]	; 0xdc
 8005f3e:	e9d7 1236 	ldrd	r1, r2, [r7, #216]	; 0xd8
 8005f42:	460b      	mov	r3, r1
 8005f44:	18db      	adds	r3, r3, r3
 8005f46:	653b      	str	r3, [r7, #80]	; 0x50
 8005f48:	4613      	mov	r3, r2
 8005f4a:	eb42 0303 	adc.w	r3, r2, r3
 8005f4e:	657b      	str	r3, [r7, #84]	; 0x54
 8005f50:	e9d7 2314 	ldrd	r2, r3, [r7, #80]	; 0x50
 8005f54:	e9d7 0138 	ldrd	r0, r1, [r7, #224]	; 0xe0
 8005f58:	f7fa fd5c 	bl	8000a14 <__aeabi_uldivmod>
 8005f5c:	4602      	mov	r2, r0
 8005f5e:	460b      	mov	r3, r1
 8005f60:	4b61      	ldr	r3, [pc, #388]	; (80060e8 <UART_SetConfig+0x2d4>)
 8005f62:	fba3 2302 	umull	r2, r3, r3, r2
 8005f66:	095b      	lsrs	r3, r3, #5
 8005f68:	011c      	lsls	r4, r3, #4
 8005f6a:	f8d7 30fc 	ldr.w	r3, [r7, #252]	; 0xfc
 8005f6e:	2200      	movs	r2, #0
 8005f70:	f8c7 30d0 	str.w	r3, [r7, #208]	; 0xd0
 8005f74:	f8c7 20d4 	str.w	r2, [r7, #212]	; 0xd4
 8005f78:	e9d7 8934 	ldrd	r8, r9, [r7, #208]	; 0xd0
 8005f7c:	4642      	mov	r2, r8
 8005f7e:	464b      	mov	r3, r9
 8005f80:	1891      	adds	r1, r2, r2
 8005f82:	64b9      	str	r1, [r7, #72]	; 0x48
 8005f84:	415b      	adcs	r3, r3
 8005f86:	64fb      	str	r3, [r7, #76]	; 0x4c
 8005f88:	e9d7 2312 	ldrd	r2, r3, [r7, #72]	; 0x48
 8005f8c:	4641      	mov	r1, r8
 8005f8e:	eb12 0a01 	adds.w	sl, r2, r1
 8005f92:	4649      	mov	r1, r9
 8005f94:	eb43 0b01 	adc.w	fp, r3, r1
 8005f98:	f04f 0200 	mov.w	r2, #0
 8005f9c:	f04f 0300 	mov.w	r3, #0
 8005fa0:	ea4f 03cb 	mov.w	r3, fp, lsl #3
 8005fa4:	ea43 735a 	orr.w	r3, r3, sl, lsr #29
 8005fa8:	ea4f 02ca 	mov.w	r2, sl, lsl #3
 8005fac:	4692      	mov	sl, r2
 8005fae:	469b      	mov	fp, r3
 8005fb0:	4643      	mov	r3, r8
 8005fb2:	eb1a 0303 	adds.w	r3, sl, r3
 8005fb6:	f8c7 30c8 	str.w	r3, [r7, #200]	; 0xc8
 8005fba:	464b      	mov	r3, r9
 8005fbc:	eb4b 0303 	adc.w	r3, fp, r3
 8005fc0:	f8c7 30cc 	str.w	r3, [r7, #204]	; 0xcc
 8005fc4:	f8d7 30f4 	ldr.w	r3, [r7, #244]	; 0xf4
 8005fc8:	685b      	ldr	r3, [r3, #4]
 8005fca:	2200      	movs	r2, #0
 8005fcc:	f8c7 30c0 	str.w	r3, [r7, #192]	; 0xc0
 8005fd0:	f8c7 20c4 	str.w	r2, [r7, #196]	; 0xc4
 8005fd4:	e9d7 1230 	ldrd	r1, r2, [r7, #192]	; 0xc0
 8005fd8:	460b      	mov	r3, r1
 8005fda:	18db      	adds	r3, r3, r3
 8005fdc:	643b      	str	r3, [r7, #64]	; 0x40
 8005fde:	4613      	mov	r3, r2
 8005fe0:	eb42 0303 	adc.w	r3, r2, r3
 8005fe4:	647b      	str	r3, [r7, #68]	; 0x44
 8005fe6:	e9d7 2310 	ldrd	r2, r3, [r7, #64]	; 0x40
 8005fea:	e9d7 0132 	ldrd	r0, r1, [r7, #200]	; 0xc8
 8005fee:	f7fa fd11 	bl	8000a14 <__aeabi_uldivmod>
 8005ff2:	4602      	mov	r2, r0
 8005ff4:	460b      	mov	r3, r1
 8005ff6:	4611      	mov	r1, r2
 8005ff8:	4b3b      	ldr	r3, [pc, #236]	; (80060e8 <UART_SetConfig+0x2d4>)
 8005ffa:	fba3 2301 	umull	r2, r3, r3, r1
 8005ffe:	095b      	lsrs	r3, r3, #5
 8006000:	2264      	movs	r2, #100	; 0x64
 8006002:	fb02 f303 	mul.w	r3, r2, r3
 8006006:	1acb      	subs	r3, r1, r3
 8006008:	00db      	lsls	r3, r3, #3
 800600a:	f103 0232 	add.w	r2, r3, #50	; 0x32
 800600e:	4b36      	ldr	r3, [pc, #216]	; (80060e8 <UART_SetConfig+0x2d4>)
 8006010:	fba3 2302 	umull	r2, r3, r3, r2
 8006014:	095b      	lsrs	r3, r3, #5
 8006016:	005b      	lsls	r3, r3, #1
 8006018:	f403 73f8 	and.w	r3, r3, #496	; 0x1f0
 800601c:	441c      	add	r4, r3
 800601e:	f8d7 30fc 	ldr.w	r3, [r7, #252]	; 0xfc
 8006022:	2200      	movs	r2, #0
 8006024:	f8c7 30b8 	str.w	r3, [r7, #184]	; 0xb8
 8006028:	f8c7 20bc 	str.w	r2, [r7, #188]	; 0xbc
 800602c:	e9d7 892e 	ldrd	r8, r9, [r7, #184]	; 0xb8
 8006030:	4642      	mov	r2, r8
 8006032:	464b      	mov	r3, r9
 8006034:	1891      	adds	r1, r2, r2
 8006036:	63b9      	str	r1, [r7, #56]	; 0x38
 8006038:	415b      	adcs	r3, r3
 800603a:	63fb      	str	r3, [r7, #60]	; 0x3c
 800603c:	e9d7 230e 	ldrd	r2, r3, [r7, #56]	; 0x38
 8006040:	4641      	mov	r1, r8
 8006042:	1851      	adds	r1, r2, r1
 8006044:	6339      	str	r1, [r7, #48]	; 0x30
 8006046:	4649      	mov	r1, r9
 8006048:	414b      	adcs	r3, r1
 800604a:	637b      	str	r3, [r7, #52]	; 0x34
 800604c:	f04f 0200 	mov.w	r2, #0
 8006050:	f04f 0300 	mov.w	r3, #0
 8006054:	e9d7 ab0c 	ldrd	sl, fp, [r7, #48]	; 0x30
 8006058:	4659      	mov	r1, fp
 800605a:	00cb      	lsls	r3, r1, #3
 800605c:	4651      	mov	r1, sl
 800605e:	ea43 7351 	orr.w	r3, r3, r1, lsr #29
 8006062:	4651      	mov	r1, sl
 8006064:	00ca      	lsls	r2, r1, #3
 8006066:	4610      	mov	r0, r2
 8006068:	4619      	mov	r1, r3
 800606a:	4603      	mov	r3, r0
 800606c:	4642      	mov	r2, r8
 800606e:	189b      	adds	r3, r3, r2
 8006070:	f8c7 30b0 	str.w	r3, [r7, #176]	; 0xb0
 8006074:	464b      	mov	r3, r9
 8006076:	460a      	mov	r2, r1
 8006078:	eb42 0303 	adc.w	r3, r2, r3
 800607c:	f8c7 30b4 	str.w	r3, [r7, #180]	; 0xb4
 8006080:	f8d7 30f4 	ldr.w	r3, [r7, #244]	; 0xf4
 8006084:	685b      	ldr	r3, [r3, #4]
 8006086:	2200      	movs	r2, #0
 8006088:	f8c7 30a8 	str.w	r3, [r7, #168]	; 0xa8
 800608c:	f8c7 20ac 	str.w	r2, [r7, #172]	; 0xac
 8006090:	e9d7 122a 	ldrd	r1, r2, [r7, #168]	; 0xa8
 8006094:	460b      	mov	r3, r1
 8006096:	18db      	adds	r3, r3, r3
 8006098:	62bb      	str	r3, [r7, #40]	; 0x28
 800609a:	4613      	mov	r3, r2
 800609c:	eb42 0303 	adc.w	r3, r2, r3
 80060a0:	62fb      	str	r3, [r7, #44]	; 0x2c
 80060a2:	e9d7 230a 	ldrd	r2, r3, [r7, #40]	; 0x28
 80060a6:	e9d7 012c 	ldrd	r0, r1, [r7, #176]	; 0xb0
 80060aa:	f7fa fcb3 	bl	8000a14 <__aeabi_uldivmod>
 80060ae:	4602      	mov	r2, r0
 80060b0:	460b      	mov	r3, r1
 80060b2:	4b0d      	ldr	r3, [pc, #52]	; (80060e8 <UART_SetConfig+0x2d4>)
 80060b4:	fba3 1302 	umull	r1, r3, r3, r2
 80060b8:	095b      	lsrs	r3, r3, #5
 80060ba:	2164      	movs	r1, #100	; 0x64
 80060bc:	fb01 f303 	mul.w	r3, r1, r3
 80060c0:	1ad3      	subs	r3, r2, r3
 80060c2:	00db      	lsls	r3, r3, #3
 80060c4:	3332      	adds	r3, #50	; 0x32
 80060c6:	4a08      	ldr	r2, [pc, #32]	; (80060e8 <UART_SetConfig+0x2d4>)
 80060c8:	fba2 2303 	umull	r2, r3, r2, r3
 80060cc:	095b      	lsrs	r3, r3, #5
 80060ce:	f003 0207 	and.w	r2, r3, #7
 80060d2:	f8d7 30f4 	ldr.w	r3, [r7, #244]	; 0xf4
 80060d6:	681b      	ldr	r3, [r3, #0]
 80060d8:	4422      	add	r2, r4
 80060da:	609a      	str	r2, [r3, #8]
  }
  else
  {
    huart->Instance->BRR = UART_BRR_SAMPLING16(pclk, huart->Init.BaudRate);
  }
}
 80060dc:	e105      	b.n	80062ea <UART_SetConfig+0x4d6>
 80060de:	bf00      	nop
 80060e0:	40011000 	.word	0x40011000
 80060e4:	40011400 	.word	0x40011400
 80060e8:	51eb851f 	.word	0x51eb851f
    huart->Instance->BRR = UART_BRR_SAMPLING16(pclk, huart->Init.BaudRate);
 80060ec:	f8d7 30fc 	ldr.w	r3, [r7, #252]	; 0xfc
 80060f0:	2200      	movs	r2, #0
 80060f2:	f8c7 30a0 	str.w	r3, [r7, #160]	; 0xa0
 80060f6:	f8c7 20a4 	str.w	r2, [r7, #164]	; 0xa4
 80060fa:	e9d7 8928 	ldrd	r8, r9, [r7, #160]	; 0xa0
 80060fe:	4642      	mov	r2, r8
 8006100:	464b      	mov	r3, r9
 8006102:	1891      	adds	r1, r2, r2
 8006104:	6239      	str	r1, [r7, #32]
 8006106:	415b      	adcs	r3, r3
 8006108:	627b      	str	r3, [r7, #36]	; 0x24
 800610a:	e9d7 2308 	ldrd	r2, r3, [r7, #32]
 800610e:	4641      	mov	r1, r8
 8006110:	1854      	adds	r4, r2, r1
 8006112:	4649      	mov	r1, r9
 8006114:	eb43 0501 	adc.w	r5, r3, r1
 8006118:	f04f 0200 	mov.w	r2, #0
 800611c:	f04f 0300 	mov.w	r3, #0
 8006120:	00eb      	lsls	r3, r5, #3
 8006122:	ea43 7354 	orr.w	r3, r3, r4, lsr #29
 8006126:	00e2      	lsls	r2, r4, #3
 8006128:	4614      	mov	r4, r2
 800612a:	461d      	mov	r5, r3
 800612c:	4643      	mov	r3, r8
 800612e:	18e3      	adds	r3, r4, r3
 8006130:	f8c7 3098 	str.w	r3, [r7, #152]	; 0x98
 8006134:	464b      	mov	r3, r9
 8006136:	eb45 0303 	adc.w	r3, r5, r3
 800613a:	f8c7 309c 	str.w	r3, [r7, #156]	; 0x9c
 800613e:	f8d7 30f4 	ldr.w	r3, [r7, #244]	; 0xf4
 8006142:	685b      	ldr	r3, [r3, #4]
 8006144:	2200      	movs	r2, #0
 8006146:	f8c7 3090 	str.w	r3, [r7, #144]	; 0x90
 800614a:	f8c7 2094 	str.w	r2, [r7, #148]	; 0x94
 800614e:	f04f 0200 	mov.w	r2, #0
 8006152:	f04f 0300 	mov.w	r3, #0
 8006156:	e9d7 4524 	ldrd	r4, r5, [r7, #144]	; 0x90
 800615a:	4629      	mov	r1, r5
 800615c:	008b      	lsls	r3, r1, #2
 800615e:	4621      	mov	r1, r4
 8006160:	ea43 7391 	orr.w	r3, r3, r1, lsr #30
 8006164:	4621      	mov	r1, r4
 8006166:	008a      	lsls	r2, r1, #2
 8006168:	e9d7 0126 	ldrd	r0, r1, [r7, #152]	; 0x98
 800616c:	f7fa fc52 	bl	8000a14 <__aeabi_uldivmod>
 8006170:	4602      	mov	r2, r0
 8006172:	460b      	mov	r3, r1
 8006174:	4b60      	ldr	r3, [pc, #384]	; (80062f8 <UART_SetConfig+0x4e4>)
 8006176:	fba3 2302 	umull	r2, r3, r3, r2
 800617a:	095b      	lsrs	r3, r3, #5
 800617c:	011c      	lsls	r4, r3, #4
 800617e:	f8d7 30fc 	ldr.w	r3, [r7, #252]	; 0xfc
 8006182:	2200      	movs	r2, #0
 8006184:	f8c7 3088 	str.w	r3, [r7, #136]	; 0x88
 8006188:	f8c7 208c 	str.w	r2, [r7, #140]	; 0x8c
 800618c:	e9d7 8922 	ldrd	r8, r9, [r7, #136]	; 0x88
 8006190:	4642      	mov	r2, r8
 8006192:	464b      	mov	r3, r9
 8006194:	1891      	adds	r1, r2, r2
 8006196:	61b9      	str	r1, [r7, #24]
 8006198:	415b      	adcs	r3, r3
 800619a:	61fb      	str	r3, [r7, #28]
 800619c:	e9d7 2306 	ldrd	r2, r3, [r7, #24]
 80061a0:	4641      	mov	r1, r8
 80061a2:	1851      	adds	r1, r2, r1
 80061a4:	6139      	str	r1, [r7, #16]
 80061a6:	4649      	mov	r1, r9
 80061a8:	414b      	adcs	r3, r1
 80061aa:	617b      	str	r3, [r7, #20]
 80061ac:	f04f 0200 	mov.w	r2, #0
 80061b0:	f04f 0300 	mov.w	r3, #0
 80061b4:	e9d7 ab04 	ldrd	sl, fp, [r7, #16]
 80061b8:	4659      	mov	r1, fp
 80061ba:	00cb      	lsls	r3, r1, #3
 80061bc:	4651      	mov	r1, sl
 80061be:	ea43 7351 	orr.w	r3, r3, r1, lsr #29
 80061c2:	4651      	mov	r1, sl
 80061c4:	00ca      	lsls	r2, r1, #3
 80061c6:	4610      	mov	r0, r2
 80061c8:	4619      	mov	r1, r3
 80061ca:	4603      	mov	r3, r0
 80061cc:	4642      	mov	r2, r8
 80061ce:	189b      	adds	r3, r3, r2
 80061d0:	f8c7 3080 	str.w	r3, [r7, #128]	; 0x80
 80061d4:	464b      	mov	r3, r9
 80061d6:	460a      	mov	r2, r1
 80061d8:	eb42 0303 	adc.w	r3, r2, r3
 80061dc:	f8c7 3084 	str.w	r3, [r7, #132]	; 0x84
 80061e0:	f8d7 30f4 	ldr.w	r3, [r7, #244]	; 0xf4
 80061e4:	685b      	ldr	r3, [r3, #4]
 80061e6:	2200      	movs	r2, #0
 80061e8:	67bb      	str	r3, [r7, #120]	; 0x78
 80061ea:	67fa      	str	r2, [r7, #124]	; 0x7c
 80061ec:	f04f 0200 	mov.w	r2, #0
 80061f0:	f04f 0300 	mov.w	r3, #0
 80061f4:	e9d7 891e 	ldrd	r8, r9, [r7, #120]	; 0x78
 80061f8:	4649      	mov	r1, r9
 80061fa:	008b      	lsls	r3, r1, #2
 80061fc:	4641      	mov	r1, r8
 80061fe:	ea43 7391 	orr.w	r3, r3, r1, lsr #30
 8006202:	4641      	mov	r1, r8
 8006204:	008a      	lsls	r2, r1, #2
 8006206:	e9d7 0120 	ldrd	r0, r1, [r7, #128]	; 0x80
 800620a:	f7fa fc03 	bl	8000a14 <__aeabi_uldivmod>
 800620e:	4602      	mov	r2, r0
 8006210:	460b      	mov	r3, r1
 8006212:	4b39      	ldr	r3, [pc, #228]	; (80062f8 <UART_SetConfig+0x4e4>)
 8006214:	fba3 1302 	umull	r1, r3, r3, r2
 8006218:	095b      	lsrs	r3, r3, #5
 800621a:	2164      	movs	r1, #100	; 0x64
 800621c:	fb01 f303 	mul.w	r3, r1, r3
 8006220:	1ad3      	subs	r3, r2, r3
 8006222:	011b      	lsls	r3, r3, #4
 8006224:	3332      	adds	r3, #50	; 0x32
 8006226:	4a34      	ldr	r2, [pc, #208]	; (80062f8 <UART_SetConfig+0x4e4>)
 8006228:	fba2 2303 	umull	r2, r3, r2, r3
 800622c:	095b      	lsrs	r3, r3, #5
 800622e:	f003 03f0 	and.w	r3, r3, #240	; 0xf0
 8006232:	441c      	add	r4, r3
 8006234:	f8d7 30fc 	ldr.w	r3, [r7, #252]	; 0xfc
 8006238:	2200      	movs	r2, #0
 800623a:	673b      	str	r3, [r7, #112]	; 0x70
 800623c:	677a      	str	r2, [r7, #116]	; 0x74
 800623e:	e9d7 891c 	ldrd	r8, r9, [r7, #112]	; 0x70
 8006242:	4642      	mov	r2, r8
 8006244:	464b      	mov	r3, r9
 8006246:	1891      	adds	r1, r2, r2
 8006248:	60b9      	str	r1, [r7, #8]
 800624a:	415b      	adcs	r3, r3
 800624c:	60fb      	str	r3, [r7, #12]
 800624e:	e9d7 2302 	ldrd	r2, r3, [r7, #8]
 8006252:	4641      	mov	r1, r8
 8006254:	1851      	adds	r1, r2, r1
 8006256:	6039      	str	r1, [r7, #0]
 8006258:	4649      	mov	r1, r9
 800625a:	414b      	adcs	r3, r1
 800625c:	607b      	str	r3, [r7, #4]
 800625e:	f04f 0200 	mov.w	r2, #0
 8006262:	f04f 0300 	mov.w	r3, #0
 8006266:	e9d7 ab00 	ldrd	sl, fp, [r7]
 800626a:	4659      	mov	r1, fp
 800626c:	00cb      	lsls	r3, r1, #3
 800626e:	4651      	mov	r1, sl
 8006270:	ea43 7351 	orr.w	r3, r3, r1, lsr #29
 8006274:	4651      	mov	r1, sl
 8006276:	00ca      	lsls	r2, r1, #3
 8006278:	4610      	mov	r0, r2
 800627a:	4619      	mov	r1, r3
 800627c:	4603      	mov	r3, r0
 800627e:	4642      	mov	r2, r8
 8006280:	189b      	adds	r3, r3, r2
 8006282:	66bb      	str	r3, [r7, #104]	; 0x68
 8006284:	464b      	mov	r3, r9
 8006286:	460a      	mov	r2, r1
 8006288:	eb42 0303 	adc.w	r3, r2, r3
 800628c:	66fb      	str	r3, [r7, #108]	; 0x6c
 800628e:	f8d7 30f4 	ldr.w	r3, [r7, #244]	; 0xf4
 8006292:	685b      	ldr	r3, [r3, #4]
 8006294:	2200      	movs	r2, #0
 8006296:	663b      	str	r3, [r7, #96]	; 0x60
 8006298:	667a      	str	r2, [r7, #100]	; 0x64
 800629a:	f04f 0200 	mov.w	r2, #0
 800629e:	f04f 0300 	mov.w	r3, #0
 80062a2:	e9d7 8918 	ldrd	r8, r9, [r7, #96]	; 0x60
 80062a6:	4649      	mov	r1, r9
 80062a8:	008b      	lsls	r3, r1, #2
 80062aa:	4641      	mov	r1, r8
 80062ac:	ea43 7391 	orr.w	r3, r3, r1, lsr #30
 80062b0:	4641      	mov	r1, r8
 80062b2:	008a      	lsls	r2, r1, #2
 80062b4:	e9d7 011a 	ldrd	r0, r1, [r7, #104]	; 0x68
 80062b8:	f7fa fbac 	bl	8000a14 <__aeabi_uldivmod>
 80062bc:	4602      	mov	r2, r0
 80062be:	460b      	mov	r3, r1
 80062c0:	4b0d      	ldr	r3, [pc, #52]	; (80062f8 <UART_SetConfig+0x4e4>)
 80062c2:	fba3 1302 	umull	r1, r3, r3, r2
 80062c6:	095b      	lsrs	r3, r3, #5
 80062c8:	2164      	movs	r1, #100	; 0x64
 80062ca:	fb01 f303 	mul.w	r3, r1, r3
 80062ce:	1ad3      	subs	r3, r2, r3
 80062d0:	011b      	lsls	r3, r3, #4
 80062d2:	3332      	adds	r3, #50	; 0x32
 80062d4:	4a08      	ldr	r2, [pc, #32]	; (80062f8 <UART_SetConfig+0x4e4>)
 80062d6:	fba2 2303 	umull	r2, r3, r2, r3
 80062da:	095b      	lsrs	r3, r3, #5
 80062dc:	f003 020f 	and.w	r2, r3, #15
 80062e0:	f8d7 30f4 	ldr.w	r3, [r7, #244]	; 0xf4
 80062e4:	681b      	ldr	r3, [r3, #0]
 80062e6:	4422      	add	r2, r4
 80062e8:	609a      	str	r2, [r3, #8]
}
 80062ea:	bf00      	nop
 80062ec:	f507 7780 	add.w	r7, r7, #256	; 0x100
 80062f0:	46bd      	mov	sp, r7
 80062f2:	e8bd 8fb0 	ldmia.w	sp!, {r4, r5, r7, r8, r9, sl, fp, pc}
 80062f6:	bf00      	nop
 80062f8:	51eb851f 	.word	0x51eb851f

080062fc <_ZdlPvj>:
 80062fc:	f000 b814 	b.w	8006328 <_ZdlPv>

08006300 <_Znwj>:
 8006300:	2801      	cmp	r0, #1
 8006302:	bf38      	it	cc
 8006304:	2001      	movcc	r0, #1
 8006306:	b510      	push	{r4, lr}
 8006308:	4604      	mov	r4, r0
 800630a:	4620      	mov	r0, r4
 800630c:	f000 f85a 	bl	80063c4 <malloc>
 8006310:	b930      	cbnz	r0, 8006320 <_Znwj+0x20>
 8006312:	f000 f81d 	bl	8006350 <_ZSt15get_new_handlerv>
 8006316:	b908      	cbnz	r0, 800631c <_Znwj+0x1c>
 8006318:	f000 f822 	bl	8006360 <abort>
 800631c:	4780      	blx	r0
 800631e:	e7f4      	b.n	800630a <_Znwj+0xa>
 8006320:	bd10      	pop	{r4, pc}

08006322 <__cxa_pure_virtual>:
 8006322:	b508      	push	{r3, lr}
 8006324:	f000 f80e 	bl	8006344 <_ZSt9terminatev>

08006328 <_ZdlPv>:
 8006328:	f000 b854 	b.w	80063d4 <free>

0800632c <_ZN10__cxxabiv111__terminateEPFvvE>:
 800632c:	b508      	push	{r3, lr}
 800632e:	4780      	blx	r0
 8006330:	f000 f816 	bl	8006360 <abort>

08006334 <_ZSt13get_terminatev>:
 8006334:	4b02      	ldr	r3, [pc, #8]	; (8006340 <_ZSt13get_terminatev+0xc>)
 8006336:	6818      	ldr	r0, [r3, #0]
 8006338:	f3bf 8f5b 	dmb	ish
 800633c:	4770      	bx	lr
 800633e:	bf00      	nop
 8006340:	2000000c 	.word	0x2000000c

08006344 <_ZSt9terminatev>:
 8006344:	b508      	push	{r3, lr}
 8006346:	f7ff fff5 	bl	8006334 <_ZSt13get_terminatev>
 800634a:	f7ff ffef 	bl	800632c <_ZN10__cxxabiv111__terminateEPFvvE>
	...

08006350 <_ZSt15get_new_handlerv>:
 8006350:	4b02      	ldr	r3, [pc, #8]	; (800635c <_ZSt15get_new_handlerv+0xc>)
 8006352:	6818      	ldr	r0, [r3, #0]
 8006354:	f3bf 8f5b 	dmb	ish
 8006358:	4770      	bx	lr
 800635a:	bf00      	nop
 800635c:	20000278 	.word	0x20000278

08006360 <abort>:
 8006360:	b508      	push	{r3, lr}
 8006362:	2006      	movs	r0, #6
 8006364:	f000 f95e 	bl	8006624 <raise>
 8006368:	2001      	movs	r0, #1
 800636a:	f7fd f80b 	bl	8003384 <_exit>
	...

08006370 <__errno>:
 8006370:	4b01      	ldr	r3, [pc, #4]	; (8006378 <__errno+0x8>)
 8006372:	6818      	ldr	r0, [r3, #0]
 8006374:	4770      	bx	lr
 8006376:	bf00      	nop
 8006378:	20000010 	.word	0x20000010

0800637c <__libc_init_array>:
 800637c:	b570      	push	{r4, r5, r6, lr}
 800637e:	4d0d      	ldr	r5, [pc, #52]	; (80063b4 <__libc_init_array+0x38>)
 8006380:	4c0d      	ldr	r4, [pc, #52]	; (80063b8 <__libc_init_array+0x3c>)
 8006382:	1b64      	subs	r4, r4, r5
 8006384:	10a4      	asrs	r4, r4, #2
 8006386:	2600      	movs	r6, #0
 8006388:	42a6      	cmp	r6, r4
 800638a:	d109      	bne.n	80063a0 <__libc_init_array+0x24>
 800638c:	4d0b      	ldr	r5, [pc, #44]	; (80063bc <__libc_init_array+0x40>)
 800638e:	4c0c      	ldr	r4, [pc, #48]	; (80063c0 <__libc_init_array+0x44>)
 8006390:	f000 f972 	bl	8006678 <_init>
 8006394:	1b64      	subs	r4, r4, r5
 8006396:	10a4      	asrs	r4, r4, #2
 8006398:	2600      	movs	r6, #0
 800639a:	42a6      	cmp	r6, r4
 800639c:	d105      	bne.n	80063aa <__libc_init_array+0x2e>
 800639e:	bd70      	pop	{r4, r5, r6, pc}
 80063a0:	f855 3b04 	ldr.w	r3, [r5], #4
 80063a4:	4798      	blx	r3
 80063a6:	3601      	adds	r6, #1
 80063a8:	e7ee      	b.n	8006388 <__libc_init_array+0xc>
 80063aa:	f855 3b04 	ldr.w	r3, [r5], #4
 80063ae:	4798      	blx	r3
 80063b0:	3601      	adds	r6, #1
 80063b2:	e7f2      	b.n	800639a <__libc_init_array+0x1e>
 80063b4:	0800675c 	.word	0x0800675c
 80063b8:	0800675c 	.word	0x0800675c
 80063bc:	0800675c 	.word	0x0800675c
 80063c0:	08006764 	.word	0x08006764

080063c4 <malloc>:
 80063c4:	4b02      	ldr	r3, [pc, #8]	; (80063d0 <malloc+0xc>)
 80063c6:	4601      	mov	r1, r0
 80063c8:	6818      	ldr	r0, [r3, #0]
 80063ca:	f000 b87f 	b.w	80064cc <_malloc_r>
 80063ce:	bf00      	nop
 80063d0:	20000010 	.word	0x20000010

080063d4 <free>:
 80063d4:	4b02      	ldr	r3, [pc, #8]	; (80063e0 <free+0xc>)
 80063d6:	4601      	mov	r1, r0
 80063d8:	6818      	ldr	r0, [r3, #0]
 80063da:	f000 b80b 	b.w	80063f4 <_free_r>
 80063de:	bf00      	nop
 80063e0:	20000010 	.word	0x20000010

080063e4 <memset>:
 80063e4:	4402      	add	r2, r0
 80063e6:	4603      	mov	r3, r0
 80063e8:	4293      	cmp	r3, r2
 80063ea:	d100      	bne.n	80063ee <memset+0xa>
 80063ec:	4770      	bx	lr
 80063ee:	f803 1b01 	strb.w	r1, [r3], #1
 80063f2:	e7f9      	b.n	80063e8 <memset+0x4>

080063f4 <_free_r>:
 80063f4:	b537      	push	{r0, r1, r2, r4, r5, lr}
 80063f6:	2900      	cmp	r1, #0
 80063f8:	d044      	beq.n	8006484 <_free_r+0x90>
 80063fa:	f851 3c04 	ldr.w	r3, [r1, #-4]
 80063fe:	9001      	str	r0, [sp, #4]
 8006400:	2b00      	cmp	r3, #0
 8006402:	f1a1 0404 	sub.w	r4, r1, #4
 8006406:	bfb8      	it	lt
 8006408:	18e4      	addlt	r4, r4, r3
 800640a:	f000 f927 	bl	800665c <__malloc_lock>
 800640e:	4a1e      	ldr	r2, [pc, #120]	; (8006488 <_free_r+0x94>)
 8006410:	9801      	ldr	r0, [sp, #4]
 8006412:	6813      	ldr	r3, [r2, #0]
 8006414:	b933      	cbnz	r3, 8006424 <_free_r+0x30>
 8006416:	6063      	str	r3, [r4, #4]
 8006418:	6014      	str	r4, [r2, #0]
 800641a:	b003      	add	sp, #12
 800641c:	e8bd 4030 	ldmia.w	sp!, {r4, r5, lr}
 8006420:	f000 b922 	b.w	8006668 <__malloc_unlock>
 8006424:	42a3      	cmp	r3, r4
 8006426:	d908      	bls.n	800643a <_free_r+0x46>
 8006428:	6825      	ldr	r5, [r4, #0]
 800642a:	1961      	adds	r1, r4, r5
 800642c:	428b      	cmp	r3, r1
 800642e:	bf01      	itttt	eq
 8006430:	6819      	ldreq	r1, [r3, #0]
 8006432:	685b      	ldreq	r3, [r3, #4]
 8006434:	1949      	addeq	r1, r1, r5
 8006436:	6021      	streq	r1, [r4, #0]
 8006438:	e7ed      	b.n	8006416 <_free_r+0x22>
 800643a:	461a      	mov	r2, r3
 800643c:	685b      	ldr	r3, [r3, #4]
 800643e:	b10b      	cbz	r3, 8006444 <_free_r+0x50>
 8006440:	42a3      	cmp	r3, r4
 8006442:	d9fa      	bls.n	800643a <_free_r+0x46>
 8006444:	6811      	ldr	r1, [r2, #0]
 8006446:	1855      	adds	r5, r2, r1
 8006448:	42a5      	cmp	r5, r4
 800644a:	d10b      	bne.n	8006464 <_free_r+0x70>
 800644c:	6824      	ldr	r4, [r4, #0]
 800644e:	4421      	add	r1, r4
 8006450:	1854      	adds	r4, r2, r1
 8006452:	42a3      	cmp	r3, r4
 8006454:	6011      	str	r1, [r2, #0]
 8006456:	d1e0      	bne.n	800641a <_free_r+0x26>
 8006458:	681c      	ldr	r4, [r3, #0]
 800645a:	685b      	ldr	r3, [r3, #4]
 800645c:	6053      	str	r3, [r2, #4]
 800645e:	4421      	add	r1, r4
 8006460:	6011      	str	r1, [r2, #0]
 8006462:	e7da      	b.n	800641a <_free_r+0x26>
 8006464:	d902      	bls.n	800646c <_free_r+0x78>
 8006466:	230c      	movs	r3, #12
 8006468:	6003      	str	r3, [r0, #0]
 800646a:	e7d6      	b.n	800641a <_free_r+0x26>
 800646c:	6825      	ldr	r5, [r4, #0]
 800646e:	1961      	adds	r1, r4, r5
 8006470:	428b      	cmp	r3, r1
 8006472:	bf04      	itt	eq
 8006474:	6819      	ldreq	r1, [r3, #0]
 8006476:	685b      	ldreq	r3, [r3, #4]
 8006478:	6063      	str	r3, [r4, #4]
 800647a:	bf04      	itt	eq
 800647c:	1949      	addeq	r1, r1, r5
 800647e:	6021      	streq	r1, [r4, #0]
 8006480:	6054      	str	r4, [r2, #4]
 8006482:	e7ca      	b.n	800641a <_free_r+0x26>
 8006484:	b003      	add	sp, #12
 8006486:	bd30      	pop	{r4, r5, pc}
 8006488:	2000027c 	.word	0x2000027c

0800648c <sbrk_aligned>:
 800648c:	b570      	push	{r4, r5, r6, lr}
 800648e:	4e0e      	ldr	r6, [pc, #56]	; (80064c8 <sbrk_aligned+0x3c>)
 8006490:	460c      	mov	r4, r1
 8006492:	6831      	ldr	r1, [r6, #0]
 8006494:	4605      	mov	r5, r0
 8006496:	b911      	cbnz	r1, 800649e <sbrk_aligned+0x12>
 8006498:	f000 f88c 	bl	80065b4 <_sbrk_r>
 800649c:	6030      	str	r0, [r6, #0]
 800649e:	4621      	mov	r1, r4
 80064a0:	4628      	mov	r0, r5
 80064a2:	f000 f887 	bl	80065b4 <_sbrk_r>
 80064a6:	1c43      	adds	r3, r0, #1
 80064a8:	d00a      	beq.n	80064c0 <sbrk_aligned+0x34>
 80064aa:	1cc4      	adds	r4, r0, #3
 80064ac:	f024 0403 	bic.w	r4, r4, #3
 80064b0:	42a0      	cmp	r0, r4
 80064b2:	d007      	beq.n	80064c4 <sbrk_aligned+0x38>
 80064b4:	1a21      	subs	r1, r4, r0
 80064b6:	4628      	mov	r0, r5
 80064b8:	f000 f87c 	bl	80065b4 <_sbrk_r>
 80064bc:	3001      	adds	r0, #1
 80064be:	d101      	bne.n	80064c4 <sbrk_aligned+0x38>
 80064c0:	f04f 34ff 	mov.w	r4, #4294967295
 80064c4:	4620      	mov	r0, r4
 80064c6:	bd70      	pop	{r4, r5, r6, pc}
 80064c8:	20000280 	.word	0x20000280

080064cc <_malloc_r>:
 80064cc:	e92d 41f0 	stmdb	sp!, {r4, r5, r6, r7, r8, lr}
 80064d0:	1ccd      	adds	r5, r1, #3
 80064d2:	f025 0503 	bic.w	r5, r5, #3
 80064d6:	3508      	adds	r5, #8
 80064d8:	2d0c      	cmp	r5, #12
 80064da:	bf38      	it	cc
 80064dc:	250c      	movcc	r5, #12
 80064de:	2d00      	cmp	r5, #0
 80064e0:	4607      	mov	r7, r0
 80064e2:	db01      	blt.n	80064e8 <_malloc_r+0x1c>
 80064e4:	42a9      	cmp	r1, r5
 80064e6:	d905      	bls.n	80064f4 <_malloc_r+0x28>
 80064e8:	230c      	movs	r3, #12
 80064ea:	603b      	str	r3, [r7, #0]
 80064ec:	2600      	movs	r6, #0
 80064ee:	4630      	mov	r0, r6
 80064f0:	e8bd 81f0 	ldmia.w	sp!, {r4, r5, r6, r7, r8, pc}
 80064f4:	4e2e      	ldr	r6, [pc, #184]	; (80065b0 <_malloc_r+0xe4>)
 80064f6:	f000 f8b1 	bl	800665c <__malloc_lock>
 80064fa:	6833      	ldr	r3, [r6, #0]
 80064fc:	461c      	mov	r4, r3
 80064fe:	bb34      	cbnz	r4, 800654e <_malloc_r+0x82>
 8006500:	4629      	mov	r1, r5
 8006502:	4638      	mov	r0, r7
 8006504:	f7ff ffc2 	bl	800648c <sbrk_aligned>
 8006508:	1c43      	adds	r3, r0, #1
 800650a:	4604      	mov	r4, r0
 800650c:	d14d      	bne.n	80065aa <_malloc_r+0xde>
 800650e:	6834      	ldr	r4, [r6, #0]
 8006510:	4626      	mov	r6, r4
 8006512:	2e00      	cmp	r6, #0
 8006514:	d140      	bne.n	8006598 <_malloc_r+0xcc>
 8006516:	6823      	ldr	r3, [r4, #0]
 8006518:	4631      	mov	r1, r6
 800651a:	4638      	mov	r0, r7
 800651c:	eb04 0803 	add.w	r8, r4, r3
 8006520:	f000 f848 	bl	80065b4 <_sbrk_r>
 8006524:	4580      	cmp	r8, r0
 8006526:	d13a      	bne.n	800659e <_malloc_r+0xd2>
 8006528:	6821      	ldr	r1, [r4, #0]
 800652a:	3503      	adds	r5, #3
 800652c:	1a6d      	subs	r5, r5, r1
 800652e:	f025 0503 	bic.w	r5, r5, #3
 8006532:	3508      	adds	r5, #8
 8006534:	2d0c      	cmp	r5, #12
 8006536:	bf38      	it	cc
 8006538:	250c      	movcc	r5, #12
 800653a:	4629      	mov	r1, r5
 800653c:	4638      	mov	r0, r7
 800653e:	f7ff ffa5 	bl	800648c <sbrk_aligned>
 8006542:	3001      	adds	r0, #1
 8006544:	d02b      	beq.n	800659e <_malloc_r+0xd2>
 8006546:	6823      	ldr	r3, [r4, #0]
 8006548:	442b      	add	r3, r5
 800654a:	6023      	str	r3, [r4, #0]
 800654c:	e00e      	b.n	800656c <_malloc_r+0xa0>
 800654e:	6822      	ldr	r2, [r4, #0]
 8006550:	1b52      	subs	r2, r2, r5
 8006552:	d41e      	bmi.n	8006592 <_malloc_r+0xc6>
 8006554:	2a0b      	cmp	r2, #11
 8006556:	d916      	bls.n	8006586 <_malloc_r+0xba>
 8006558:	1961      	adds	r1, r4, r5
 800655a:	42a3      	cmp	r3, r4
 800655c:	6025      	str	r5, [r4, #0]
 800655e:	bf18      	it	ne
 8006560:	6059      	strne	r1, [r3, #4]
 8006562:	6863      	ldr	r3, [r4, #4]
 8006564:	bf08      	it	eq
 8006566:	6031      	streq	r1, [r6, #0]
 8006568:	5162      	str	r2, [r4, r5]
 800656a:	604b      	str	r3, [r1, #4]
 800656c:	4638      	mov	r0, r7
 800656e:	f104 060b 	add.w	r6, r4, #11
 8006572:	f000 f879 	bl	8006668 <__malloc_unlock>
 8006576:	f026 0607 	bic.w	r6, r6, #7
 800657a:	1d23      	adds	r3, r4, #4
 800657c:	1af2      	subs	r2, r6, r3
 800657e:	d0b6      	beq.n	80064ee <_malloc_r+0x22>
 8006580:	1b9b      	subs	r3, r3, r6
 8006582:	50a3      	str	r3, [r4, r2]
 8006584:	e7b3      	b.n	80064ee <_malloc_r+0x22>
 8006586:	6862      	ldr	r2, [r4, #4]
 8006588:	42a3      	cmp	r3, r4
 800658a:	bf0c      	ite	eq
 800658c:	6032      	streq	r2, [r6, #0]
 800658e:	605a      	strne	r2, [r3, #4]
 8006590:	e7ec      	b.n	800656c <_malloc_r+0xa0>
 8006592:	4623      	mov	r3, r4
 8006594:	6864      	ldr	r4, [r4, #4]
 8006596:	e7b2      	b.n	80064fe <_malloc_r+0x32>
 8006598:	4634      	mov	r4, r6
 800659a:	6876      	ldr	r6, [r6, #4]
 800659c:	e7b9      	b.n	8006512 <_malloc_r+0x46>
 800659e:	230c      	movs	r3, #12
 80065a0:	603b      	str	r3, [r7, #0]
 80065a2:	4638      	mov	r0, r7
 80065a4:	f000 f860 	bl	8006668 <__malloc_unlock>
 80065a8:	e7a1      	b.n	80064ee <_malloc_r+0x22>
 80065aa:	6025      	str	r5, [r4, #0]
 80065ac:	e7de      	b.n	800656c <_malloc_r+0xa0>
 80065ae:	bf00      	nop
 80065b0:	2000027c 	.word	0x2000027c

080065b4 <_sbrk_r>:
 80065b4:	b538      	push	{r3, r4, r5, lr}
 80065b6:	4d06      	ldr	r5, [pc, #24]	; (80065d0 <_sbrk_r+0x1c>)
 80065b8:	2300      	movs	r3, #0
 80065ba:	4604      	mov	r4, r0
 80065bc:	4608      	mov	r0, r1
 80065be:	602b      	str	r3, [r5, #0]
 80065c0:	f7fc feea 	bl	8003398 <_sbrk>
 80065c4:	1c43      	adds	r3, r0, #1
 80065c6:	d102      	bne.n	80065ce <_sbrk_r+0x1a>
 80065c8:	682b      	ldr	r3, [r5, #0]
 80065ca:	b103      	cbz	r3, 80065ce <_sbrk_r+0x1a>
 80065cc:	6023      	str	r3, [r4, #0]
 80065ce:	bd38      	pop	{r3, r4, r5, pc}
 80065d0:	20000284 	.word	0x20000284

080065d4 <_raise_r>:
 80065d4:	291f      	cmp	r1, #31
 80065d6:	b538      	push	{r3, r4, r5, lr}
 80065d8:	4604      	mov	r4, r0
 80065da:	460d      	mov	r5, r1
 80065dc:	d904      	bls.n	80065e8 <_raise_r+0x14>
 80065de:	2316      	movs	r3, #22
 80065e0:	6003      	str	r3, [r0, #0]
 80065e2:	f04f 30ff 	mov.w	r0, #4294967295
 80065e6:	bd38      	pop	{r3, r4, r5, pc}
 80065e8:	6c42      	ldr	r2, [r0, #68]	; 0x44
 80065ea:	b112      	cbz	r2, 80065f2 <_raise_r+0x1e>
 80065ec:	f852 3021 	ldr.w	r3, [r2, r1, lsl #2]
 80065f0:	b94b      	cbnz	r3, 8006606 <_raise_r+0x32>
 80065f2:	4620      	mov	r0, r4
 80065f4:	f000 f830 	bl	8006658 <_getpid_r>
 80065f8:	462a      	mov	r2, r5
 80065fa:	4601      	mov	r1, r0
 80065fc:	4620      	mov	r0, r4
 80065fe:	e8bd 4038 	ldmia.w	sp!, {r3, r4, r5, lr}
 8006602:	f000 b817 	b.w	8006634 <_kill_r>
 8006606:	2b01      	cmp	r3, #1
 8006608:	d00a      	beq.n	8006620 <_raise_r+0x4c>
 800660a:	1c59      	adds	r1, r3, #1
 800660c:	d103      	bne.n	8006616 <_raise_r+0x42>
 800660e:	2316      	movs	r3, #22
 8006610:	6003      	str	r3, [r0, #0]
 8006612:	2001      	movs	r0, #1
 8006614:	e7e7      	b.n	80065e6 <_raise_r+0x12>
 8006616:	2400      	movs	r4, #0
 8006618:	f842 4025 	str.w	r4, [r2, r5, lsl #2]
 800661c:	4628      	mov	r0, r5
 800661e:	4798      	blx	r3
 8006620:	2000      	movs	r0, #0
 8006622:	e7e0      	b.n	80065e6 <_raise_r+0x12>

08006624 <raise>:
 8006624:	4b02      	ldr	r3, [pc, #8]	; (8006630 <raise+0xc>)
 8006626:	4601      	mov	r1, r0
 8006628:	6818      	ldr	r0, [r3, #0]
 800662a:	f7ff bfd3 	b.w	80065d4 <_raise_r>
 800662e:	bf00      	nop
 8006630:	20000010 	.word	0x20000010

08006634 <_kill_r>:
 8006634:	b538      	push	{r3, r4, r5, lr}
 8006636:	4d07      	ldr	r5, [pc, #28]	; (8006654 <_kill_r+0x20>)
 8006638:	2300      	movs	r3, #0
 800663a:	4604      	mov	r4, r0
 800663c:	4608      	mov	r0, r1
 800663e:	4611      	mov	r1, r2
 8006640:	602b      	str	r3, [r5, #0]
 8006642:	f7fc fe8f 	bl	8003364 <_kill>
 8006646:	1c43      	adds	r3, r0, #1
 8006648:	d102      	bne.n	8006650 <_kill_r+0x1c>
 800664a:	682b      	ldr	r3, [r5, #0]
 800664c:	b103      	cbz	r3, 8006650 <_kill_r+0x1c>
 800664e:	6023      	str	r3, [r4, #0]
 8006650:	bd38      	pop	{r3, r4, r5, pc}
 8006652:	bf00      	nop
 8006654:	20000284 	.word	0x20000284

08006658 <_getpid_r>:
 8006658:	f7fc be7c 	b.w	8003354 <_getpid>

0800665c <__malloc_lock>:
 800665c:	4801      	ldr	r0, [pc, #4]	; (8006664 <__malloc_lock+0x8>)
 800665e:	f000 b809 	b.w	8006674 <__retarget_lock_acquire_recursive>
 8006662:	bf00      	nop
 8006664:	20000288 	.word	0x20000288

08006668 <__malloc_unlock>:
 8006668:	4801      	ldr	r0, [pc, #4]	; (8006670 <__malloc_unlock+0x8>)
 800666a:	f000 b804 	b.w	8006676 <__retarget_lock_release_recursive>
 800666e:	bf00      	nop
 8006670:	20000288 	.word	0x20000288

08006674 <__retarget_lock_acquire_recursive>:
 8006674:	4770      	bx	lr

08006676 <__retarget_lock_release_recursive>:
 8006676:	4770      	bx	lr

08006678 <_init>:
 8006678:	b5f8      	push	{r3, r4, r5, r6, r7, lr}
 800667a:	bf00      	nop
 800667c:	bcf8      	pop	{r3, r4, r5, r6, r7}
 800667e:	bc08      	pop	{r3}
 8006680:	469e      	mov	lr, r3
 8006682:	4770      	bx	lr

08006684 <_fini>:
 8006684:	b5f8      	push	{r3, r4, r5, r6, r7, lr}
 8006686:	bf00      	nop
 8006688:	bcf8      	pop	{r3, r4, r5, r6, r7}
 800668a:	bc08      	pop	{r3}
 800668c:	469e      	mov	lr, r3
 800668e:	4770      	bx	lr
